(lp0
(iMatrix
Matrix
p1
(dp2
S'rows'
p3
I44
sS'elements'
p4
(lp5
(lp6
a(lp7
(iMatrix
MatrixElement
p8
(dp9
S'i'
p10
I1
sS'j'
p11
I1
sS'value'
p12
F4.16665937558595
sba(iMatrix
MatrixElement
p13
(dp14
g10
I1
sg11
I2
sg12
F-1.3333250000000154
sba(iMatrix
MatrixElement
p15
(dp16
g10
I1
sg11
I3
sg12
I0
sba(iMatrix
MatrixElement
p17
(dp18
g10
I1
sg11
I4
sg12
I0
sba(iMatrix
MatrixElement
p19
(dp20
g10
I1
sg11
I5
sg12
I0
sba(iMatrix
MatrixElement
p21
(dp22
g10
I1
sg11
I6
sg12
I0
sba(iMatrix
MatrixElement
p23
(dp24
g10
I1
sg11
I7
sg12
I0
sba(iMatrix
MatrixElement
p25
(dp26
g10
I1
sg11
I8
sg12
I0
sba(iMatrix
MatrixElement
p27
(dp28
g10
I1
sg11
I9
sg12
I0
sba(iMatrix
MatrixElement
p29
(dp30
g10
I1
sg11
I10
sg12
I0
sba(iMatrix
MatrixElement
p31
(dp32
g10
I1
sg11
I11
sg12
I0
sba(iMatrix
MatrixElement
p33
(dp34
g10
I1
sg11
I12
sg12
I0
sba(iMatrix
MatrixElement
p35
(dp36
g10
I1
sg11
I13
sg12
I0
sba(iMatrix
MatrixElement
p37
(dp38
g10
I1
sg11
I14
sg12
I0
sba(iMatrix
MatrixElement
p39
(dp40
g10
I1
sg11
I15
sg12
I0
sba(iMatrix
MatrixElement
p41
(dp42
g10
I1
sg11
I16
sg12
I0
sba(iMatrix
MatrixElement
p43
(dp44
g10
I1
sg11
I17
sg12
F-0.7500187504687628
sba(iMatrix
MatrixElement
p45
(dp46
g10
I1
sg11
I18
sg12
I0
sba(iMatrix
MatrixElement
p47
(dp48
g10
I1
sg11
I19
sg12
I0
sba(iMatrix
MatrixElement
p49
(dp50
g10
I1
sg11
I20
sg12
I0
sba(iMatrix
MatrixElement
p51
(dp52
g10
I1
sg11
I21
sg12
I0
sba(iMatrix
MatrixElement
p53
(dp54
g10
I1
sg11
I22
sg12
I0
sba(iMatrix
MatrixElement
p55
(dp56
g10
I1
sg11
I23
sg12
I0
sba(iMatrix
MatrixElement
p57
(dp58
g10
I1
sg11
I24
sg12
I0
sba(iMatrix
MatrixElement
p59
(dp60
g10
I1
sg11
I25
sg12
I0
sba(iMatrix
MatrixElement
p61
(dp62
g10
I1
sg11
I26
sg12
I0
sba(iMatrix
MatrixElement
p63
(dp64
g10
I1
sg11
I27
sg12
I0
sba(iMatrix
MatrixElement
p65
(dp66
g10
I1
sg11
I28
sg12
I0
sba(iMatrix
MatrixElement
p67
(dp68
g10
I1
sg11
I29
sg12
I0
sba(iMatrix
MatrixElement
p69
(dp70
g10
I1
sg11
I30
sg12
I0
sba(iMatrix
MatrixElement
p71
(dp72
g10
I1
sg11
I31
sg12
I0
sba(iMatrix
MatrixElement
p73
(dp74
g10
I1
sg11
I32
sg12
I0
sba(iMatrix
MatrixElement
p75
(dp76
g10
I1
sg11
I33
sg12
I0
sba(iMatrix
MatrixElement
p77
(dp78
g10
I1
sg11
I34
sg12
I0
sba(iMatrix
MatrixElement
p79
(dp80
g10
I1
sg11
I35
sg12
I0
sba(iMatrix
MatrixElement
p81
(dp82
g10
I1
sg11
I36
sg12
I0
sba(iMatrix
MatrixElement
p83
(dp84
g10
I1
sg11
I37
sg12
I0
sba(iMatrix
MatrixElement
p85
(dp86
g10
I1
sg11
I38
sg12
I0
sba(iMatrix
MatrixElement
p87
(dp88
g10
I1
sg11
I39
sg12
I0
sba(iMatrix
MatrixElement
p89
(dp90
g10
I1
sg11
I40
sg12
I0
sba(iMatrix
MatrixElement
p91
(dp92
g10
I1
sg11
I41
sg12
I0
sba(iMatrix
MatrixElement
p93
(dp94
g10
I1
sg11
I42
sg12
I0
sba(iMatrix
MatrixElement
p95
(dp96
g10
I1
sg11
I43
sg12
I0
sba(iMatrix
MatrixElement
p97
(dp98
g10
I1
sg11
I44
sg12
I0
sbaa(lp99
(iMatrix
MatrixElement
p100
(dp101
g10
I2
sg11
I1
sg12
F-1.3333250000000154
sba(iMatrix
MatrixElement
p102
(dp103
g10
I2
sg11
I2
sg12
F4.166659375585967
sba(iMatrix
MatrixElement
p104
(dp105
g10
I2
sg11
I3
sg12
F-1.3333249999999968
sba(iMatrix
MatrixElement
p106
(dp107
g10
I2
sg11
I4
sg12
I0
sba(iMatrix
MatrixElement
p108
(dp109
g10
I2
sg11
I5
sg12
I0
sba(iMatrix
MatrixElement
p110
(dp111
g10
I2
sg11
I6
sg12
I0
sba(iMatrix
MatrixElement
p112
(dp113
g10
I2
sg11
I7
sg12
I0
sba(iMatrix
MatrixElement
p114
(dp115
g10
I2
sg11
I8
sg12
I0
sba(iMatrix
MatrixElement
p116
(dp117
g10
I2
sg11
I9
sg12
I0
sba(iMatrix
MatrixElement
p118
(dp119
g10
I2
sg11
I10
sg12
I0
sba(iMatrix
MatrixElement
p120
(dp121
g10
I2
sg11
I11
sg12
I0
sba(iMatrix
MatrixElement
p122
(dp123
g10
I2
sg11
I12
sg12
I0
sba(iMatrix
MatrixElement
p124
(dp125
g10
I2
sg11
I13
sg12
I0
sba(iMatrix
MatrixElement
p126
(dp127
g10
I2
sg11
I14
sg12
I0
sba(iMatrix
MatrixElement
p128
(dp129
g10
I2
sg11
I15
sg12
I0
sba(iMatrix
MatrixElement
p130
(dp131
g10
I2
sg11
I16
sg12
I0
sba(iMatrix
MatrixElement
p132
(dp133
g10
I2
sg11
I17
sg12
I0
sba(iMatrix
MatrixElement
p134
(dp135
g10
I2
sg11
I18
sg12
I0
sba(iMatrix
MatrixElement
p136
(dp137
g10
I2
sg11
I19
sg12
F-0.7500187504687605
sba(iMatrix
MatrixElement
p138
(dp139
g10
I2
sg11
I20
sg12
I0
sba(iMatrix
MatrixElement
p140
(dp141
g10
I2
sg11
I21
sg12
I0
sba(iMatrix
MatrixElement
p142
(dp143
g10
I2
sg11
I22
sg12
I0
sba(iMatrix
MatrixElement
p144
(dp145
g10
I2
sg11
I23
sg12
I0
sba(iMatrix
MatrixElement
p146
(dp147
g10
I2
sg11
I24
sg12
I0
sba(iMatrix
MatrixElement
p148
(dp149
g10
I2
sg11
I25
sg12
I0
sba(iMatrix
MatrixElement
p150
(dp151
g10
I2
sg11
I26
sg12
I0
sba(iMatrix
MatrixElement
p152
(dp153
g10
I2
sg11
I27
sg12
I0
sba(iMatrix
MatrixElement
p154
(dp155
g10
I2
sg11
I28
sg12
I0
sba(iMatrix
MatrixElement
p156
(dp157
g10
I2
sg11
I29
sg12
I0
sba(iMatrix
MatrixElement
p158
(dp159
g10
I2
sg11
I30
sg12
I0
sba(iMatrix
MatrixElement
p160
(dp161
g10
I2
sg11
I31
sg12
I0
sba(iMatrix
MatrixElement
p162
(dp163
g10
I2
sg11
I32
sg12
I0
sba(iMatrix
MatrixElement
p164
(dp165
g10
I2
sg11
I33
sg12
I0
sba(iMatrix
MatrixElement
p166
(dp167
g10
I2
sg11
I34
sg12
I0
sba(iMatrix
MatrixElement
p168
(dp169
g10
I2
sg11
I35
sg12
I0
sba(iMatrix
MatrixElement
p170
(dp171
g10
I2
sg11
I36
sg12
I0
sba(iMatrix
MatrixElement
p172
(dp173
g10
I2
sg11
I37
sg12
I0
sba(iMatrix
MatrixElement
p174
(dp175
g10
I2
sg11
I38
sg12
I0
sba(iMatrix
MatrixElement
p176
(dp177
g10
I2
sg11
I39
sg12
I0
sba(iMatrix
MatrixElement
p178
(dp179
g10
I2
sg11
I40
sg12
I0
sba(iMatrix
MatrixElement
p180
(dp181
g10
I2
sg11
I41
sg12
I0
sba(iMatrix
MatrixElement
p182
(dp183
g10
I2
sg11
I42
sg12
I0
sba(iMatrix
MatrixElement
p184
(dp185
g10
I2
sg11
I43
sg12
I0
sba(iMatrix
MatrixElement
p186
(dp187
g10
I2
sg11
I44
sg12
I0
sbaa(lp188
(iMatrix
MatrixElement
p189
(dp190
g10
I3
sg11
I1
sg12
I0
sba(iMatrix
MatrixElement
p191
(dp192
g10
I3
sg11
I2
sg12
F-1.3333249999999968
sba(iMatrix
MatrixElement
p193
(dp194
g10
I3
sg11
I3
sg12
F4.16665937558596
sba(iMatrix
MatrixElement
p195
(dp196
g10
I3
sg11
I4
sg12
I0
sba(iMatrix
MatrixElement
p197
(dp198
g10
I3
sg11
I5
sg12
F-1.3333250000000119
sba(iMatrix
MatrixElement
p199
(dp200
g10
I3
sg11
I6
sg12
I0
sba(iMatrix
MatrixElement
p201
(dp202
g10
I3
sg11
I7
sg12
I0
sba(iMatrix
MatrixElement
p203
(dp204
g10
I3
sg11
I8
sg12
I0
sba(iMatrix
MatrixElement
p205
(dp206
g10
I3
sg11
I9
sg12
I0
sba(iMatrix
MatrixElement
p207
(dp208
g10
I3
sg11
I10
sg12
I0
sba(iMatrix
MatrixElement
p209
(dp210
g10
I3
sg11
I11
sg12
I0
sba(iMatrix
MatrixElement
p211
(dp212
g10
I3
sg11
I12
sg12
I0
sba(iMatrix
MatrixElement
p213
(dp214
g10
I3
sg11
I13
sg12
I0
sba(iMatrix
MatrixElement
p215
(dp216
g10
I3
sg11
I14
sg12
I0
sba(iMatrix
MatrixElement
p217
(dp218
g10
I3
sg11
I15
sg12
I0
sba(iMatrix
MatrixElement
p219
(dp220
g10
I3
sg11
I16
sg12
I0
sba(iMatrix
MatrixElement
p221
(dp222
g10
I3
sg11
I17
sg12
I0
sba(iMatrix
MatrixElement
p223
(dp224
g10
I3
sg11
I18
sg12
I0
sba(iMatrix
MatrixElement
p225
(dp226
g10
I3
sg11
I19
sg12
I0
sba(iMatrix
MatrixElement
p227
(dp228
g10
I3
sg11
I20
sg12
I0
sba(iMatrix
MatrixElement
p229
(dp230
g10
I3
sg11
I21
sg12
F-0.7500187504687645
sba(iMatrix
MatrixElement
p231
(dp232
g10
I3
sg11
I22
sg12
I0
sba(iMatrix
MatrixElement
p233
(dp234
g10
I3
sg11
I23
sg12
I0
sba(iMatrix
MatrixElement
p235
(dp236
g10
I3
sg11
I24
sg12
I0
sba(iMatrix
MatrixElement
p237
(dp238
g10
I3
sg11
I25
sg12
I0
sba(iMatrix
MatrixElement
p239
(dp240
g10
I3
sg11
I26
sg12
I0
sba(iMatrix
MatrixElement
p241
(dp242
g10
I3
sg11
I27
sg12
I0
sba(iMatrix
MatrixElement
p243
(dp244
g10
I3
sg11
I28
sg12
I0
sba(iMatrix
MatrixElement
p245
(dp246
g10
I3
sg11
I29
sg12
I0
sba(iMatrix
MatrixElement
p247
(dp248
g10
I3
sg11
I30
sg12
I0
sba(iMatrix
MatrixElement
p249
(dp250
g10
I3
sg11
I31
sg12
I0
sba(iMatrix
MatrixElement
p251
(dp252
g10
I3
sg11
I32
sg12
I0
sba(iMatrix
MatrixElement
p253
(dp254
g10
I3
sg11
I33
sg12
I0
sba(iMatrix
MatrixElement
p255
(dp256
g10
I3
sg11
I34
sg12
I0
sba(iMatrix
MatrixElement
p257
(dp258
g10
I3
sg11
I35
sg12
I0
sba(iMatrix
MatrixElement
p259
(dp260
g10
I3
sg11
I36
sg12
I0
sba(iMatrix
MatrixElement
p261
(dp262
g10
I3
sg11
I37
sg12
I0
sba(iMatrix
MatrixElement
p263
(dp264
g10
I3
sg11
I38
sg12
I0
sba(iMatrix
MatrixElement
p265
(dp266
g10
I3
sg11
I39
sg12
I0
sba(iMatrix
MatrixElement
p267
(dp268
g10
I3
sg11
I40
sg12
I0
sba(iMatrix
MatrixElement
p269
(dp270
g10
I3
sg11
I41
sg12
I0
sba(iMatrix
MatrixElement
p271
(dp272
g10
I3
sg11
I42
sg12
I0
sba(iMatrix
MatrixElement
p273
(dp274
g10
I3
sg11
I43
sg12
I0
sba(iMatrix
MatrixElement
p275
(dp276
g10
I3
sg11
I44
sg12
I0
sbaa(lp277
(iMatrix
MatrixElement
p278
(dp279
g10
I4
sg11
I1
sg12
I0
sba(iMatrix
MatrixElement
p280
(dp281
g10
I4
sg11
I2
sg12
I0
sba(iMatrix
MatrixElement
p282
(dp283
g10
I4
sg11
I3
sg12
I0
sba(iMatrix
MatrixElement
p284
(dp285
g10
I4
sg11
I4
sg12
F4.166659375585947
sba(iMatrix
MatrixElement
p286
(dp287
g10
I4
sg11
I5
sg12
I0
sba(iMatrix
MatrixElement
p288
(dp289
g10
I4
sg11
I6
sg12
F-1.3333249999999996
sba(iMatrix
MatrixElement
p290
(dp291
g10
I4
sg11
I7
sg12
I0
sba(iMatrix
MatrixElement
p292
(dp293
g10
I4
sg11
I8
sg12
I0
sba(iMatrix
MatrixElement
p294
(dp295
g10
I4
sg11
I9
sg12
I0
sba(iMatrix
MatrixElement
p296
(dp297
g10
I4
sg11
I10
sg12
I0
sba(iMatrix
MatrixElement
p298
(dp299
g10
I4
sg11
I11
sg12
I0
sba(iMatrix
MatrixElement
p300
(dp301
g10
I4
sg11
I12
sg12
I0
sba(iMatrix
MatrixElement
p302
(dp303
g10
I4
sg11
I13
sg12
I0
sba(iMatrix
MatrixElement
p304
(dp305
g10
I4
sg11
I14
sg12
I0
sba(iMatrix
MatrixElement
p306
(dp307
g10
I4
sg11
I15
sg12
I0
sba(iMatrix
MatrixElement
p308
(dp309
g10
I4
sg11
I16
sg12
I0
sba(iMatrix
MatrixElement
p310
(dp311
g10
I4
sg11
I17
sg12
I0
sba(iMatrix
MatrixElement
p312
(dp313
g10
I4
sg11
I18
sg12
I0
sba(iMatrix
MatrixElement
p314
(dp315
g10
I4
sg11
I19
sg12
I0
sba(iMatrix
MatrixElement
p316
(dp317
g10
I4
sg11
I20
sg12
I0
sba(iMatrix
MatrixElement
p318
(dp319
g10
I4
sg11
I21
sg12
I0
sba(iMatrix
MatrixElement
p320
(dp321
g10
I4
sg11
I22
sg12
I0
sba(iMatrix
MatrixElement
p322
(dp323
g10
I4
sg11
I23
sg12
I0
sba(iMatrix
MatrixElement
p324
(dp325
g10
I4
sg11
I24
sg12
F-0.7500187504687615
sba(iMatrix
MatrixElement
p326
(dp327
g10
I4
sg11
I25
sg12
I0
sba(iMatrix
MatrixElement
p328
(dp329
g10
I4
sg11
I26
sg12
I0
sba(iMatrix
MatrixElement
p330
(dp331
g10
I4
sg11
I27
sg12
I0
sba(iMatrix
MatrixElement
p332
(dp333
g10
I4
sg11
I28
sg12
I0
sba(iMatrix
MatrixElement
p334
(dp335
g10
I4
sg11
I29
sg12
I0
sba(iMatrix
MatrixElement
p336
(dp337
g10
I4
sg11
I30
sg12
I0
sba(iMatrix
MatrixElement
p338
(dp339
g10
I4
sg11
I31
sg12
I0
sba(iMatrix
MatrixElement
p340
(dp341
g10
I4
sg11
I32
sg12
I0
sba(iMatrix
MatrixElement
p342
(dp343
g10
I4
sg11
I33
sg12
I0
sba(iMatrix
MatrixElement
p344
(dp345
g10
I4
sg11
I34
sg12
I0
sba(iMatrix
MatrixElement
p346
(dp347
g10
I4
sg11
I35
sg12
I0
sba(iMatrix
MatrixElement
p348
(dp349
g10
I4
sg11
I36
sg12
I0
sba(iMatrix
MatrixElement
p350
(dp351
g10
I4
sg11
I37
sg12
I0
sba(iMatrix
MatrixElement
p352
(dp353
g10
I4
sg11
I38
sg12
I0
sba(iMatrix
MatrixElement
p354
(dp355
g10
I4
sg11
I39
sg12
I0
sba(iMatrix
MatrixElement
p356
(dp357
g10
I4
sg11
I40
sg12
I0
sba(iMatrix
MatrixElement
p358
(dp359
g10
I4
sg11
I41
sg12
I0
sba(iMatrix
MatrixElement
p360
(dp361
g10
I4
sg11
I42
sg12
I0
sba(iMatrix
MatrixElement
p362
(dp363
g10
I4
sg11
I43
sg12
I0
sba(iMatrix
MatrixElement
p364
(dp365
g10
I4
sg11
I44
sg12
I0
sbaa(lp366
(iMatrix
MatrixElement
p367
(dp368
g10
I5
sg11
I1
sg12
I0
sba(iMatrix
MatrixElement
p369
(dp370
g10
I5
sg11
I2
sg12
I0
sba(iMatrix
MatrixElement
p371
(dp372
g10
I5
sg11
I3
sg12
F-1.3333250000000119
sba(iMatrix
MatrixElement
p373
(dp374
g10
I5
sg11
I4
sg12
I0
sba(iMatrix
MatrixElement
p375
(dp376
g10
I5
sg11
I5
sg12
F4.166659375585959
sba(iMatrix
MatrixElement
p377
(dp378
g10
I5
sg11
I6
sg12
I0
sba(iMatrix
MatrixElement
p379
(dp380
g10
I5
sg11
I7
sg12
F-1.3333249999999963
sba(iMatrix
MatrixElement
p381
(dp382
g10
I5
sg11
I8
sg12
I0
sba(iMatrix
MatrixElement
p383
(dp384
g10
I5
sg11
I9
sg12
I0
sba(iMatrix
MatrixElement
p385
(dp386
g10
I5
sg11
I10
sg12
I0
sba(iMatrix
MatrixElement
p387
(dp388
g10
I5
sg11
I11
sg12
I0
sba(iMatrix
MatrixElement
p389
(dp390
g10
I5
sg11
I12
sg12
I0
sba(iMatrix
MatrixElement
p391
(dp392
g10
I5
sg11
I13
sg12
I0
sba(iMatrix
MatrixElement
p393
(dp394
g10
I5
sg11
I14
sg12
I0
sba(iMatrix
MatrixElement
p395
(dp396
g10
I5
sg11
I15
sg12
I0
sba(iMatrix
MatrixElement
p397
(dp398
g10
I5
sg11
I16
sg12
I0
sba(iMatrix
MatrixElement
p399
(dp400
g10
I5
sg11
I17
sg12
I0
sba(iMatrix
MatrixElement
p401
(dp402
g10
I5
sg11
I18
sg12
I0
sba(iMatrix
MatrixElement
p403
(dp404
g10
I5
sg11
I19
sg12
I0
sba(iMatrix
MatrixElement
p405
(dp406
g10
I5
sg11
I20
sg12
I0
sba(iMatrix
MatrixElement
p407
(dp408
g10
I5
sg11
I21
sg12
I0
sba(iMatrix
MatrixElement
p409
(dp410
g10
I5
sg11
I22
sg12
F-0.7500187504687597
sba(iMatrix
MatrixElement
p411
(dp412
g10
I5
sg11
I23
sg12
I0
sba(iMatrix
MatrixElement
p413
(dp414
g10
I5
sg11
I24
sg12
I0
sba(iMatrix
MatrixElement
p415
(dp416
g10
I5
sg11
I25
sg12
I0
sba(iMatrix
MatrixElement
p417
(dp418
g10
I5
sg11
I26
sg12
I0
sba(iMatrix
MatrixElement
p419
(dp420
g10
I5
sg11
I27
sg12
I0
sba(iMatrix
MatrixElement
p421
(dp422
g10
I5
sg11
I28
sg12
I0
sba(iMatrix
MatrixElement
p423
(dp424
g10
I5
sg11
I29
sg12
I0
sba(iMatrix
MatrixElement
p425
(dp426
g10
I5
sg11
I30
sg12
I0
sba(iMatrix
MatrixElement
p427
(dp428
g10
I5
sg11
I31
sg12
I0
sba(iMatrix
MatrixElement
p429
(dp430
g10
I5
sg11
I32
sg12
I0
sba(iMatrix
MatrixElement
p431
(dp432
g10
I5
sg11
I33
sg12
I0
sba(iMatrix
MatrixElement
p433
(dp434
g10
I5
sg11
I34
sg12
I0
sba(iMatrix
MatrixElement
p435
(dp436
g10
I5
sg11
I35
sg12
I0
sba(iMatrix
MatrixElement
p437
(dp438
g10
I5
sg11
I36
sg12
I0
sba(iMatrix
MatrixElement
p439
(dp440
g10
I5
sg11
I37
sg12
I0
sba(iMatrix
MatrixElement
p441
(dp442
g10
I5
sg11
I38
sg12
I0
sba(iMatrix
MatrixElement
p443
(dp444
g10
I5
sg11
I39
sg12
I0
sba(iMatrix
MatrixElement
p445
(dp446
g10
I5
sg11
I40
sg12
I0
sba(iMatrix
MatrixElement
p447
(dp448
g10
I5
sg11
I41
sg12
I0
sba(iMatrix
MatrixElement
p449
(dp450
g10
I5
sg11
I42
sg12
I0
sba(iMatrix
MatrixElement
p451
(dp452
g10
I5
sg11
I43
sg12
I0
sba(iMatrix
MatrixElement
p453
(dp454
g10
I5
sg11
I44
sg12
I0
sbaa(lp455
(iMatrix
MatrixElement
p456
(dp457
g10
I6
sg11
I1
sg12
I0
sba(iMatrix
MatrixElement
p458
(dp459
g10
I6
sg11
I2
sg12
I0
sba(iMatrix
MatrixElement
p460
(dp461
g10
I6
sg11
I3
sg12
I0
sba(iMatrix
MatrixElement
p462
(dp463
g10
I6
sg11
I4
sg12
F-1.3333249999999996
sba(iMatrix
MatrixElement
p464
(dp465
g10
I6
sg11
I5
sg12
I0
sba(iMatrix
MatrixElement
p466
(dp467
g10
I6
sg11
I6
sg12
F4.166659375585947
sba(iMatrix
MatrixElement
p468
(dp469
g10
I6
sg11
I7
sg12
I0
sba(iMatrix
MatrixElement
p470
(dp471
g10
I6
sg11
I8
sg12
F-1.3333249999999999
sba(iMatrix
MatrixElement
p472
(dp473
g10
I6
sg11
I9
sg12
I0
sba(iMatrix
MatrixElement
p474
(dp475
g10
I6
sg11
I10
sg12
I0
sba(iMatrix
MatrixElement
p476
(dp477
g10
I6
sg11
I11
sg12
I0
sba(iMatrix
MatrixElement
p478
(dp479
g10
I6
sg11
I12
sg12
I0
sba(iMatrix
MatrixElement
p480
(dp481
g10
I6
sg11
I13
sg12
I0
sba(iMatrix
MatrixElement
p482
(dp483
g10
I6
sg11
I14
sg12
I0
sba(iMatrix
MatrixElement
p484
(dp485
g10
I6
sg11
I15
sg12
I0
sba(iMatrix
MatrixElement
p486
(dp487
g10
I6
sg11
I16
sg12
I0
sba(iMatrix
MatrixElement
p488
(dp489
g10
I6
sg11
I17
sg12
I0
sba(iMatrix
MatrixElement
p490
(dp491
g10
I6
sg11
I18
sg12
I0
sba(iMatrix
MatrixElement
p492
(dp493
g10
I6
sg11
I19
sg12
I0
sba(iMatrix
MatrixElement
p494
(dp495
g10
I6
sg11
I20
sg12
I0
sba(iMatrix
MatrixElement
p496
(dp497
g10
I6
sg11
I21
sg12
I0
sba(iMatrix
MatrixElement
p498
(dp499
g10
I6
sg11
I22
sg12
I0
sba(iMatrix
MatrixElement
p500
(dp501
g10
I6
sg11
I23
sg12
I0
sba(iMatrix
MatrixElement
p502
(dp503
g10
I6
sg11
I24
sg12
I0
sba(iMatrix
MatrixElement
p504
(dp505
g10
I6
sg11
I25
sg12
F-0.7500187504687614
sba(iMatrix
MatrixElement
p506
(dp507
g10
I6
sg11
I26
sg12
I0
sba(iMatrix
MatrixElement
p508
(dp509
g10
I6
sg11
I27
sg12
I0
sba(iMatrix
MatrixElement
p510
(dp511
g10
I6
sg11
I28
sg12
I0
sba(iMatrix
MatrixElement
p512
(dp513
g10
I6
sg11
I29
sg12
I0
sba(iMatrix
MatrixElement
p514
(dp515
g10
I6
sg11
I30
sg12
I0
sba(iMatrix
MatrixElement
p516
(dp517
g10
I6
sg11
I31
sg12
I0
sba(iMatrix
MatrixElement
p518
(dp519
g10
I6
sg11
I32
sg12
I0
sba(iMatrix
MatrixElement
p520
(dp521
g10
I6
sg11
I33
sg12
I0
sba(iMatrix
MatrixElement
p522
(dp523
g10
I6
sg11
I34
sg12
I0
sba(iMatrix
MatrixElement
p524
(dp525
g10
I6
sg11
I35
sg12
I0
sba(iMatrix
MatrixElement
p526
(dp527
g10
I6
sg11
I36
sg12
I0
sba(iMatrix
MatrixElement
p528
(dp529
g10
I6
sg11
I37
sg12
I0
sba(iMatrix
MatrixElement
p530
(dp531
g10
I6
sg11
I38
sg12
I0
sba(iMatrix
MatrixElement
p532
(dp533
g10
I6
sg11
I39
sg12
I0
sba(iMatrix
MatrixElement
p534
(dp535
g10
I6
sg11
I40
sg12
I0
sba(iMatrix
MatrixElement
p536
(dp537
g10
I6
sg11
I41
sg12
I0
sba(iMatrix
MatrixElement
p538
(dp539
g10
I6
sg11
I42
sg12
I0
sba(iMatrix
MatrixElement
p540
(dp541
g10
I6
sg11
I43
sg12
I0
sba(iMatrix
MatrixElement
p542
(dp543
g10
I6
sg11
I44
sg12
I0
sbaa(lp544
(iMatrix
MatrixElement
p545
(dp546
g10
I7
sg11
I1
sg12
I0
sba(iMatrix
MatrixElement
p547
(dp548
g10
I7
sg11
I2
sg12
I0
sba(iMatrix
MatrixElement
p549
(dp550
g10
I7
sg11
I3
sg12
I0
sba(iMatrix
MatrixElement
p551
(dp552
g10
I7
sg11
I4
sg12
I0
sba(iMatrix
MatrixElement
p553
(dp554
g10
I7
sg11
I5
sg12
F-1.3333249999999963
sba(iMatrix
MatrixElement
p555
(dp556
g10
I7
sg11
I6
sg12
I0
sba(iMatrix
MatrixElement
p557
(dp558
g10
I7
sg11
I7
sg12
F4.166659375585938
sba(iMatrix
MatrixElement
p559
(dp560
g10
I7
sg11
I8
sg12
I0
sba(iMatrix
MatrixElement
p561
(dp562
g10
I7
sg11
I9
sg12
F-1.3333249999999999
sba(iMatrix
MatrixElement
p563
(dp564
g10
I7
sg11
I10
sg12
I0
sba(iMatrix
MatrixElement
p565
(dp566
g10
I7
sg11
I11
sg12
I0
sba(iMatrix
MatrixElement
p567
(dp568
g10
I7
sg11
I12
sg12
I0
sba(iMatrix
MatrixElement
p569
(dp570
g10
I7
sg11
I13
sg12
I0
sba(iMatrix
MatrixElement
p571
(dp572
g10
I7
sg11
I14
sg12
I0
sba(iMatrix
MatrixElement
p573
(dp574
g10
I7
sg11
I15
sg12
I0
sba(iMatrix
MatrixElement
p575
(dp576
g10
I7
sg11
I16
sg12
I0
sba(iMatrix
MatrixElement
p577
(dp578
g10
I7
sg11
I17
sg12
I0
sba(iMatrix
MatrixElement
p579
(dp580
g10
I7
sg11
I18
sg12
I0
sba(iMatrix
MatrixElement
p581
(dp582
g10
I7
sg11
I19
sg12
I0
sba(iMatrix
MatrixElement
p583
(dp584
g10
I7
sg11
I20
sg12
I0
sba(iMatrix
MatrixElement
p585
(dp586
g10
I7
sg11
I21
sg12
I0
sba(iMatrix
MatrixElement
p587
(dp588
g10
I7
sg11
I22
sg12
I0
sba(iMatrix
MatrixElement
p589
(dp590
g10
I7
sg11
I23
sg12
F-0.7500187504687599
sba(iMatrix
MatrixElement
p591
(dp592
g10
I7
sg11
I24
sg12
I0
sba(iMatrix
MatrixElement
p593
(dp594
g10
I7
sg11
I25
sg12
I0
sba(iMatrix
MatrixElement
p595
(dp596
g10
I7
sg11
I26
sg12
I0
sba(iMatrix
MatrixElement
p597
(dp598
g10
I7
sg11
I27
sg12
I0
sba(iMatrix
MatrixElement
p599
(dp600
g10
I7
sg11
I28
sg12
I0
sba(iMatrix
MatrixElement
p601
(dp602
g10
I7
sg11
I29
sg12
I0
sba(iMatrix
MatrixElement
p603
(dp604
g10
I7
sg11
I30
sg12
I0
sba(iMatrix
MatrixElement
p605
(dp606
g10
I7
sg11
I31
sg12
I0
sba(iMatrix
MatrixElement
p607
(dp608
g10
I7
sg11
I32
sg12
I0
sba(iMatrix
MatrixElement
p609
(dp610
g10
I7
sg11
I33
sg12
I0
sba(iMatrix
MatrixElement
p611
(dp612
g10
I7
sg11
I34
sg12
I0
sba(iMatrix
MatrixElement
p613
(dp614
g10
I7
sg11
I35
sg12
I0
sba(iMatrix
MatrixElement
p615
(dp616
g10
I7
sg11
I36
sg12
I0
sba(iMatrix
MatrixElement
p617
(dp618
g10
I7
sg11
I37
sg12
I0
sba(iMatrix
MatrixElement
p619
(dp620
g10
I7
sg11
I38
sg12
I0
sba(iMatrix
MatrixElement
p621
(dp622
g10
I7
sg11
I39
sg12
I0
sba(iMatrix
MatrixElement
p623
(dp624
g10
I7
sg11
I40
sg12
I0
sba(iMatrix
MatrixElement
p625
(dp626
g10
I7
sg11
I41
sg12
I0
sba(iMatrix
MatrixElement
p627
(dp628
g10
I7
sg11
I42
sg12
I0
sba(iMatrix
MatrixElement
p629
(dp630
g10
I7
sg11
I43
sg12
I0
sba(iMatrix
MatrixElement
p631
(dp632
g10
I7
sg11
I44
sg12
I0
sbaa(lp633
(iMatrix
MatrixElement
p634
(dp635
g10
I8
sg11
I1
sg12
I0
sba(iMatrix
MatrixElement
p636
(dp637
g10
I8
sg11
I2
sg12
I0
sba(iMatrix
MatrixElement
p638
(dp639
g10
I8
sg11
I3
sg12
I0
sba(iMatrix
MatrixElement
p640
(dp641
g10
I8
sg11
I4
sg12
I0
sba(iMatrix
MatrixElement
p642
(dp643
g10
I8
sg11
I5
sg12
I0
sba(iMatrix
MatrixElement
p644
(dp645
g10
I8
sg11
I6
sg12
F-1.3333249999999999
sba(iMatrix
MatrixElement
p646
(dp647
g10
I8
sg11
I7
sg12
I0
sba(iMatrix
MatrixElement
p648
(dp649
g10
I8
sg11
I8
sg12
F4.166659375585946
sba(iMatrix
MatrixElement
p650
(dp651
g10
I8
sg11
I9
sg12
I0
sba(iMatrix
MatrixElement
p652
(dp653
g10
I8
sg11
I10
sg12
F-1.3333249999999985
sba(iMatrix
MatrixElement
p654
(dp655
g10
I8
sg11
I11
sg12
I0
sba(iMatrix
MatrixElement
p656
(dp657
g10
I8
sg11
I12
sg12
I0
sba(iMatrix
MatrixElement
p658
(dp659
g10
I8
sg11
I13
sg12
I0
sba(iMatrix
MatrixElement
p660
(dp661
g10
I8
sg11
I14
sg12
I0
sba(iMatrix
MatrixElement
p662
(dp663
g10
I8
sg11
I15
sg12
I0
sba(iMatrix
MatrixElement
p664
(dp665
g10
I8
sg11
I16
sg12
I0
sba(iMatrix
MatrixElement
p666
(dp667
g10
I8
sg11
I17
sg12
I0
sba(iMatrix
MatrixElement
p668
(dp669
g10
I8
sg11
I18
sg12
I0
sba(iMatrix
MatrixElement
p670
(dp671
g10
I8
sg11
I19
sg12
I0
sba(iMatrix
MatrixElement
p672
(dp673
g10
I8
sg11
I20
sg12
I0
sba(iMatrix
MatrixElement
p674
(dp675
g10
I8
sg11
I21
sg12
I0
sba(iMatrix
MatrixElement
p676
(dp677
g10
I8
sg11
I22
sg12
I0
sba(iMatrix
MatrixElement
p678
(dp679
g10
I8
sg11
I23
sg12
I0
sba(iMatrix
MatrixElement
p680
(dp681
g10
I8
sg11
I24
sg12
I0
sba(iMatrix
MatrixElement
p682
(dp683
g10
I8
sg11
I25
sg12
I0
sba(iMatrix
MatrixElement
p684
(dp685
g10
I8
sg11
I26
sg12
F-0.7500187504687611
sba(iMatrix
MatrixElement
p686
(dp687
g10
I8
sg11
I27
sg12
I0
sba(iMatrix
MatrixElement
p688
(dp689
g10
I8
sg11
I28
sg12
I0
sba(iMatrix
MatrixElement
p690
(dp691
g10
I8
sg11
I29
sg12
I0
sba(iMatrix
MatrixElement
p692
(dp693
g10
I8
sg11
I30
sg12
I0
sba(iMatrix
MatrixElement
p694
(dp695
g10
I8
sg11
I31
sg12
I0
sba(iMatrix
MatrixElement
p696
(dp697
g10
I8
sg11
I32
sg12
I0
sba(iMatrix
MatrixElement
p698
(dp699
g10
I8
sg11
I33
sg12
I0
sba(iMatrix
MatrixElement
p700
(dp701
g10
I8
sg11
I34
sg12
I0
sba(iMatrix
MatrixElement
p702
(dp703
g10
I8
sg11
I35
sg12
I0
sba(iMatrix
MatrixElement
p704
(dp705
g10
I8
sg11
I36
sg12
I0
sba(iMatrix
MatrixElement
p706
(dp707
g10
I8
sg11
I37
sg12
I0
sba(iMatrix
MatrixElement
p708
(dp709
g10
I8
sg11
I38
sg12
I0
sba(iMatrix
MatrixElement
p710
(dp711
g10
I8
sg11
I39
sg12
I0
sba(iMatrix
MatrixElement
p712
(dp713
g10
I8
sg11
I40
sg12
I0
sba(iMatrix
MatrixElement
p714
(dp715
g10
I8
sg11
I41
sg12
I0
sba(iMatrix
MatrixElement
p716
(dp717
g10
I8
sg11
I42
sg12
I0
sba(iMatrix
MatrixElement
p718
(dp719
g10
I8
sg11
I43
sg12
I0
sba(iMatrix
MatrixElement
p720
(dp721
g10
I8
sg11
I44
sg12
I0
sbaa(lp722
(iMatrix
MatrixElement
p723
(dp724
g10
I9
sg11
I1
sg12
I0
sba(iMatrix
MatrixElement
p725
(dp726
g10
I9
sg11
I2
sg12
I0
sba(iMatrix
MatrixElement
p727
(dp728
g10
I9
sg11
I3
sg12
I0
sba(iMatrix
MatrixElement
p729
(dp730
g10
I9
sg11
I4
sg12
I0
sba(iMatrix
MatrixElement
p731
(dp732
g10
I9
sg11
I5
sg12
I0
sba(iMatrix
MatrixElement
p733
(dp734
g10
I9
sg11
I6
sg12
I0
sba(iMatrix
MatrixElement
p735
(dp736
g10
I9
sg11
I7
sg12
F-1.3333249999999999
sba(iMatrix
MatrixElement
p737
(dp738
g10
I9
sg11
I8
sg12
I0
sba(iMatrix
MatrixElement
p739
(dp740
g10
I9
sg11
I9
sg12
F4.166659375585955
sba(iMatrix
MatrixElement
p741
(dp742
g10
I9
sg11
I10
sg12
I0
sba(iMatrix
MatrixElement
p743
(dp744
g10
I9
sg11
I11
sg12
F-1.3333250000000056
sba(iMatrix
MatrixElement
p745
(dp746
g10
I9
sg11
I12
sg12
I0
sba(iMatrix
MatrixElement
p747
(dp748
g10
I9
sg11
I13
sg12
I0
sba(iMatrix
MatrixElement
p749
(dp750
g10
I9
sg11
I14
sg12
I0
sba(iMatrix
MatrixElement
p751
(dp752
g10
I9
sg11
I15
sg12
I0
sba(iMatrix
MatrixElement
p753
(dp754
g10
I9
sg11
I16
sg12
I0
sba(iMatrix
MatrixElement
p755
(dp756
g10
I9
sg11
I17
sg12
I0
sba(iMatrix
MatrixElement
p757
(dp758
g10
I9
sg11
I18
sg12
I0
sba(iMatrix
MatrixElement
p759
(dp760
g10
I9
sg11
I19
sg12
I0
sba(iMatrix
MatrixElement
p761
(dp762
g10
I9
sg11
I20
sg12
I0
sba(iMatrix
MatrixElement
p763
(dp764
g10
I9
sg11
I21
sg12
I0
sba(iMatrix
MatrixElement
p765
(dp766
g10
I9
sg11
I22
sg12
I0
sba(iMatrix
MatrixElement
p767
(dp768
g10
I9
sg11
I23
sg12
I0
sba(iMatrix
MatrixElement
p769
(dp770
g10
I9
sg11
I24
sg12
I0
sba(iMatrix
MatrixElement
p771
(dp772
g10
I9
sg11
I25
sg12
I0
sba(iMatrix
MatrixElement
p773
(dp774
g10
I9
sg11
I26
sg12
I0
sba(iMatrix
MatrixElement
p775
(dp776
g10
I9
sg11
I27
sg12
I0
sba(iMatrix
MatrixElement
p777
(dp778
g10
I9
sg11
I28
sg12
I0
sba(iMatrix
MatrixElement
p779
(dp780
g10
I9
sg11
I29
sg12
I0
sba(iMatrix
MatrixElement
p781
(dp782
g10
I9
sg11
I30
sg12
I0
sba(iMatrix
MatrixElement
p783
(dp784
g10
I9
sg11
I31
sg12
I0
sba(iMatrix
MatrixElement
p785
(dp786
g10
I9
sg11
I32
sg12
I0
sba(iMatrix
MatrixElement
p787
(dp788
g10
I9
sg11
I33
sg12
F-0.7500187504687638
sba(iMatrix
MatrixElement
p789
(dp790
g10
I9
sg11
I34
sg12
I0
sba(iMatrix
MatrixElement
p791
(dp792
g10
I9
sg11
I35
sg12
I0
sba(iMatrix
MatrixElement
p793
(dp794
g10
I9
sg11
I36
sg12
I0
sba(iMatrix
MatrixElement
p795
(dp796
g10
I9
sg11
I37
sg12
I0
sba(iMatrix
MatrixElement
p797
(dp798
g10
I9
sg11
I38
sg12
I0
sba(iMatrix
MatrixElement
p799
(dp800
g10
I9
sg11
I39
sg12
I0
sba(iMatrix
MatrixElement
p801
(dp802
g10
I9
sg11
I40
sg12
I0
sba(iMatrix
MatrixElement
p803
(dp804
g10
I9
sg11
I41
sg12
I0
sba(iMatrix
MatrixElement
p805
(dp806
g10
I9
sg11
I42
sg12
I0
sba(iMatrix
MatrixElement
p807
(dp808
g10
I9
sg11
I43
sg12
I0
sba(iMatrix
MatrixElement
p809
(dp810
g10
I9
sg11
I44
sg12
I0
sbaa(lp811
(iMatrix
MatrixElement
p812
(dp813
g10
I10
sg11
I1
sg12
I0
sba(iMatrix
MatrixElement
p814
(dp815
g10
I10
sg11
I2
sg12
I0
sba(iMatrix
MatrixElement
p816
(dp817
g10
I10
sg11
I3
sg12
I0
sba(iMatrix
MatrixElement
p818
(dp819
g10
I10
sg11
I4
sg12
I0
sba(iMatrix
MatrixElement
p820
(dp821
g10
I10
sg11
I5
sg12
I0
sba(iMatrix
MatrixElement
p822
(dp823
g10
I10
sg11
I6
sg12
I0
sba(iMatrix
MatrixElement
p824
(dp825
g10
I10
sg11
I7
sg12
I0
sba(iMatrix
MatrixElement
p826
(dp827
g10
I10
sg11
I8
sg12
F-1.3333249999999985
sba(iMatrix
MatrixElement
p828
(dp829
g10
I10
sg11
I9
sg12
I0
sba(iMatrix
MatrixElement
p830
(dp831
g10
I10
sg11
I10
sg12
F4.166659375585946
sba(iMatrix
MatrixElement
p832
(dp833
g10
I10
sg11
I11
sg12
I0
sba(iMatrix
MatrixElement
p834
(dp835
g10
I10
sg11
I12
sg12
F-1.3333249999999994
sba(iMatrix
MatrixElement
p836
(dp837
g10
I10
sg11
I13
sg12
I0
sba(iMatrix
MatrixElement
p838
(dp839
g10
I10
sg11
I14
sg12
I0
sba(iMatrix
MatrixElement
p840
(dp841
g10
I10
sg11
I15
sg12
I0
sba(iMatrix
MatrixElement
p842
(dp843
g10
I10
sg11
I16
sg12
I0
sba(iMatrix
MatrixElement
p844
(dp845
g10
I10
sg11
I17
sg12
I0
sba(iMatrix
MatrixElement
p846
(dp847
g10
I10
sg11
I18
sg12
I0
sba(iMatrix
MatrixElement
p848
(dp849
g10
I10
sg11
I19
sg12
I0
sba(iMatrix
MatrixElement
p850
(dp851
g10
I10
sg11
I20
sg12
I0
sba(iMatrix
MatrixElement
p852
(dp853
g10
I10
sg11
I21
sg12
I0
sba(iMatrix
MatrixElement
p854
(dp855
g10
I10
sg11
I22
sg12
I0
sba(iMatrix
MatrixElement
p856
(dp857
g10
I10
sg11
I23
sg12
I0
sba(iMatrix
MatrixElement
p858
(dp859
g10
I10
sg11
I24
sg12
I0
sba(iMatrix
MatrixElement
p860
(dp861
g10
I10
sg11
I25
sg12
I0
sba(iMatrix
MatrixElement
p862
(dp863
g10
I10
sg11
I26
sg12
I0
sba(iMatrix
MatrixElement
p864
(dp865
g10
I10
sg11
I27
sg12
F-0.7500187504687614
sba(iMatrix
MatrixElement
p866
(dp867
g10
I10
sg11
I28
sg12
I0
sba(iMatrix
MatrixElement
p868
(dp869
g10
I10
sg11
I29
sg12
I0
sba(iMatrix
MatrixElement
p870
(dp871
g10
I10
sg11
I30
sg12
I0
sba(iMatrix
MatrixElement
p872
(dp873
g10
I10
sg11
I31
sg12
I0
sba(iMatrix
MatrixElement
p874
(dp875
g10
I10
sg11
I32
sg12
I0
sba(iMatrix
MatrixElement
p876
(dp877
g10
I10
sg11
I33
sg12
I0
sba(iMatrix
MatrixElement
p878
(dp879
g10
I10
sg11
I34
sg12
I0
sba(iMatrix
MatrixElement
p880
(dp881
g10
I10
sg11
I35
sg12
I0
sba(iMatrix
MatrixElement
p882
(dp883
g10
I10
sg11
I36
sg12
I0
sba(iMatrix
MatrixElement
p884
(dp885
g10
I10
sg11
I37
sg12
I0
sba(iMatrix
MatrixElement
p886
(dp887
g10
I10
sg11
I38
sg12
I0
sba(iMatrix
MatrixElement
p888
(dp889
g10
I10
sg11
I39
sg12
I0
sba(iMatrix
MatrixElement
p890
(dp891
g10
I10
sg11
I40
sg12
I0
sba(iMatrix
MatrixElement
p892
(dp893
g10
I10
sg11
I41
sg12
I0
sba(iMatrix
MatrixElement
p894
(dp895
g10
I10
sg11
I42
sg12
I0
sba(iMatrix
MatrixElement
p896
(dp897
g10
I10
sg11
I43
sg12
I0
sba(iMatrix
MatrixElement
p898
(dp899
g10
I10
sg11
I44
sg12
I0
sbaa(lp900
(iMatrix
MatrixElement
p901
(dp902
g10
I11
sg11
I1
sg12
I0
sba(iMatrix
MatrixElement
p903
(dp904
g10
I11
sg11
I2
sg12
I0
sba(iMatrix
MatrixElement
p905
(dp906
g10
I11
sg11
I3
sg12
I0
sba(iMatrix
MatrixElement
p907
(dp908
g10
I11
sg11
I4
sg12
I0
sba(iMatrix
MatrixElement
p909
(dp910
g10
I11
sg11
I5
sg12
I0
sba(iMatrix
MatrixElement
p911
(dp912
g10
I11
sg11
I6
sg12
I0
sba(iMatrix
MatrixElement
p913
(dp914
g10
I11
sg11
I7
sg12
I0
sba(iMatrix
MatrixElement
p915
(dp916
g10
I11
sg11
I8
sg12
I0
sba(iMatrix
MatrixElement
p917
(dp918
g10
I11
sg11
I9
sg12
F-1.3333250000000056
sba(iMatrix
MatrixElement
p919
(dp920
g10
I11
sg11
I10
sg12
I0
sba(iMatrix
MatrixElement
p921
(dp922
g10
I11
sg11
I11
sg12
F4.166659375585954
sba(iMatrix
MatrixElement
p923
(dp924
g10
I11
sg11
I12
sg12
I0
sba(iMatrix
MatrixElement
p925
(dp926
g10
I11
sg11
I13
sg12
F-1.333325
sba(iMatrix
MatrixElement
p927
(dp928
g10
I11
sg11
I14
sg12
I0
sba(iMatrix
MatrixElement
p929
(dp930
g10
I11
sg11
I15
sg12
I0
sba(iMatrix
MatrixElement
p931
(dp932
g10
I11
sg11
I16
sg12
I0
sba(iMatrix
MatrixElement
p933
(dp934
g10
I11
sg11
I17
sg12
I0
sba(iMatrix
MatrixElement
p935
(dp936
g10
I11
sg11
I18
sg12
I0
sba(iMatrix
MatrixElement
p937
(dp938
g10
I11
sg11
I19
sg12
I0
sba(iMatrix
MatrixElement
p939
(dp940
g10
I11
sg11
I20
sg12
I0
sba(iMatrix
MatrixElement
p941
(dp942
g10
I11
sg11
I21
sg12
I0
sba(iMatrix
MatrixElement
p943
(dp944
g10
I11
sg11
I22
sg12
I0
sba(iMatrix
MatrixElement
p945
(dp946
g10
I11
sg11
I23
sg12
I0
sba(iMatrix
MatrixElement
p947
(dp948
g10
I11
sg11
I24
sg12
I0
sba(iMatrix
MatrixElement
p949
(dp950
g10
I11
sg11
I25
sg12
I0
sba(iMatrix
MatrixElement
p951
(dp952
g10
I11
sg11
I26
sg12
I0
sba(iMatrix
MatrixElement
p953
(dp954
g10
I11
sg11
I27
sg12
I0
sba(iMatrix
MatrixElement
p955
(dp956
g10
I11
sg11
I28
sg12
I0
sba(iMatrix
MatrixElement
p957
(dp958
g10
I11
sg11
I29
sg12
I0
sba(iMatrix
MatrixElement
p959
(dp960
g10
I11
sg11
I30
sg12
I0
sba(iMatrix
MatrixElement
p961
(dp962
g10
I11
sg11
I31
sg12
I0
sba(iMatrix
MatrixElement
p963
(dp964
g10
I11
sg11
I32
sg12
I0
sba(iMatrix
MatrixElement
p965
(dp966
g10
I11
sg11
I33
sg12
I0
sba(iMatrix
MatrixElement
p967
(dp968
g10
I11
sg11
I34
sg12
F-0.7500187504687601
sba(iMatrix
MatrixElement
p969
(dp970
g10
I11
sg11
I35
sg12
I0
sba(iMatrix
MatrixElement
p971
(dp972
g10
I11
sg11
I36
sg12
I0
sba(iMatrix
MatrixElement
p973
(dp974
g10
I11
sg11
I37
sg12
I0
sba(iMatrix
MatrixElement
p975
(dp976
g10
I11
sg11
I38
sg12
I0
sba(iMatrix
MatrixElement
p977
(dp978
g10
I11
sg11
I39
sg12
I0
sba(iMatrix
MatrixElement
p979
(dp980
g10
I11
sg11
I40
sg12
I0
sba(iMatrix
MatrixElement
p981
(dp982
g10
I11
sg11
I41
sg12
I0
sba(iMatrix
MatrixElement
p983
(dp984
g10
I11
sg11
I42
sg12
I0
sba(iMatrix
MatrixElement
p985
(dp986
g10
I11
sg11
I43
sg12
I0
sba(iMatrix
MatrixElement
p987
(dp988
g10
I11
sg11
I44
sg12
I0
sbaa(lp989
(iMatrix
MatrixElement
p990
(dp991
g10
I12
sg11
I1
sg12
I0
sba(iMatrix
MatrixElement
p992
(dp993
g10
I12
sg11
I2
sg12
I0
sba(iMatrix
MatrixElement
p994
(dp995
g10
I12
sg11
I3
sg12
I0
sba(iMatrix
MatrixElement
p996
(dp997
g10
I12
sg11
I4
sg12
I0
sba(iMatrix
MatrixElement
p998
(dp999
g10
I12
sg11
I5
sg12
I0
sba(iMatrix
MatrixElement
p1000
(dp1001
g10
I12
sg11
I6
sg12
I0
sba(iMatrix
MatrixElement
p1002
(dp1003
g10
I12
sg11
I7
sg12
I0
sba(iMatrix
MatrixElement
p1004
(dp1005
g10
I12
sg11
I8
sg12
I0
sba(iMatrix
MatrixElement
p1006
(dp1007
g10
I12
sg11
I9
sg12
I0
sba(iMatrix
MatrixElement
p1008
(dp1009
g10
I12
sg11
I10
sg12
F-1.3333249999999994
sba(iMatrix
MatrixElement
p1010
(dp1011
g10
I12
sg11
I11
sg12
I0
sba(iMatrix
MatrixElement
p1012
(dp1013
g10
I12
sg11
I12
sg12
F4.166659375585948
sba(iMatrix
MatrixElement
p1014
(dp1015
g10
I12
sg11
I13
sg12
I0
sba(iMatrix
MatrixElement
p1016
(dp1017
g10
I12
sg11
I14
sg12
F-1.3333250000000003
sba(iMatrix
MatrixElement
p1018
(dp1019
g10
I12
sg11
I15
sg12
I0
sba(iMatrix
MatrixElement
p1020
(dp1021
g10
I12
sg11
I16
sg12
I0
sba(iMatrix
MatrixElement
p1022
(dp1023
g10
I12
sg11
I17
sg12
I0
sba(iMatrix
MatrixElement
p1024
(dp1025
g10
I12
sg11
I18
sg12
I0
sba(iMatrix
MatrixElement
p1026
(dp1027
g10
I12
sg11
I19
sg12
I0
sba(iMatrix
MatrixElement
p1028
(dp1029
g10
I12
sg11
I20
sg12
I0
sba(iMatrix
MatrixElement
p1030
(dp1031
g10
I12
sg11
I21
sg12
I0
sba(iMatrix
MatrixElement
p1032
(dp1033
g10
I12
sg11
I22
sg12
I0
sba(iMatrix
MatrixElement
p1034
(dp1035
g10
I12
sg11
I23
sg12
I0
sba(iMatrix
MatrixElement
p1036
(dp1037
g10
I12
sg11
I24
sg12
I0
sba(iMatrix
MatrixElement
p1038
(dp1039
g10
I12
sg11
I25
sg12
I0
sba(iMatrix
MatrixElement
p1040
(dp1041
g10
I12
sg11
I26
sg12
I0
sba(iMatrix
MatrixElement
p1042
(dp1043
g10
I12
sg11
I27
sg12
I0
sba(iMatrix
MatrixElement
p1044
(dp1045
g10
I12
sg11
I28
sg12
F-0.7500187504687621
sba(iMatrix
MatrixElement
p1046
(dp1047
g10
I12
sg11
I29
sg12
I0
sba(iMatrix
MatrixElement
p1048
(dp1049
g10
I12
sg11
I30
sg12
I0
sba(iMatrix
MatrixElement
p1050
(dp1051
g10
I12
sg11
I31
sg12
I0
sba(iMatrix
MatrixElement
p1052
(dp1053
g10
I12
sg11
I32
sg12
I0
sba(iMatrix
MatrixElement
p1054
(dp1055
g10
I12
sg11
I33
sg12
I0
sba(iMatrix
MatrixElement
p1056
(dp1057
g10
I12
sg11
I34
sg12
I0
sba(iMatrix
MatrixElement
p1058
(dp1059
g10
I12
sg11
I35
sg12
I0
sba(iMatrix
MatrixElement
p1060
(dp1061
g10
I12
sg11
I36
sg12
I0
sba(iMatrix
MatrixElement
p1062
(dp1063
g10
I12
sg11
I37
sg12
I0
sba(iMatrix
MatrixElement
p1064
(dp1065
g10
I12
sg11
I38
sg12
I0
sba(iMatrix
MatrixElement
p1066
(dp1067
g10
I12
sg11
I39
sg12
I0
sba(iMatrix
MatrixElement
p1068
(dp1069
g10
I12
sg11
I40
sg12
I0
sba(iMatrix
MatrixElement
p1070
(dp1071
g10
I12
sg11
I41
sg12
I0
sba(iMatrix
MatrixElement
p1072
(dp1073
g10
I12
sg11
I42
sg12
I0
sba(iMatrix
MatrixElement
p1074
(dp1075
g10
I12
sg11
I43
sg12
I0
sba(iMatrix
MatrixElement
p1076
(dp1077
g10
I12
sg11
I44
sg12
I0
sbaa(lp1078
(iMatrix
MatrixElement
p1079
(dp1080
g10
I13
sg11
I1
sg12
I0
sba(iMatrix
MatrixElement
p1081
(dp1082
g10
I13
sg11
I2
sg12
I0
sba(iMatrix
MatrixElement
p1083
(dp1084
g10
I13
sg11
I3
sg12
I0
sba(iMatrix
MatrixElement
p1085
(dp1086
g10
I13
sg11
I4
sg12
I0
sba(iMatrix
MatrixElement
p1087
(dp1088
g10
I13
sg11
I5
sg12
I0
sba(iMatrix
MatrixElement
p1089
(dp1090
g10
I13
sg11
I6
sg12
I0
sba(iMatrix
MatrixElement
p1091
(dp1092
g10
I13
sg11
I7
sg12
I0
sba(iMatrix
MatrixElement
p1093
(dp1094
g10
I13
sg11
I8
sg12
I0
sba(iMatrix
MatrixElement
p1095
(dp1096
g10
I13
sg11
I9
sg12
I0
sba(iMatrix
MatrixElement
p1097
(dp1098
g10
I13
sg11
I10
sg12
I0
sba(iMatrix
MatrixElement
p1099
(dp1100
g10
I13
sg11
I11
sg12
F-1.333325
sba(iMatrix
MatrixElement
p1101
(dp1102
g10
I13
sg11
I12
sg12
I0
sba(iMatrix
MatrixElement
p1103
(dp1104
g10
I13
sg11
I13
sg12
F4.166659375585948
sba(iMatrix
MatrixElement
p1105
(dp1106
g10
I13
sg11
I14
sg12
I0
sba(iMatrix
MatrixElement
p1107
(dp1108
g10
I13
sg11
I15
sg12
F-1.3333250000000012
sba(iMatrix
MatrixElement
p1109
(dp1110
g10
I13
sg11
I16
sg12
I0
sba(iMatrix
MatrixElement
p1111
(dp1112
g10
I13
sg11
I17
sg12
I0
sba(iMatrix
MatrixElement
p1113
(dp1114
g10
I13
sg11
I18
sg12
I0
sba(iMatrix
MatrixElement
p1115
(dp1116
g10
I13
sg11
I19
sg12
I0
sba(iMatrix
MatrixElement
p1117
(dp1118
g10
I13
sg11
I20
sg12
I0
sba(iMatrix
MatrixElement
p1119
(dp1120
g10
I13
sg11
I21
sg12
I0
sba(iMatrix
MatrixElement
p1121
(dp1122
g10
I13
sg11
I22
sg12
I0
sba(iMatrix
MatrixElement
p1123
(dp1124
g10
I13
sg11
I23
sg12
I0
sba(iMatrix
MatrixElement
p1125
(dp1126
g10
I13
sg11
I24
sg12
I0
sba(iMatrix
MatrixElement
p1127
(dp1128
g10
I13
sg11
I25
sg12
I0
sba(iMatrix
MatrixElement
p1129
(dp1130
g10
I13
sg11
I26
sg12
I0
sba(iMatrix
MatrixElement
p1131
(dp1132
g10
I13
sg11
I27
sg12
I0
sba(iMatrix
MatrixElement
p1133
(dp1134
g10
I13
sg11
I28
sg12
I0
sba(iMatrix
MatrixElement
p1135
(dp1136
g10
I13
sg11
I29
sg12
I0
sba(iMatrix
MatrixElement
p1137
(dp1138
g10
I13
sg11
I30
sg12
I0
sba(iMatrix
MatrixElement
p1139
(dp1140
g10
I13
sg11
I31
sg12
I0
sba(iMatrix
MatrixElement
p1141
(dp1142
g10
I13
sg11
I32
sg12
I0
sba(iMatrix
MatrixElement
p1143
(dp1144
g10
I13
sg11
I33
sg12
I0
sba(iMatrix
MatrixElement
p1145
(dp1146
g10
I13
sg11
I34
sg12
I0
sba(iMatrix
MatrixElement
p1147
(dp1148
g10
I13
sg11
I35
sg12
I0
sba(iMatrix
MatrixElement
p1149
(dp1150
g10
I13
sg11
I36
sg12
I0
sba(iMatrix
MatrixElement
p1151
(dp1152
g10
I13
sg11
I37
sg12
F-0.7500187504687612
sba(iMatrix
MatrixElement
p1153
(dp1154
g10
I13
sg11
I38
sg12
I0
sba(iMatrix
MatrixElement
p1155
(dp1156
g10
I13
sg11
I39
sg12
I0
sba(iMatrix
MatrixElement
p1157
(dp1158
g10
I13
sg11
I40
sg12
I0
sba(iMatrix
MatrixElement
p1159
(dp1160
g10
I13
sg11
I41
sg12
I0
sba(iMatrix
MatrixElement
p1161
(dp1162
g10
I13
sg11
I42
sg12
I0
sba(iMatrix
MatrixElement
p1163
(dp1164
g10
I13
sg11
I43
sg12
I0
sba(iMatrix
MatrixElement
p1165
(dp1166
g10
I13
sg11
I44
sg12
I0
sbaa(lp1167
(iMatrix
MatrixElement
p1168
(dp1169
g10
I14
sg11
I1
sg12
I0
sba(iMatrix
MatrixElement
p1170
(dp1171
g10
I14
sg11
I2
sg12
I0
sba(iMatrix
MatrixElement
p1172
(dp1173
g10
I14
sg11
I3
sg12
I0
sba(iMatrix
MatrixElement
p1174
(dp1175
g10
I14
sg11
I4
sg12
I0
sba(iMatrix
MatrixElement
p1176
(dp1177
g10
I14
sg11
I5
sg12
I0
sba(iMatrix
MatrixElement
p1178
(dp1179
g10
I14
sg11
I6
sg12
I0
sba(iMatrix
MatrixElement
p1180
(dp1181
g10
I14
sg11
I7
sg12
I0
sba(iMatrix
MatrixElement
p1182
(dp1183
g10
I14
sg11
I8
sg12
I0
sba(iMatrix
MatrixElement
p1184
(dp1185
g10
I14
sg11
I9
sg12
I0
sba(iMatrix
MatrixElement
p1186
(dp1187
g10
I14
sg11
I10
sg12
I0
sba(iMatrix
MatrixElement
p1188
(dp1189
g10
I14
sg11
I11
sg12
I0
sba(iMatrix
MatrixElement
p1190
(dp1191
g10
I14
sg11
I12
sg12
F-1.3333250000000003
sba(iMatrix
MatrixElement
p1192
(dp1193
g10
I14
sg11
I13
sg12
I0
sba(iMatrix
MatrixElement
p1194
(dp1195
g10
I14
sg11
I14
sg12
F4.1666593755859465
sba(iMatrix
MatrixElement
p1196
(dp1197
g10
I14
sg11
I15
sg12
I0
sba(iMatrix
MatrixElement
p1198
(dp1199
g10
I14
sg11
I16
sg12
F-1.3333249999999985
sba(iMatrix
MatrixElement
p1200
(dp1201
g10
I14
sg11
I17
sg12
I0
sba(iMatrix
MatrixElement
p1202
(dp1203
g10
I14
sg11
I18
sg12
I0
sba(iMatrix
MatrixElement
p1204
(dp1205
g10
I14
sg11
I19
sg12
I0
sba(iMatrix
MatrixElement
p1206
(dp1207
g10
I14
sg11
I20
sg12
I0
sba(iMatrix
MatrixElement
p1208
(dp1209
g10
I14
sg11
I21
sg12
I0
sba(iMatrix
MatrixElement
p1210
(dp1211
g10
I14
sg11
I22
sg12
I0
sba(iMatrix
MatrixElement
p1212
(dp1213
g10
I14
sg11
I23
sg12
I0
sba(iMatrix
MatrixElement
p1214
(dp1215
g10
I14
sg11
I24
sg12
I0
sba(iMatrix
MatrixElement
p1216
(dp1217
g10
I14
sg11
I25
sg12
I0
sba(iMatrix
MatrixElement
p1218
(dp1219
g10
I14
sg11
I26
sg12
I0
sba(iMatrix
MatrixElement
p1220
(dp1221
g10
I14
sg11
I27
sg12
I0
sba(iMatrix
MatrixElement
p1222
(dp1223
g10
I14
sg11
I28
sg12
I0
sba(iMatrix
MatrixElement
p1224
(dp1225
g10
I14
sg11
I29
sg12
F-0.7500187504687617
sba(iMatrix
MatrixElement
p1226
(dp1227
g10
I14
sg11
I30
sg12
I0
sba(iMatrix
MatrixElement
p1228
(dp1229
g10
I14
sg11
I31
sg12
I0
sba(iMatrix
MatrixElement
p1230
(dp1231
g10
I14
sg11
I32
sg12
I0
sba(iMatrix
MatrixElement
p1232
(dp1233
g10
I14
sg11
I33
sg12
I0
sba(iMatrix
MatrixElement
p1234
(dp1235
g10
I14
sg11
I34
sg12
I0
sba(iMatrix
MatrixElement
p1236
(dp1237
g10
I14
sg11
I35
sg12
I0
sba(iMatrix
MatrixElement
p1238
(dp1239
g10
I14
sg11
I36
sg12
I0
sba(iMatrix
MatrixElement
p1240
(dp1241
g10
I14
sg11
I37
sg12
I0
sba(iMatrix
MatrixElement
p1242
(dp1243
g10
I14
sg11
I38
sg12
I0
sba(iMatrix
MatrixElement
p1244
(dp1245
g10
I14
sg11
I39
sg12
I0
sba(iMatrix
MatrixElement
p1246
(dp1247
g10
I14
sg11
I40
sg12
I0
sba(iMatrix
MatrixElement
p1248
(dp1249
g10
I14
sg11
I41
sg12
I0
sba(iMatrix
MatrixElement
p1250
(dp1251
g10
I14
sg11
I42
sg12
I0
sba(iMatrix
MatrixElement
p1252
(dp1253
g10
I14
sg11
I43
sg12
I0
sba(iMatrix
MatrixElement
p1254
(dp1255
g10
I14
sg11
I44
sg12
I0
sbaa(lp1256
(iMatrix
MatrixElement
p1257
(dp1258
g10
I15
sg11
I1
sg12
I0
sba(iMatrix
MatrixElement
p1259
(dp1260
g10
I15
sg11
I2
sg12
I0
sba(iMatrix
MatrixElement
p1261
(dp1262
g10
I15
sg11
I3
sg12
I0
sba(iMatrix
MatrixElement
p1263
(dp1264
g10
I15
sg11
I4
sg12
I0
sba(iMatrix
MatrixElement
p1265
(dp1266
g10
I15
sg11
I5
sg12
I0
sba(iMatrix
MatrixElement
p1267
(dp1268
g10
I15
sg11
I6
sg12
I0
sba(iMatrix
MatrixElement
p1269
(dp1270
g10
I15
sg11
I7
sg12
I0
sba(iMatrix
MatrixElement
p1271
(dp1272
g10
I15
sg11
I8
sg12
I0
sba(iMatrix
MatrixElement
p1273
(dp1274
g10
I15
sg11
I9
sg12
I0
sba(iMatrix
MatrixElement
p1275
(dp1276
g10
I15
sg11
I10
sg12
I0
sba(iMatrix
MatrixElement
p1277
(dp1278
g10
I15
sg11
I11
sg12
I0
sba(iMatrix
MatrixElement
p1279
(dp1280
g10
I15
sg11
I12
sg12
I0
sba(iMatrix
MatrixElement
p1281
(dp1282
g10
I15
sg11
I13
sg12
F-1.3333250000000012
sba(iMatrix
MatrixElement
p1283
(dp1284
g10
I15
sg11
I14
sg12
I0
sba(iMatrix
MatrixElement
p1285
(dp1286
g10
I15
sg11
I15
sg12
F4.16665937558595
sba(iMatrix
MatrixElement
p1287
(dp1288
g10
I15
sg11
I16
sg12
I0
sba(iMatrix
MatrixElement
p1289
(dp1290
g10
I15
sg11
I17
sg12
I0
sba(iMatrix
MatrixElement
p1291
(dp1292
g10
I15
sg11
I18
sg12
I0
sba(iMatrix
MatrixElement
p1293
(dp1294
g10
I15
sg11
I19
sg12
I0
sba(iMatrix
MatrixElement
p1295
(dp1296
g10
I15
sg11
I20
sg12
I0
sba(iMatrix
MatrixElement
p1297
(dp1298
g10
I15
sg11
I21
sg12
I0
sba(iMatrix
MatrixElement
p1299
(dp1300
g10
I15
sg11
I22
sg12
I0
sba(iMatrix
MatrixElement
p1301
(dp1302
g10
I15
sg11
I23
sg12
I0
sba(iMatrix
MatrixElement
p1303
(dp1304
g10
I15
sg11
I24
sg12
I0
sba(iMatrix
MatrixElement
p1305
(dp1306
g10
I15
sg11
I25
sg12
I0
sba(iMatrix
MatrixElement
p1307
(dp1308
g10
I15
sg11
I26
sg12
I0
sba(iMatrix
MatrixElement
p1309
(dp1310
g10
I15
sg11
I27
sg12
I0
sba(iMatrix
MatrixElement
p1311
(dp1312
g10
I15
sg11
I28
sg12
I0
sba(iMatrix
MatrixElement
p1313
(dp1314
g10
I15
sg11
I29
sg12
I0
sba(iMatrix
MatrixElement
p1315
(dp1316
g10
I15
sg11
I30
sg12
I0
sba(iMatrix
MatrixElement
p1317
(dp1318
g10
I15
sg11
I31
sg12
I0
sba(iMatrix
MatrixElement
p1319
(dp1320
g10
I15
sg11
I32
sg12
I0
sba(iMatrix
MatrixElement
p1321
(dp1322
g10
I15
sg11
I33
sg12
I0
sba(iMatrix
MatrixElement
p1323
(dp1324
g10
I15
sg11
I34
sg12
I0
sba(iMatrix
MatrixElement
p1325
(dp1326
g10
I15
sg11
I35
sg12
I0
sba(iMatrix
MatrixElement
p1327
(dp1328
g10
I15
sg11
I36
sg12
I0
sba(iMatrix
MatrixElement
p1329
(dp1330
g10
I15
sg11
I37
sg12
I0
sba(iMatrix
MatrixElement
p1331
(dp1332
g10
I15
sg11
I38
sg12
F-0.7500187504687612
sba(iMatrix
MatrixElement
p1333
(dp1334
g10
I15
sg11
I39
sg12
I0
sba(iMatrix
MatrixElement
p1335
(dp1336
g10
I15
sg11
I40
sg12
I0
sba(iMatrix
MatrixElement
p1337
(dp1338
g10
I15
sg11
I41
sg12
I0
sba(iMatrix
MatrixElement
p1339
(dp1340
g10
I15
sg11
I42
sg12
I0
sba(iMatrix
MatrixElement
p1341
(dp1342
g10
I15
sg11
I43
sg12
I0
sba(iMatrix
MatrixElement
p1343
(dp1344
g10
I15
sg11
I44
sg12
I0
sbaa(lp1345
(iMatrix
MatrixElement
p1346
(dp1347
g10
I16
sg11
I1
sg12
I0
sba(iMatrix
MatrixElement
p1348
(dp1349
g10
I16
sg11
I2
sg12
I0
sba(iMatrix
MatrixElement
p1350
(dp1351
g10
I16
sg11
I3
sg12
I0
sba(iMatrix
MatrixElement
p1352
(dp1353
g10
I16
sg11
I4
sg12
I0
sba(iMatrix
MatrixElement
p1354
(dp1355
g10
I16
sg11
I5
sg12
I0
sba(iMatrix
MatrixElement
p1356
(dp1357
g10
I16
sg11
I6
sg12
I0
sba(iMatrix
MatrixElement
p1358
(dp1359
g10
I16
sg11
I7
sg12
I0
sba(iMatrix
MatrixElement
p1360
(dp1361
g10
I16
sg11
I8
sg12
I0
sba(iMatrix
MatrixElement
p1362
(dp1363
g10
I16
sg11
I9
sg12
I0
sba(iMatrix
MatrixElement
p1364
(dp1365
g10
I16
sg11
I10
sg12
I0
sba(iMatrix
MatrixElement
p1366
(dp1367
g10
I16
sg11
I11
sg12
I0
sba(iMatrix
MatrixElement
p1368
(dp1369
g10
I16
sg11
I12
sg12
I0
sba(iMatrix
MatrixElement
p1370
(dp1371
g10
I16
sg11
I13
sg12
I0
sba(iMatrix
MatrixElement
p1372
(dp1373
g10
I16
sg11
I14
sg12
F-1.3333249999999985
sba(iMatrix
MatrixElement
p1374
(dp1375
g10
I16
sg11
I15
sg12
I0
sba(iMatrix
MatrixElement
p1376
(dp1377
g10
I16
sg11
I16
sg12
F4.166659375585942
sba(iMatrix
MatrixElement
p1378
(dp1379
g10
I16
sg11
I17
sg12
I0
sba(iMatrix
MatrixElement
p1380
(dp1381
g10
I16
sg11
I18
sg12
F-1.3333249999999972
sba(iMatrix
MatrixElement
p1382
(dp1383
g10
I16
sg11
I19
sg12
I0
sba(iMatrix
MatrixElement
p1384
(dp1385
g10
I16
sg11
I20
sg12
I0
sba(iMatrix
MatrixElement
p1386
(dp1387
g10
I16
sg11
I21
sg12
I0
sba(iMatrix
MatrixElement
p1388
(dp1389
g10
I16
sg11
I22
sg12
I0
sba(iMatrix
MatrixElement
p1390
(dp1391
g10
I16
sg11
I23
sg12
I0
sba(iMatrix
MatrixElement
p1392
(dp1393
g10
I16
sg11
I24
sg12
I0
sba(iMatrix
MatrixElement
p1394
(dp1395
g10
I16
sg11
I25
sg12
I0
sba(iMatrix
MatrixElement
p1396
(dp1397
g10
I16
sg11
I26
sg12
I0
sba(iMatrix
MatrixElement
p1398
(dp1399
g10
I16
sg11
I27
sg12
I0
sba(iMatrix
MatrixElement
p1400
(dp1401
g10
I16
sg11
I28
sg12
I0
sba(iMatrix
MatrixElement
p1402
(dp1403
g10
I16
sg11
I29
sg12
I0
sba(iMatrix
MatrixElement
p1404
(dp1405
g10
I16
sg11
I30
sg12
F-0.7500187504687603
sba(iMatrix
MatrixElement
p1406
(dp1407
g10
I16
sg11
I31
sg12
I0
sba(iMatrix
MatrixElement
p1408
(dp1409
g10
I16
sg11
I32
sg12
I0
sba(iMatrix
MatrixElement
p1410
(dp1411
g10
I16
sg11
I33
sg12
I0
sba(iMatrix
MatrixElement
p1412
(dp1413
g10
I16
sg11
I34
sg12
I0
sba(iMatrix
MatrixElement
p1414
(dp1415
g10
I16
sg11
I35
sg12
I0
sba(iMatrix
MatrixElement
p1416
(dp1417
g10
I16
sg11
I36
sg12
I0
sba(iMatrix
MatrixElement
p1418
(dp1419
g10
I16
sg11
I37
sg12
I0
sba(iMatrix
MatrixElement
p1420
(dp1421
g10
I16
sg11
I38
sg12
I0
sba(iMatrix
MatrixElement
p1422
(dp1423
g10
I16
sg11
I39
sg12
I0
sba(iMatrix
MatrixElement
p1424
(dp1425
g10
I16
sg11
I40
sg12
I0
sba(iMatrix
MatrixElement
p1426
(dp1427
g10
I16
sg11
I41
sg12
I0
sba(iMatrix
MatrixElement
p1428
(dp1429
g10
I16
sg11
I42
sg12
I0
sba(iMatrix
MatrixElement
p1430
(dp1431
g10
I16
sg11
I43
sg12
I0
sba(iMatrix
MatrixElement
p1432
(dp1433
g10
I16
sg11
I44
sg12
I0
sbaa(lp1434
(iMatrix
MatrixElement
p1435
(dp1436
g10
I17
sg11
I1
sg12
F-0.7500187504687628
sba(iMatrix
MatrixElement
p1437
(dp1438
g10
I17
sg11
I2
sg12
I0
sba(iMatrix
MatrixElement
p1439
(dp1440
g10
I17
sg11
I3
sg12
I0
sba(iMatrix
MatrixElement
p1441
(dp1442
g10
I17
sg11
I4
sg12
I0
sba(iMatrix
MatrixElement
p1443
(dp1444
g10
I17
sg11
I5
sg12
I0
sba(iMatrix
MatrixElement
p1445
(dp1446
g10
I17
sg11
I6
sg12
I0
sba(iMatrix
MatrixElement
p1447
(dp1448
g10
I17
sg11
I7
sg12
I0
sba(iMatrix
MatrixElement
p1449
(dp1450
g10
I17
sg11
I8
sg12
I0
sba(iMatrix
MatrixElement
p1451
(dp1452
g10
I17
sg11
I9
sg12
I0
sba(iMatrix
MatrixElement
p1453
(dp1454
g10
I17
sg11
I10
sg12
I0
sba(iMatrix
MatrixElement
p1455
(dp1456
g10
I17
sg11
I11
sg12
I0
sba(iMatrix
MatrixElement
p1457
(dp1458
g10
I17
sg11
I12
sg12
I0
sba(iMatrix
MatrixElement
p1459
(dp1460
g10
I17
sg11
I13
sg12
I0
sba(iMatrix
MatrixElement
p1461
(dp1462
g10
I17
sg11
I14
sg12
I0
sba(iMatrix
MatrixElement
p1463
(dp1464
g10
I17
sg11
I15
sg12
I0
sba(iMatrix
MatrixElement
p1465
(dp1466
g10
I17
sg11
I16
sg12
I0
sba(iMatrix
MatrixElement
p1467
(dp1468
g10
I17
sg11
I17
sg12
F4.166659375585957
sba(iMatrix
MatrixElement
p1469
(dp1470
g10
I17
sg11
I18
sg12
I0
sba(iMatrix
MatrixElement
p1471
(dp1472
g10
I17
sg11
I19
sg12
F-1.3333250000000096
sba(iMatrix
MatrixElement
p1473
(dp1474
g10
I17
sg11
I20
sg12
I0
sba(iMatrix
MatrixElement
p1475
(dp1476
g10
I17
sg11
I21
sg12
I0
sba(iMatrix
MatrixElement
p1477
(dp1478
g10
I17
sg11
I22
sg12
I0
sba(iMatrix
MatrixElement
p1479
(dp1480
g10
I17
sg11
I23
sg12
I0
sba(iMatrix
MatrixElement
p1481
(dp1482
g10
I17
sg11
I24
sg12
I0
sba(iMatrix
MatrixElement
p1483
(dp1484
g10
I17
sg11
I25
sg12
I0
sba(iMatrix
MatrixElement
p1485
(dp1486
g10
I17
sg11
I26
sg12
I0
sba(iMatrix
MatrixElement
p1487
(dp1488
g10
I17
sg11
I27
sg12
I0
sba(iMatrix
MatrixElement
p1489
(dp1490
g10
I17
sg11
I28
sg12
I0
sba(iMatrix
MatrixElement
p1491
(dp1492
g10
I17
sg11
I29
sg12
I0
sba(iMatrix
MatrixElement
p1493
(dp1494
g10
I17
sg11
I30
sg12
I0
sba(iMatrix
MatrixElement
p1495
(dp1496
g10
I17
sg11
I31
sg12
I0
sba(iMatrix
MatrixElement
p1497
(dp1498
g10
I17
sg11
I32
sg12
I0
sba(iMatrix
MatrixElement
p1499
(dp1500
g10
I17
sg11
I33
sg12
I0
sba(iMatrix
MatrixElement
p1501
(dp1502
g10
I17
sg11
I34
sg12
I0
sba(iMatrix
MatrixElement
p1503
(dp1504
g10
I17
sg11
I35
sg12
I0
sba(iMatrix
MatrixElement
p1505
(dp1506
g10
I17
sg11
I36
sg12
I0
sba(iMatrix
MatrixElement
p1507
(dp1508
g10
I17
sg11
I37
sg12
I0
sba(iMatrix
MatrixElement
p1509
(dp1510
g10
I17
sg11
I38
sg12
I0
sba(iMatrix
MatrixElement
p1511
(dp1512
g10
I17
sg11
I39
sg12
F-0.7499906251171897
sba(iMatrix
MatrixElement
p1513
(dp1514
g10
I17
sg11
I40
sg12
I0
sba(iMatrix
MatrixElement
p1515
(dp1516
g10
I17
sg11
I41
sg12
I0
sba(iMatrix
MatrixElement
p1517
(dp1518
g10
I17
sg11
I42
sg12
I0
sba(iMatrix
MatrixElement
p1519
(dp1520
g10
I17
sg11
I43
sg12
I0
sba(iMatrix
MatrixElement
p1521
(dp1522
g10
I17
sg11
I44
sg12
I0
sbaa(lp1523
(iMatrix
MatrixElement
p1524
(dp1525
g10
I18
sg11
I1
sg12
I0
sba(iMatrix
MatrixElement
p1526
(dp1527
g10
I18
sg11
I2
sg12
I0
sba(iMatrix
MatrixElement
p1528
(dp1529
g10
I18
sg11
I3
sg12
I0
sba(iMatrix
MatrixElement
p1530
(dp1531
g10
I18
sg11
I4
sg12
I0
sba(iMatrix
MatrixElement
p1532
(dp1533
g10
I18
sg11
I5
sg12
I0
sba(iMatrix
MatrixElement
p1534
(dp1535
g10
I18
sg11
I6
sg12
I0
sba(iMatrix
MatrixElement
p1536
(dp1537
g10
I18
sg11
I7
sg12
I0
sba(iMatrix
MatrixElement
p1538
(dp1539
g10
I18
sg11
I8
sg12
I0
sba(iMatrix
MatrixElement
p1540
(dp1541
g10
I18
sg11
I9
sg12
I0
sba(iMatrix
MatrixElement
p1542
(dp1543
g10
I18
sg11
I10
sg12
I0
sba(iMatrix
MatrixElement
p1544
(dp1545
g10
I18
sg11
I11
sg12
I0
sba(iMatrix
MatrixElement
p1546
(dp1547
g10
I18
sg11
I12
sg12
I0
sba(iMatrix
MatrixElement
p1548
(dp1549
g10
I18
sg11
I13
sg12
I0
sba(iMatrix
MatrixElement
p1550
(dp1551
g10
I18
sg11
I14
sg12
I0
sba(iMatrix
MatrixElement
p1552
(dp1553
g10
I18
sg11
I15
sg12
I0
sba(iMatrix
MatrixElement
p1554
(dp1555
g10
I18
sg11
I16
sg12
F-1.3333249999999972
sba(iMatrix
MatrixElement
p1556
(dp1557
g10
I18
sg11
I17
sg12
I0
sba(iMatrix
MatrixElement
p1558
(dp1559
g10
I18
sg11
I18
sg12
F4.166659375585942
sba(iMatrix
MatrixElement
p1560
(dp1561
g10
I18
sg11
I19
sg12
I0
sba(iMatrix
MatrixElement
p1562
(dp1563
g10
I18
sg11
I20
sg12
F-1.3333249999999992
sba(iMatrix
MatrixElement
p1564
(dp1565
g10
I18
sg11
I21
sg12
I0
sba(iMatrix
MatrixElement
p1566
(dp1567
g10
I18
sg11
I22
sg12
I0
sba(iMatrix
MatrixElement
p1568
(dp1569
g10
I18
sg11
I23
sg12
I0
sba(iMatrix
MatrixElement
p1570
(dp1571
g10
I18
sg11
I24
sg12
I0
sba(iMatrix
MatrixElement
p1572
(dp1573
g10
I18
sg11
I25
sg12
I0
sba(iMatrix
MatrixElement
p1574
(dp1575
g10
I18
sg11
I26
sg12
I0
sba(iMatrix
MatrixElement
p1576
(dp1577
g10
I18
sg11
I27
sg12
I0
sba(iMatrix
MatrixElement
p1578
(dp1579
g10
I18
sg11
I28
sg12
I0
sba(iMatrix
MatrixElement
p1580
(dp1581
g10
I18
sg11
I29
sg12
I0
sba(iMatrix
MatrixElement
p1582
(dp1583
g10
I18
sg11
I30
sg12
I0
sba(iMatrix
MatrixElement
p1584
(dp1585
g10
I18
sg11
I31
sg12
F-0.7500187504687597
sba(iMatrix
MatrixElement
p1586
(dp1587
g10
I18
sg11
I32
sg12
I0
sba(iMatrix
MatrixElement
p1588
(dp1589
g10
I18
sg11
I33
sg12
I0
sba(iMatrix
MatrixElement
p1590
(dp1591
g10
I18
sg11
I34
sg12
I0
sba(iMatrix
MatrixElement
p1592
(dp1593
g10
I18
sg11
I35
sg12
I0
sba(iMatrix
MatrixElement
p1594
(dp1595
g10
I18
sg11
I36
sg12
I0
sba(iMatrix
MatrixElement
p1596
(dp1597
g10
I18
sg11
I37
sg12
I0
sba(iMatrix
MatrixElement
p1598
(dp1599
g10
I18
sg11
I38
sg12
I0
sba(iMatrix
MatrixElement
p1600
(dp1601
g10
I18
sg11
I39
sg12
I0
sba(iMatrix
MatrixElement
p1602
(dp1603
g10
I18
sg11
I40
sg12
I0
sba(iMatrix
MatrixElement
p1604
(dp1605
g10
I18
sg11
I41
sg12
I0
sba(iMatrix
MatrixElement
p1606
(dp1607
g10
I18
sg11
I42
sg12
I0
sba(iMatrix
MatrixElement
p1608
(dp1609
g10
I18
sg11
I43
sg12
I0
sba(iMatrix
MatrixElement
p1610
(dp1611
g10
I18
sg11
I44
sg12
I0
sbaa(lp1612
(iMatrix
MatrixElement
p1613
(dp1614
g10
I19
sg11
I1
sg12
I0
sba(iMatrix
MatrixElement
p1615
(dp1616
g10
I19
sg11
I2
sg12
F-0.7500187504687605
sba(iMatrix
MatrixElement
p1617
(dp1618
g10
I19
sg11
I3
sg12
I0
sba(iMatrix
MatrixElement
p1619
(dp1620
g10
I19
sg11
I4
sg12
I0
sba(iMatrix
MatrixElement
p1621
(dp1622
g10
I19
sg11
I5
sg12
I0
sba(iMatrix
MatrixElement
p1623
(dp1624
g10
I19
sg11
I6
sg12
I0
sba(iMatrix
MatrixElement
p1625
(dp1626
g10
I19
sg11
I7
sg12
I0
sba(iMatrix
MatrixElement
p1627
(dp1628
g10
I19
sg11
I8
sg12
I0
sba(iMatrix
MatrixElement
p1629
(dp1630
g10
I19
sg11
I9
sg12
I0
sba(iMatrix
MatrixElement
p1631
(dp1632
g10
I19
sg11
I10
sg12
I0
sba(iMatrix
MatrixElement
p1633
(dp1634
g10
I19
sg11
I11
sg12
I0
sba(iMatrix
MatrixElement
p1635
(dp1636
g10
I19
sg11
I12
sg12
I0
sba(iMatrix
MatrixElement
p1637
(dp1638
g10
I19
sg11
I13
sg12
I0
sba(iMatrix
MatrixElement
p1639
(dp1640
g10
I19
sg11
I14
sg12
I0
sba(iMatrix
MatrixElement
p1641
(dp1642
g10
I19
sg11
I15
sg12
I0
sba(iMatrix
MatrixElement
p1643
(dp1644
g10
I19
sg11
I16
sg12
I0
sba(iMatrix
MatrixElement
p1645
(dp1646
g10
I19
sg11
I17
sg12
F-1.3333250000000096
sba(iMatrix
MatrixElement
p1647
(dp1648
g10
I19
sg11
I18
sg12
I0
sba(iMatrix
MatrixElement
p1649
(dp1650
g10
I19
sg11
I19
sg12
F4.166659375585951
sba(iMatrix
MatrixElement
p1651
(dp1652
g10
I19
sg11
I20
sg12
I0
sba(iMatrix
MatrixElement
p1653
(dp1654
g10
I19
sg11
I21
sg12
F-1.3333249999999957
sba(iMatrix
MatrixElement
p1655
(dp1656
g10
I19
sg11
I22
sg12
I0
sba(iMatrix
MatrixElement
p1657
(dp1658
g10
I19
sg11
I23
sg12
I0
sba(iMatrix
MatrixElement
p1659
(dp1660
g10
I19
sg11
I24
sg12
I0
sba(iMatrix
MatrixElement
p1661
(dp1662
g10
I19
sg11
I25
sg12
I0
sba(iMatrix
MatrixElement
p1663
(dp1664
g10
I19
sg11
I26
sg12
I0
sba(iMatrix
MatrixElement
p1665
(dp1666
g10
I19
sg11
I27
sg12
I0
sba(iMatrix
MatrixElement
p1667
(dp1668
g10
I19
sg11
I28
sg12
I0
sba(iMatrix
MatrixElement
p1669
(dp1670
g10
I19
sg11
I29
sg12
I0
sba(iMatrix
MatrixElement
p1671
(dp1672
g10
I19
sg11
I30
sg12
I0
sba(iMatrix
MatrixElement
p1673
(dp1674
g10
I19
sg11
I31
sg12
I0
sba(iMatrix
MatrixElement
p1675
(dp1676
g10
I19
sg11
I32
sg12
I0
sba(iMatrix
MatrixElement
p1677
(dp1678
g10
I19
sg11
I33
sg12
I0
sba(iMatrix
MatrixElement
p1679
(dp1680
g10
I19
sg11
I34
sg12
I0
sba(iMatrix
MatrixElement
p1681
(dp1682
g10
I19
sg11
I35
sg12
I0
sba(iMatrix
MatrixElement
p1683
(dp1684
g10
I19
sg11
I36
sg12
I0
sba(iMatrix
MatrixElement
p1685
(dp1686
g10
I19
sg11
I37
sg12
I0
sba(iMatrix
MatrixElement
p1687
(dp1688
g10
I19
sg11
I38
sg12
I0
sba(iMatrix
MatrixElement
p1689
(dp1690
g10
I19
sg11
I39
sg12
I0
sba(iMatrix
MatrixElement
p1691
(dp1692
g10
I19
sg11
I40
sg12
F-0.7499906251171857
sba(iMatrix
MatrixElement
p1693
(dp1694
g10
I19
sg11
I41
sg12
I0
sba(iMatrix
MatrixElement
p1695
(dp1696
g10
I19
sg11
I42
sg12
I0
sba(iMatrix
MatrixElement
p1697
(dp1698
g10
I19
sg11
I43
sg12
I0
sba(iMatrix
MatrixElement
p1699
(dp1700
g10
I19
sg11
I44
sg12
I0
sbaa(lp1701
(iMatrix
MatrixElement
p1702
(dp1703
g10
I20
sg11
I1
sg12
I0
sba(iMatrix
MatrixElement
p1704
(dp1705
g10
I20
sg11
I2
sg12
I0
sba(iMatrix
MatrixElement
p1706
(dp1707
g10
I20
sg11
I3
sg12
I0
sba(iMatrix
MatrixElement
p1708
(dp1709
g10
I20
sg11
I4
sg12
I0
sba(iMatrix
MatrixElement
p1710
(dp1711
g10
I20
sg11
I5
sg12
I0
sba(iMatrix
MatrixElement
p1712
(dp1713
g10
I20
sg11
I6
sg12
I0
sba(iMatrix
MatrixElement
p1714
(dp1715
g10
I20
sg11
I7
sg12
I0
sba(iMatrix
MatrixElement
p1716
(dp1717
g10
I20
sg11
I8
sg12
I0
sba(iMatrix
MatrixElement
p1718
(dp1719
g10
I20
sg11
I9
sg12
I0
sba(iMatrix
MatrixElement
p1720
(dp1721
g10
I20
sg11
I10
sg12
I0
sba(iMatrix
MatrixElement
p1722
(dp1723
g10
I20
sg11
I11
sg12
I0
sba(iMatrix
MatrixElement
p1724
(dp1725
g10
I20
sg11
I12
sg12
I0
sba(iMatrix
MatrixElement
p1726
(dp1727
g10
I20
sg11
I13
sg12
I0
sba(iMatrix
MatrixElement
p1728
(dp1729
g10
I20
sg11
I14
sg12
I0
sba(iMatrix
MatrixElement
p1730
(dp1731
g10
I20
sg11
I15
sg12
I0
sba(iMatrix
MatrixElement
p1732
(dp1733
g10
I20
sg11
I16
sg12
I0
sba(iMatrix
MatrixElement
p1734
(dp1735
g10
I20
sg11
I17
sg12
I0
sba(iMatrix
MatrixElement
p1736
(dp1737
g10
I20
sg11
I18
sg12
F-1.3333249999999992
sba(iMatrix
MatrixElement
p1738
(dp1739
g10
I20
sg11
I19
sg12
I0
sba(iMatrix
MatrixElement
p1740
(dp1741
g10
I20
sg11
I20
sg12
F4.166659375585948
sba(iMatrix
MatrixElement
p1742
(dp1743
g10
I20
sg11
I21
sg12
I0
sba(iMatrix
MatrixElement
p1744
(dp1745
g10
I20
sg11
I22
sg12
I0
sba(iMatrix
MatrixElement
p1746
(dp1747
g10
I20
sg11
I23
sg12
I0
sba(iMatrix
MatrixElement
p1748
(dp1749
g10
I20
sg11
I24
sg12
I0
sba(iMatrix
MatrixElement
p1750
(dp1751
g10
I20
sg11
I25
sg12
I0
sba(iMatrix
MatrixElement
p1752
(dp1753
g10
I20
sg11
I26
sg12
I0
sba(iMatrix
MatrixElement
p1754
(dp1755
g10
I20
sg11
I27
sg12
I0
sba(iMatrix
MatrixElement
p1756
(dp1757
g10
I20
sg11
I28
sg12
I0
sba(iMatrix
MatrixElement
p1758
(dp1759
g10
I20
sg11
I29
sg12
I0
sba(iMatrix
MatrixElement
p1760
(dp1761
g10
I20
sg11
I30
sg12
I0
sba(iMatrix
MatrixElement
p1762
(dp1763
g10
I20
sg11
I31
sg12
I0
sba(iMatrix
MatrixElement
p1764
(dp1765
g10
I20
sg11
I32
sg12
F-0.7500187504687632
sba(iMatrix
MatrixElement
p1766
(dp1767
g10
I20
sg11
I33
sg12
I0
sba(iMatrix
MatrixElement
p1768
(dp1769
g10
I20
sg11
I34
sg12
I0
sba(iMatrix
MatrixElement
p1770
(dp1771
g10
I20
sg11
I35
sg12
I0
sba(iMatrix
MatrixElement
p1772
(dp1773
g10
I20
sg11
I36
sg12
I0
sba(iMatrix
MatrixElement
p1774
(dp1775
g10
I20
sg11
I37
sg12
I0
sba(iMatrix
MatrixElement
p1776
(dp1777
g10
I20
sg11
I38
sg12
I0
sba(iMatrix
MatrixElement
p1778
(dp1779
g10
I20
sg11
I39
sg12
I0
sba(iMatrix
MatrixElement
p1780
(dp1781
g10
I20
sg11
I40
sg12
I0
sba(iMatrix
MatrixElement
p1782
(dp1783
g10
I20
sg11
I41
sg12
I0
sba(iMatrix
MatrixElement
p1784
(dp1785
g10
I20
sg11
I42
sg12
I0
sba(iMatrix
MatrixElement
p1786
(dp1787
g10
I20
sg11
I43
sg12
I0
sba(iMatrix
MatrixElement
p1788
(dp1789
g10
I20
sg11
I44
sg12
I0
sbaa(lp1790
(iMatrix
MatrixElement
p1791
(dp1792
g10
I21
sg11
I1
sg12
I0
sba(iMatrix
MatrixElement
p1793
(dp1794
g10
I21
sg11
I2
sg12
I0
sba(iMatrix
MatrixElement
p1795
(dp1796
g10
I21
sg11
I3
sg12
F-0.7500187504687645
sba(iMatrix
MatrixElement
p1797
(dp1798
g10
I21
sg11
I4
sg12
I0
sba(iMatrix
MatrixElement
p1799
(dp1800
g10
I21
sg11
I5
sg12
I0
sba(iMatrix
MatrixElement
p1801
(dp1802
g10
I21
sg11
I6
sg12
I0
sba(iMatrix
MatrixElement
p1803
(dp1804
g10
I21
sg11
I7
sg12
I0
sba(iMatrix
MatrixElement
p1805
(dp1806
g10
I21
sg11
I8
sg12
I0
sba(iMatrix
MatrixElement
p1807
(dp1808
g10
I21
sg11
I9
sg12
I0
sba(iMatrix
MatrixElement
p1809
(dp1810
g10
I21
sg11
I10
sg12
I0
sba(iMatrix
MatrixElement
p1811
(dp1812
g10
I21
sg11
I11
sg12
I0
sba(iMatrix
MatrixElement
p1813
(dp1814
g10
I21
sg11
I12
sg12
I0
sba(iMatrix
MatrixElement
p1815
(dp1816
g10
I21
sg11
I13
sg12
I0
sba(iMatrix
MatrixElement
p1817
(dp1818
g10
I21
sg11
I14
sg12
I0
sba(iMatrix
MatrixElement
p1819
(dp1820
g10
I21
sg11
I15
sg12
I0
sba(iMatrix
MatrixElement
p1821
(dp1822
g10
I21
sg11
I16
sg12
I0
sba(iMatrix
MatrixElement
p1823
(dp1824
g10
I21
sg11
I17
sg12
I0
sba(iMatrix
MatrixElement
p1825
(dp1826
g10
I21
sg11
I18
sg12
I0
sba(iMatrix
MatrixElement
p1827
(dp1828
g10
I21
sg11
I19
sg12
F-1.3333249999999957
sba(iMatrix
MatrixElement
p1829
(dp1830
g10
I21
sg11
I20
sg12
I0
sba(iMatrix
MatrixElement
p1831
(dp1832
g10
I21
sg11
I21
sg12
F4.166659375585946
sba(iMatrix
MatrixElement
p1833
(dp1834
g10
I21
sg11
I22
sg12
F-1.3333249999999979
sba(iMatrix
MatrixElement
p1835
(dp1836
g10
I21
sg11
I23
sg12
I0
sba(iMatrix
MatrixElement
p1837
(dp1838
g10
I21
sg11
I24
sg12
I0
sba(iMatrix
MatrixElement
p1839
(dp1840
g10
I21
sg11
I25
sg12
I0
sba(iMatrix
MatrixElement
p1841
(dp1842
g10
I21
sg11
I26
sg12
I0
sba(iMatrix
MatrixElement
p1843
(dp1844
g10
I21
sg11
I27
sg12
I0
sba(iMatrix
MatrixElement
p1845
(dp1846
g10
I21
sg11
I28
sg12
I0
sba(iMatrix
MatrixElement
p1847
(dp1848
g10
I21
sg11
I29
sg12
I0
sba(iMatrix
MatrixElement
p1849
(dp1850
g10
I21
sg11
I30
sg12
I0
sba(iMatrix
MatrixElement
p1851
(dp1852
g10
I21
sg11
I31
sg12
I0
sba(iMatrix
MatrixElement
p1853
(dp1854
g10
I21
sg11
I32
sg12
I0
sba(iMatrix
MatrixElement
p1855
(dp1856
g10
I21
sg11
I33
sg12
I0
sba(iMatrix
MatrixElement
p1857
(dp1858
g10
I21
sg11
I34
sg12
I0
sba(iMatrix
MatrixElement
p1859
(dp1860
g10
I21
sg11
I35
sg12
I0
sba(iMatrix
MatrixElement
p1861
(dp1862
g10
I21
sg11
I36
sg12
I0
sba(iMatrix
MatrixElement
p1863
(dp1864
g10
I21
sg11
I37
sg12
I0
sba(iMatrix
MatrixElement
p1865
(dp1866
g10
I21
sg11
I38
sg12
I0
sba(iMatrix
MatrixElement
p1867
(dp1868
g10
I21
sg11
I39
sg12
I0
sba(iMatrix
MatrixElement
p1869
(dp1870
g10
I21
sg11
I40
sg12
I0
sba(iMatrix
MatrixElement
p1871
(dp1872
g10
I21
sg11
I41
sg12
I0
sba(iMatrix
MatrixElement
p1873
(dp1874
g10
I21
sg11
I42
sg12
I0
sba(iMatrix
MatrixElement
p1875
(dp1876
g10
I21
sg11
I43
sg12
I0
sba(iMatrix
MatrixElement
p1877
(dp1878
g10
I21
sg11
I44
sg12
I0
sbaa(lp1879
(iMatrix
MatrixElement
p1880
(dp1881
g10
I22
sg11
I1
sg12
I0
sba(iMatrix
MatrixElement
p1882
(dp1883
g10
I22
sg11
I2
sg12
I0
sba(iMatrix
MatrixElement
p1884
(dp1885
g10
I22
sg11
I3
sg12
I0
sba(iMatrix
MatrixElement
p1886
(dp1887
g10
I22
sg11
I4
sg12
I0
sba(iMatrix
MatrixElement
p1888
(dp1889
g10
I22
sg11
I5
sg12
F-0.7500187504687597
sba(iMatrix
MatrixElement
p1890
(dp1891
g10
I22
sg11
I6
sg12
I0
sba(iMatrix
MatrixElement
p1892
(dp1893
g10
I22
sg11
I7
sg12
I0
sba(iMatrix
MatrixElement
p1894
(dp1895
g10
I22
sg11
I8
sg12
I0
sba(iMatrix
MatrixElement
p1896
(dp1897
g10
I22
sg11
I9
sg12
I0
sba(iMatrix
MatrixElement
p1898
(dp1899
g10
I22
sg11
I10
sg12
I0
sba(iMatrix
MatrixElement
p1900
(dp1901
g10
I22
sg11
I11
sg12
I0
sba(iMatrix
MatrixElement
p1902
(dp1903
g10
I22
sg11
I12
sg12
I0
sba(iMatrix
MatrixElement
p1904
(dp1905
g10
I22
sg11
I13
sg12
I0
sba(iMatrix
MatrixElement
p1906
(dp1907
g10
I22
sg11
I14
sg12
I0
sba(iMatrix
MatrixElement
p1908
(dp1909
g10
I22
sg11
I15
sg12
I0
sba(iMatrix
MatrixElement
p1910
(dp1911
g10
I22
sg11
I16
sg12
I0
sba(iMatrix
MatrixElement
p1912
(dp1913
g10
I22
sg11
I17
sg12
I0
sba(iMatrix
MatrixElement
p1914
(dp1915
g10
I22
sg11
I18
sg12
I0
sba(iMatrix
MatrixElement
p1916
(dp1917
g10
I22
sg11
I19
sg12
I0
sba(iMatrix
MatrixElement
p1918
(dp1919
g10
I22
sg11
I20
sg12
I0
sba(iMatrix
MatrixElement
p1920
(dp1921
g10
I22
sg11
I21
sg12
F-1.3333249999999979
sba(iMatrix
MatrixElement
p1922
(dp1923
g10
I22
sg11
I22
sg12
F4.166659375585944
sba(iMatrix
MatrixElement
p1924
(dp1925
g10
I22
sg11
I23
sg12
F-1.3333249999999972
sba(iMatrix
MatrixElement
p1926
(dp1927
g10
I22
sg11
I24
sg12
I0
sba(iMatrix
MatrixElement
p1928
(dp1929
g10
I22
sg11
I25
sg12
I0
sba(iMatrix
MatrixElement
p1930
(dp1931
g10
I22
sg11
I26
sg12
I0
sba(iMatrix
MatrixElement
p1932
(dp1933
g10
I22
sg11
I27
sg12
I0
sba(iMatrix
MatrixElement
p1934
(dp1935
g10
I22
sg11
I28
sg12
I0
sba(iMatrix
MatrixElement
p1936
(dp1937
g10
I22
sg11
I29
sg12
I0
sba(iMatrix
MatrixElement
p1938
(dp1939
g10
I22
sg11
I30
sg12
I0
sba(iMatrix
MatrixElement
p1940
(dp1941
g10
I22
sg11
I31
sg12
I0
sba(iMatrix
MatrixElement
p1942
(dp1943
g10
I22
sg11
I32
sg12
I0
sba(iMatrix
MatrixElement
p1944
(dp1945
g10
I22
sg11
I33
sg12
I0
sba(iMatrix
MatrixElement
p1946
(dp1947
g10
I22
sg11
I34
sg12
I0
sba(iMatrix
MatrixElement
p1948
(dp1949
g10
I22
sg11
I35
sg12
I0
sba(iMatrix
MatrixElement
p1950
(dp1951
g10
I22
sg11
I36
sg12
I0
sba(iMatrix
MatrixElement
p1952
(dp1953
g10
I22
sg11
I37
sg12
I0
sba(iMatrix
MatrixElement
p1954
(dp1955
g10
I22
sg11
I38
sg12
I0
sba(iMatrix
MatrixElement
p1956
(dp1957
g10
I22
sg11
I39
sg12
I0
sba(iMatrix
MatrixElement
p1958
(dp1959
g10
I22
sg11
I40
sg12
I0
sba(iMatrix
MatrixElement
p1960
(dp1961
g10
I22
sg11
I41
sg12
I0
sba(iMatrix
MatrixElement
p1962
(dp1963
g10
I22
sg11
I42
sg12
I0
sba(iMatrix
MatrixElement
p1964
(dp1965
g10
I22
sg11
I43
sg12
I0
sba(iMatrix
MatrixElement
p1966
(dp1967
g10
I22
sg11
I44
sg12
I0
sbaa(lp1968
(iMatrix
MatrixElement
p1969
(dp1970
g10
I23
sg11
I1
sg12
I0
sba(iMatrix
MatrixElement
p1971
(dp1972
g10
I23
sg11
I2
sg12
I0
sba(iMatrix
MatrixElement
p1973
(dp1974
g10
I23
sg11
I3
sg12
I0
sba(iMatrix
MatrixElement
p1975
(dp1976
g10
I23
sg11
I4
sg12
I0
sba(iMatrix
MatrixElement
p1977
(dp1978
g10
I23
sg11
I5
sg12
I0
sba(iMatrix
MatrixElement
p1979
(dp1980
g10
I23
sg11
I6
sg12
I0
sba(iMatrix
MatrixElement
p1981
(dp1982
g10
I23
sg11
I7
sg12
F-0.7500187504687599
sba(iMatrix
MatrixElement
p1983
(dp1984
g10
I23
sg11
I8
sg12
I0
sba(iMatrix
MatrixElement
p1985
(dp1986
g10
I23
sg11
I9
sg12
I0
sba(iMatrix
MatrixElement
p1987
(dp1988
g10
I23
sg11
I10
sg12
I0
sba(iMatrix
MatrixElement
p1989
(dp1990
g10
I23
sg11
I11
sg12
I0
sba(iMatrix
MatrixElement
p1991
(dp1992
g10
I23
sg11
I12
sg12
I0
sba(iMatrix
MatrixElement
p1993
(dp1994
g10
I23
sg11
I13
sg12
I0
sba(iMatrix
MatrixElement
p1995
(dp1996
g10
I23
sg11
I14
sg12
I0
sba(iMatrix
MatrixElement
p1997
(dp1998
g10
I23
sg11
I15
sg12
I0
sba(iMatrix
MatrixElement
p1999
(dp2000
g10
I23
sg11
I16
sg12
I0
sba(iMatrix
MatrixElement
p2001
(dp2002
g10
I23
sg11
I17
sg12
I0
sba(iMatrix
MatrixElement
p2003
(dp2004
g10
I23
sg11
I18
sg12
I0
sba(iMatrix
MatrixElement
p2005
(dp2006
g10
I23
sg11
I19
sg12
I0
sba(iMatrix
MatrixElement
p2007
(dp2008
g10
I23
sg11
I20
sg12
I0
sba(iMatrix
MatrixElement
p2009
(dp2010
g10
I23
sg11
I21
sg12
I0
sba(iMatrix
MatrixElement
p2011
(dp2012
g10
I23
sg11
I22
sg12
F-1.3333249999999972
sba(iMatrix
MatrixElement
p2013
(dp2014
g10
I23
sg11
I23
sg12
F4.166659375585948
sba(iMatrix
MatrixElement
p2015
(dp2016
g10
I23
sg11
I24
sg12
I0
sba(iMatrix
MatrixElement
p2017
(dp2018
g10
I23
sg11
I25
sg12
I0
sba(iMatrix
MatrixElement
p2019
(dp2020
g10
I23
sg11
I26
sg12
I0
sba(iMatrix
MatrixElement
p2021
(dp2022
g10
I23
sg11
I27
sg12
I0
sba(iMatrix
MatrixElement
p2023
(dp2024
g10
I23
sg11
I28
sg12
I0
sba(iMatrix
MatrixElement
p2025
(dp2026
g10
I23
sg11
I29
sg12
I0
sba(iMatrix
MatrixElement
p2027
(dp2028
g10
I23
sg11
I30
sg12
I0
sba(iMatrix
MatrixElement
p2029
(dp2030
g10
I23
sg11
I31
sg12
I0
sba(iMatrix
MatrixElement
p2031
(dp2032
g10
I23
sg11
I32
sg12
I0
sba(iMatrix
MatrixElement
p2033
(dp2034
g10
I23
sg11
I33
sg12
F-1.3333250000000025
sba(iMatrix
MatrixElement
p2035
(dp2036
g10
I23
sg11
I34
sg12
I0
sba(iMatrix
MatrixElement
p2037
(dp2038
g10
I23
sg11
I35
sg12
I0
sba(iMatrix
MatrixElement
p2039
(dp2040
g10
I23
sg11
I36
sg12
I0
sba(iMatrix
MatrixElement
p2041
(dp2042
g10
I23
sg11
I37
sg12
I0
sba(iMatrix
MatrixElement
p2043
(dp2044
g10
I23
sg11
I38
sg12
I0
sba(iMatrix
MatrixElement
p2045
(dp2046
g10
I23
sg11
I39
sg12
I0
sba(iMatrix
MatrixElement
p2047
(dp2048
g10
I23
sg11
I40
sg12
I0
sba(iMatrix
MatrixElement
p2049
(dp2050
g10
I23
sg11
I41
sg12
I0
sba(iMatrix
MatrixElement
p2051
(dp2052
g10
I23
sg11
I42
sg12
I0
sba(iMatrix
MatrixElement
p2053
(dp2054
g10
I23
sg11
I43
sg12
I0
sba(iMatrix
MatrixElement
p2055
(dp2056
g10
I23
sg11
I44
sg12
I0
sbaa(lp2057
(iMatrix
MatrixElement
p2058
(dp2059
g10
I24
sg11
I1
sg12
I0
sba(iMatrix
MatrixElement
p2060
(dp2061
g10
I24
sg11
I2
sg12
I0
sba(iMatrix
MatrixElement
p2062
(dp2063
g10
I24
sg11
I3
sg12
I0
sba(iMatrix
MatrixElement
p2064
(dp2065
g10
I24
sg11
I4
sg12
F-0.7500187504687615
sba(iMatrix
MatrixElement
p2066
(dp2067
g10
I24
sg11
I5
sg12
I0
sba(iMatrix
MatrixElement
p2068
(dp2069
g10
I24
sg11
I6
sg12
I0
sba(iMatrix
MatrixElement
p2070
(dp2071
g10
I24
sg11
I7
sg12
I0
sba(iMatrix
MatrixElement
p2072
(dp2073
g10
I24
sg11
I8
sg12
I0
sba(iMatrix
MatrixElement
p2074
(dp2075
g10
I24
sg11
I9
sg12
I0
sba(iMatrix
MatrixElement
p2076
(dp2077
g10
I24
sg11
I10
sg12
I0
sba(iMatrix
MatrixElement
p2078
(dp2079
g10
I24
sg11
I11
sg12
I0
sba(iMatrix
MatrixElement
p2080
(dp2081
g10
I24
sg11
I12
sg12
I0
sba(iMatrix
MatrixElement
p2082
(dp2083
g10
I24
sg11
I13
sg12
I0
sba(iMatrix
MatrixElement
p2084
(dp2085
g10
I24
sg11
I14
sg12
I0
sba(iMatrix
MatrixElement
p2086
(dp2087
g10
I24
sg11
I15
sg12
I0
sba(iMatrix
MatrixElement
p2088
(dp2089
g10
I24
sg11
I16
sg12
I0
sba(iMatrix
MatrixElement
p2090
(dp2091
g10
I24
sg11
I17
sg12
I0
sba(iMatrix
MatrixElement
p2092
(dp2093
g10
I24
sg11
I18
sg12
I0
sba(iMatrix
MatrixElement
p2094
(dp2095
g10
I24
sg11
I19
sg12
I0
sba(iMatrix
MatrixElement
p2096
(dp2097
g10
I24
sg11
I20
sg12
I0
sba(iMatrix
MatrixElement
p2098
(dp2099
g10
I24
sg11
I21
sg12
I0
sba(iMatrix
MatrixElement
p2100
(dp2101
g10
I24
sg11
I22
sg12
I0
sba(iMatrix
MatrixElement
p2102
(dp2103
g10
I24
sg11
I23
sg12
I0
sba(iMatrix
MatrixElement
p2104
(dp2105
g10
I24
sg11
I24
sg12
F4.166659375585949
sba(iMatrix
MatrixElement
p2106
(dp2107
g10
I24
sg11
I25
sg12
F-1.3333250000000003
sba(iMatrix
MatrixElement
p2108
(dp2109
g10
I24
sg11
I26
sg12
I0
sba(iMatrix
MatrixElement
p2110
(dp2111
g10
I24
sg11
I27
sg12
I0
sba(iMatrix
MatrixElement
p2112
(dp2113
g10
I24
sg11
I28
sg12
I0
sba(iMatrix
MatrixElement
p2114
(dp2115
g10
I24
sg11
I29
sg12
I0
sba(iMatrix
MatrixElement
p2116
(dp2117
g10
I24
sg11
I30
sg12
I0
sba(iMatrix
MatrixElement
p2118
(dp2119
g10
I24
sg11
I31
sg12
I0
sba(iMatrix
MatrixElement
p2120
(dp2121
g10
I24
sg11
I32
sg12
I0
sba(iMatrix
MatrixElement
p2122
(dp2123
g10
I24
sg11
I33
sg12
I0
sba(iMatrix
MatrixElement
p2124
(dp2125
g10
I24
sg11
I34
sg12
I0
sba(iMatrix
MatrixElement
p2126
(dp2127
g10
I24
sg11
I35
sg12
F-0.7499906251171865
sba(iMatrix
MatrixElement
p2128
(dp2129
g10
I24
sg11
I36
sg12
I0
sba(iMatrix
MatrixElement
p2130
(dp2131
g10
I24
sg11
I37
sg12
I0
sba(iMatrix
MatrixElement
p2132
(dp2133
g10
I24
sg11
I38
sg12
I0
sba(iMatrix
MatrixElement
p2134
(dp2135
g10
I24
sg11
I39
sg12
I0
sba(iMatrix
MatrixElement
p2136
(dp2137
g10
I24
sg11
I40
sg12
I0
sba(iMatrix
MatrixElement
p2138
(dp2139
g10
I24
sg11
I41
sg12
I0
sba(iMatrix
MatrixElement
p2140
(dp2141
g10
I24
sg11
I42
sg12
I0
sba(iMatrix
MatrixElement
p2142
(dp2143
g10
I24
sg11
I43
sg12
I0
sba(iMatrix
MatrixElement
p2144
(dp2145
g10
I24
sg11
I44
sg12
I0
sbaa(lp2146
(iMatrix
MatrixElement
p2147
(dp2148
g10
I25
sg11
I1
sg12
I0
sba(iMatrix
MatrixElement
p2149
(dp2150
g10
I25
sg11
I2
sg12
I0
sba(iMatrix
MatrixElement
p2151
(dp2152
g10
I25
sg11
I3
sg12
I0
sba(iMatrix
MatrixElement
p2153
(dp2154
g10
I25
sg11
I4
sg12
I0
sba(iMatrix
MatrixElement
p2155
(dp2156
g10
I25
sg11
I5
sg12
I0
sba(iMatrix
MatrixElement
p2157
(dp2158
g10
I25
sg11
I6
sg12
F-0.7500187504687614
sba(iMatrix
MatrixElement
p2159
(dp2160
g10
I25
sg11
I7
sg12
I0
sba(iMatrix
MatrixElement
p2161
(dp2162
g10
I25
sg11
I8
sg12
I0
sba(iMatrix
MatrixElement
p2163
(dp2164
g10
I25
sg11
I9
sg12
I0
sba(iMatrix
MatrixElement
p2165
(dp2166
g10
I25
sg11
I10
sg12
I0
sba(iMatrix
MatrixElement
p2167
(dp2168
g10
I25
sg11
I11
sg12
I0
sba(iMatrix
MatrixElement
p2169
(dp2170
g10
I25
sg11
I12
sg12
I0
sba(iMatrix
MatrixElement
p2171
(dp2172
g10
I25
sg11
I13
sg12
I0
sba(iMatrix
MatrixElement
p2173
(dp2174
g10
I25
sg11
I14
sg12
I0
sba(iMatrix
MatrixElement
p2175
(dp2176
g10
I25
sg11
I15
sg12
I0
sba(iMatrix
MatrixElement
p2177
(dp2178
g10
I25
sg11
I16
sg12
I0
sba(iMatrix
MatrixElement
p2179
(dp2180
g10
I25
sg11
I17
sg12
I0
sba(iMatrix
MatrixElement
p2181
(dp2182
g10
I25
sg11
I18
sg12
I0
sba(iMatrix
MatrixElement
p2183
(dp2184
g10
I25
sg11
I19
sg12
I0
sba(iMatrix
MatrixElement
p2185
(dp2186
g10
I25
sg11
I20
sg12
I0
sba(iMatrix
MatrixElement
p2187
(dp2188
g10
I25
sg11
I21
sg12
I0
sba(iMatrix
MatrixElement
p2189
(dp2190
g10
I25
sg11
I22
sg12
I0
sba(iMatrix
MatrixElement
p2191
(dp2192
g10
I25
sg11
I23
sg12
I0
sba(iMatrix
MatrixElement
p2193
(dp2194
g10
I25
sg11
I24
sg12
F-1.3333250000000003
sba(iMatrix
MatrixElement
p2195
(dp2196
g10
I25
sg11
I25
sg12
F4.166659375585951
sba(iMatrix
MatrixElement
p2197
(dp2198
g10
I25
sg11
I26
sg12
F-1.333325000000002
sba(iMatrix
MatrixElement
p2199
(dp2200
g10
I25
sg11
I27
sg12
I0
sba(iMatrix
MatrixElement
p2201
(dp2202
g10
I25
sg11
I28
sg12
I0
sba(iMatrix
MatrixElement
p2203
(dp2204
g10
I25
sg11
I29
sg12
I0
sba(iMatrix
MatrixElement
p2205
(dp2206
g10
I25
sg11
I30
sg12
I0
sba(iMatrix
MatrixElement
p2207
(dp2208
g10
I25
sg11
I31
sg12
I0
sba(iMatrix
MatrixElement
p2209
(dp2210
g10
I25
sg11
I32
sg12
I0
sba(iMatrix
MatrixElement
p2211
(dp2212
g10
I25
sg11
I33
sg12
I0
sba(iMatrix
MatrixElement
p2213
(dp2214
g10
I25
sg11
I34
sg12
I0
sba(iMatrix
MatrixElement
p2215
(dp2216
g10
I25
sg11
I35
sg12
I0
sba(iMatrix
MatrixElement
p2217
(dp2218
g10
I25
sg11
I36
sg12
F-0.7499906251171868
sba(iMatrix
MatrixElement
p2219
(dp2220
g10
I25
sg11
I37
sg12
I0
sba(iMatrix
MatrixElement
p2221
(dp2222
g10
I25
sg11
I38
sg12
I0
sba(iMatrix
MatrixElement
p2223
(dp2224
g10
I25
sg11
I39
sg12
I0
sba(iMatrix
MatrixElement
p2225
(dp2226
g10
I25
sg11
I40
sg12
I0
sba(iMatrix
MatrixElement
p2227
(dp2228
g10
I25
sg11
I41
sg12
I0
sba(iMatrix
MatrixElement
p2229
(dp2230
g10
I25
sg11
I42
sg12
I0
sba(iMatrix
MatrixElement
p2231
(dp2232
g10
I25
sg11
I43
sg12
I0
sba(iMatrix
MatrixElement
p2233
(dp2234
g10
I25
sg11
I44
sg12
I0
sbaa(lp2235
(iMatrix
MatrixElement
p2236
(dp2237
g10
I26
sg11
I1
sg12
I0
sba(iMatrix
MatrixElement
p2238
(dp2239
g10
I26
sg11
I2
sg12
I0
sba(iMatrix
MatrixElement
p2240
(dp2241
g10
I26
sg11
I3
sg12
I0
sba(iMatrix
MatrixElement
p2242
(dp2243
g10
I26
sg11
I4
sg12
I0
sba(iMatrix
MatrixElement
p2244
(dp2245
g10
I26
sg11
I5
sg12
I0
sba(iMatrix
MatrixElement
p2246
(dp2247
g10
I26
sg11
I6
sg12
I0
sba(iMatrix
MatrixElement
p2248
(dp2249
g10
I26
sg11
I7
sg12
I0
sba(iMatrix
MatrixElement
p2250
(dp2251
g10
I26
sg11
I8
sg12
F-0.7500187504687611
sba(iMatrix
MatrixElement
p2252
(dp2253
g10
I26
sg11
I9
sg12
I0
sba(iMatrix
MatrixElement
p2254
(dp2255
g10
I26
sg11
I10
sg12
I0
sba(iMatrix
MatrixElement
p2256
(dp2257
g10
I26
sg11
I11
sg12
I0
sba(iMatrix
MatrixElement
p2258
(dp2259
g10
I26
sg11
I12
sg12
I0
sba(iMatrix
MatrixElement
p2260
(dp2261
g10
I26
sg11
I13
sg12
I0
sba(iMatrix
MatrixElement
p2262
(dp2263
g10
I26
sg11
I14
sg12
I0
sba(iMatrix
MatrixElement
p2264
(dp2265
g10
I26
sg11
I15
sg12
I0
sba(iMatrix
MatrixElement
p2266
(dp2267
g10
I26
sg11
I16
sg12
I0
sba(iMatrix
MatrixElement
p2268
(dp2269
g10
I26
sg11
I17
sg12
I0
sba(iMatrix
MatrixElement
p2270
(dp2271
g10
I26
sg11
I18
sg12
I0
sba(iMatrix
MatrixElement
p2272
(dp2273
g10
I26
sg11
I19
sg12
I0
sba(iMatrix
MatrixElement
p2274
(dp2275
g10
I26
sg11
I20
sg12
I0
sba(iMatrix
MatrixElement
p2276
(dp2277
g10
I26
sg11
I21
sg12
I0
sba(iMatrix
MatrixElement
p2278
(dp2279
g10
I26
sg11
I22
sg12
I0
sba(iMatrix
MatrixElement
p2280
(dp2281
g10
I26
sg11
I23
sg12
I0
sba(iMatrix
MatrixElement
p2282
(dp2283
g10
I26
sg11
I24
sg12
I0
sba(iMatrix
MatrixElement
p2284
(dp2285
g10
I26
sg11
I25
sg12
F-1.333325000000002
sba(iMatrix
MatrixElement
p2286
(dp2287
g10
I26
sg11
I26
sg12
F4.166659375585949
sba(iMatrix
MatrixElement
p2288
(dp2289
g10
I26
sg11
I27
sg12
F-1.333324999999999
sba(iMatrix
MatrixElement
p2290
(dp2291
g10
I26
sg11
I28
sg12
I0
sba(iMatrix
MatrixElement
p2292
(dp2293
g10
I26
sg11
I29
sg12
I0
sba(iMatrix
MatrixElement
p2294
(dp2295
g10
I26
sg11
I30
sg12
I0
sba(iMatrix
MatrixElement
p2296
(dp2297
g10
I26
sg11
I31
sg12
I0
sba(iMatrix
MatrixElement
p2298
(dp2299
g10
I26
sg11
I32
sg12
I0
sba(iMatrix
MatrixElement
p2300
(dp2301
g10
I26
sg11
I33
sg12
I0
sba(iMatrix
MatrixElement
p2302
(dp2303
g10
I26
sg11
I34
sg12
I0
sba(iMatrix
MatrixElement
p2304
(dp2305
g10
I26
sg11
I35
sg12
I0
sba(iMatrix
MatrixElement
p2306
(dp2307
g10
I26
sg11
I36
sg12
I0
sba(iMatrix
MatrixElement
p2308
(dp2309
g10
I26
sg11
I37
sg12
I0
sba(iMatrix
MatrixElement
p2310
(dp2311
g10
I26
sg11
I38
sg12
I0
sba(iMatrix
MatrixElement
p2312
(dp2313
g10
I26
sg11
I39
sg12
I0
sba(iMatrix
MatrixElement
p2314
(dp2315
g10
I26
sg11
I40
sg12
I0
sba(iMatrix
MatrixElement
p2316
(dp2317
g10
I26
sg11
I41
sg12
I0
sba(iMatrix
MatrixElement
p2318
(dp2319
g10
I26
sg11
I42
sg12
I0
sba(iMatrix
MatrixElement
p2320
(dp2321
g10
I26
sg11
I43
sg12
I0
sba(iMatrix
MatrixElement
p2322
(dp2323
g10
I26
sg11
I44
sg12
I0
sbaa(lp2324
(iMatrix
MatrixElement
p2325
(dp2326
g10
I27
sg11
I1
sg12
I0
sba(iMatrix
MatrixElement
p2327
(dp2328
g10
I27
sg11
I2
sg12
I0
sba(iMatrix
MatrixElement
p2329
(dp2330
g10
I27
sg11
I3
sg12
I0
sba(iMatrix
MatrixElement
p2331
(dp2332
g10
I27
sg11
I4
sg12
I0
sba(iMatrix
MatrixElement
p2333
(dp2334
g10
I27
sg11
I5
sg12
I0
sba(iMatrix
MatrixElement
p2335
(dp2336
g10
I27
sg11
I6
sg12
I0
sba(iMatrix
MatrixElement
p2337
(dp2338
g10
I27
sg11
I7
sg12
I0
sba(iMatrix
MatrixElement
p2339
(dp2340
g10
I27
sg11
I8
sg12
I0
sba(iMatrix
MatrixElement
p2341
(dp2342
g10
I27
sg11
I9
sg12
I0
sba(iMatrix
MatrixElement
p2343
(dp2344
g10
I27
sg11
I10
sg12
F-0.7500187504687614
sba(iMatrix
MatrixElement
p2345
(dp2346
g10
I27
sg11
I11
sg12
I0
sba(iMatrix
MatrixElement
p2347
(dp2348
g10
I27
sg11
I12
sg12
I0
sba(iMatrix
MatrixElement
p2349
(dp2350
g10
I27
sg11
I13
sg12
I0
sba(iMatrix
MatrixElement
p2351
(dp2352
g10
I27
sg11
I14
sg12
I0
sba(iMatrix
MatrixElement
p2353
(dp2354
g10
I27
sg11
I15
sg12
I0
sba(iMatrix
MatrixElement
p2355
(dp2356
g10
I27
sg11
I16
sg12
I0
sba(iMatrix
MatrixElement
p2357
(dp2358
g10
I27
sg11
I17
sg12
I0
sba(iMatrix
MatrixElement
p2359
(dp2360
g10
I27
sg11
I18
sg12
I0
sba(iMatrix
MatrixElement
p2361
(dp2362
g10
I27
sg11
I19
sg12
I0
sba(iMatrix
MatrixElement
p2363
(dp2364
g10
I27
sg11
I20
sg12
I0
sba(iMatrix
MatrixElement
p2365
(dp2366
g10
I27
sg11
I21
sg12
I0
sba(iMatrix
MatrixElement
p2367
(dp2368
g10
I27
sg11
I22
sg12
I0
sba(iMatrix
MatrixElement
p2369
(dp2370
g10
I27
sg11
I23
sg12
I0
sba(iMatrix
MatrixElement
p2371
(dp2372
g10
I27
sg11
I24
sg12
I0
sba(iMatrix
MatrixElement
p2373
(dp2374
g10
I27
sg11
I25
sg12
I0
sba(iMatrix
MatrixElement
p2375
(dp2376
g10
I27
sg11
I26
sg12
F-1.333324999999999
sba(iMatrix
MatrixElement
p2377
(dp2378
g10
I27
sg11
I27
sg12
F4.166659375585949
sba(iMatrix
MatrixElement
p2379
(dp2380
g10
I27
sg11
I28
sg12
F-1.3333250000000028
sba(iMatrix
MatrixElement
p2381
(dp2382
g10
I27
sg11
I29
sg12
I0
sba(iMatrix
MatrixElement
p2383
(dp2384
g10
I27
sg11
I30
sg12
I0
sba(iMatrix
MatrixElement
p2385
(dp2386
g10
I27
sg11
I31
sg12
I0
sba(iMatrix
MatrixElement
p2387
(dp2388
g10
I27
sg11
I32
sg12
I0
sba(iMatrix
MatrixElement
p2389
(dp2390
g10
I27
sg11
I33
sg12
I0
sba(iMatrix
MatrixElement
p2391
(dp2392
g10
I27
sg11
I34
sg12
I0
sba(iMatrix
MatrixElement
p2393
(dp2394
g10
I27
sg11
I35
sg12
I0
sba(iMatrix
MatrixElement
p2395
(dp2396
g10
I27
sg11
I36
sg12
I0
sba(iMatrix
MatrixElement
p2397
(dp2398
g10
I27
sg11
I37
sg12
I0
sba(iMatrix
MatrixElement
p2399
(dp2400
g10
I27
sg11
I38
sg12
I0
sba(iMatrix
MatrixElement
p2401
(dp2402
g10
I27
sg11
I39
sg12
I0
sba(iMatrix
MatrixElement
p2403
(dp2404
g10
I27
sg11
I40
sg12
I0
sba(iMatrix
MatrixElement
p2405
(dp2406
g10
I27
sg11
I41
sg12
I0
sba(iMatrix
MatrixElement
p2407
(dp2408
g10
I27
sg11
I42
sg12
I0
sba(iMatrix
MatrixElement
p2409
(dp2410
g10
I27
sg11
I43
sg12
I0
sba(iMatrix
MatrixElement
p2411
(dp2412
g10
I27
sg11
I44
sg12
I0
sbaa(lp2413
(iMatrix
MatrixElement
p2414
(dp2415
g10
I28
sg11
I1
sg12
I0
sba(iMatrix
MatrixElement
p2416
(dp2417
g10
I28
sg11
I2
sg12
I0
sba(iMatrix
MatrixElement
p2418
(dp2419
g10
I28
sg11
I3
sg12
I0
sba(iMatrix
MatrixElement
p2420
(dp2421
g10
I28
sg11
I4
sg12
I0
sba(iMatrix
MatrixElement
p2422
(dp2423
g10
I28
sg11
I5
sg12
I0
sba(iMatrix
MatrixElement
p2424
(dp2425
g10
I28
sg11
I6
sg12
I0
sba(iMatrix
MatrixElement
p2426
(dp2427
g10
I28
sg11
I7
sg12
I0
sba(iMatrix
MatrixElement
p2428
(dp2429
g10
I28
sg11
I8
sg12
I0
sba(iMatrix
MatrixElement
p2430
(dp2431
g10
I28
sg11
I9
sg12
I0
sba(iMatrix
MatrixElement
p2432
(dp2433
g10
I28
sg11
I10
sg12
I0
sba(iMatrix
MatrixElement
p2434
(dp2435
g10
I28
sg11
I11
sg12
I0
sba(iMatrix
MatrixElement
p2436
(dp2437
g10
I28
sg11
I12
sg12
F-0.7500187504687621
sba(iMatrix
MatrixElement
p2438
(dp2439
g10
I28
sg11
I13
sg12
I0
sba(iMatrix
MatrixElement
p2440
(dp2441
g10
I28
sg11
I14
sg12
I0
sba(iMatrix
MatrixElement
p2442
(dp2443
g10
I28
sg11
I15
sg12
I0
sba(iMatrix
MatrixElement
p2444
(dp2445
g10
I28
sg11
I16
sg12
I0
sba(iMatrix
MatrixElement
p2446
(dp2447
g10
I28
sg11
I17
sg12
I0
sba(iMatrix
MatrixElement
p2448
(dp2449
g10
I28
sg11
I18
sg12
I0
sba(iMatrix
MatrixElement
p2450
(dp2451
g10
I28
sg11
I19
sg12
I0
sba(iMatrix
MatrixElement
p2452
(dp2453
g10
I28
sg11
I20
sg12
I0
sba(iMatrix
MatrixElement
p2454
(dp2455
g10
I28
sg11
I21
sg12
I0
sba(iMatrix
MatrixElement
p2456
(dp2457
g10
I28
sg11
I22
sg12
I0
sba(iMatrix
MatrixElement
p2458
(dp2459
g10
I28
sg11
I23
sg12
I0
sba(iMatrix
MatrixElement
p2460
(dp2461
g10
I28
sg11
I24
sg12
I0
sba(iMatrix
MatrixElement
p2462
(dp2463
g10
I28
sg11
I25
sg12
I0
sba(iMatrix
MatrixElement
p2464
(dp2465
g10
I28
sg11
I26
sg12
I0
sba(iMatrix
MatrixElement
p2466
(dp2467
g10
I28
sg11
I27
sg12
F-1.3333250000000028
sba(iMatrix
MatrixElement
p2468
(dp2469
g10
I28
sg11
I28
sg12
F4.1666593755859545
sba(iMatrix
MatrixElement
p2470
(dp2471
g10
I28
sg11
I29
sg12
F-1.333325000000002
sba(iMatrix
MatrixElement
p2472
(dp2473
g10
I28
sg11
I30
sg12
I0
sba(iMatrix
MatrixElement
p2474
(dp2475
g10
I28
sg11
I31
sg12
I0
sba(iMatrix
MatrixElement
p2476
(dp2477
g10
I28
sg11
I32
sg12
I0
sba(iMatrix
MatrixElement
p2478
(dp2479
g10
I28
sg11
I33
sg12
I0
sba(iMatrix
MatrixElement
p2480
(dp2481
g10
I28
sg11
I34
sg12
I0
sba(iMatrix
MatrixElement
p2482
(dp2483
g10
I28
sg11
I35
sg12
I0
sba(iMatrix
MatrixElement
p2484
(dp2485
g10
I28
sg11
I36
sg12
I0
sba(iMatrix
MatrixElement
p2486
(dp2487
g10
I28
sg11
I37
sg12
I0
sba(iMatrix
MatrixElement
p2488
(dp2489
g10
I28
sg11
I38
sg12
I0
sba(iMatrix
MatrixElement
p2490
(dp2491
g10
I28
sg11
I39
sg12
I0
sba(iMatrix
MatrixElement
p2492
(dp2493
g10
I28
sg11
I40
sg12
I0
sba(iMatrix
MatrixElement
p2494
(dp2495
g10
I28
sg11
I41
sg12
I0
sba(iMatrix
MatrixElement
p2496
(dp2497
g10
I28
sg11
I42
sg12
I0
sba(iMatrix
MatrixElement
p2498
(dp2499
g10
I28
sg11
I43
sg12
I0
sba(iMatrix
MatrixElement
p2500
(dp2501
g10
I28
sg11
I44
sg12
I0
sbaa(lp2502
(iMatrix
MatrixElement
p2503
(dp2504
g10
I29
sg11
I1
sg12
I0
sba(iMatrix
MatrixElement
p2505
(dp2506
g10
I29
sg11
I2
sg12
I0
sba(iMatrix
MatrixElement
p2507
(dp2508
g10
I29
sg11
I3
sg12
I0
sba(iMatrix
MatrixElement
p2509
(dp2510
g10
I29
sg11
I4
sg12
I0
sba(iMatrix
MatrixElement
p2511
(dp2512
g10
I29
sg11
I5
sg12
I0
sba(iMatrix
MatrixElement
p2513
(dp2514
g10
I29
sg11
I6
sg12
I0
sba(iMatrix
MatrixElement
p2515
(dp2516
g10
I29
sg11
I7
sg12
I0
sba(iMatrix
MatrixElement
p2517
(dp2518
g10
I29
sg11
I8
sg12
I0
sba(iMatrix
MatrixElement
p2519
(dp2520
g10
I29
sg11
I9
sg12
I0
sba(iMatrix
MatrixElement
p2521
(dp2522
g10
I29
sg11
I10
sg12
I0
sba(iMatrix
MatrixElement
p2523
(dp2524
g10
I29
sg11
I11
sg12
I0
sba(iMatrix
MatrixElement
p2525
(dp2526
g10
I29
sg11
I12
sg12
I0
sba(iMatrix
MatrixElement
p2527
(dp2528
g10
I29
sg11
I13
sg12
I0
sba(iMatrix
MatrixElement
p2529
(dp2530
g10
I29
sg11
I14
sg12
F-0.7500187504687617
sba(iMatrix
MatrixElement
p2531
(dp2532
g10
I29
sg11
I15
sg12
I0
sba(iMatrix
MatrixElement
p2533
(dp2534
g10
I29
sg11
I16
sg12
I0
sba(iMatrix
MatrixElement
p2535
(dp2536
g10
I29
sg11
I17
sg12
I0
sba(iMatrix
MatrixElement
p2537
(dp2538
g10
I29
sg11
I18
sg12
I0
sba(iMatrix
MatrixElement
p2539
(dp2540
g10
I29
sg11
I19
sg12
I0
sba(iMatrix
MatrixElement
p2541
(dp2542
g10
I29
sg11
I20
sg12
I0
sba(iMatrix
MatrixElement
p2543
(dp2544
g10
I29
sg11
I21
sg12
I0
sba(iMatrix
MatrixElement
p2545
(dp2546
g10
I29
sg11
I22
sg12
I0
sba(iMatrix
MatrixElement
p2547
(dp2548
g10
I29
sg11
I23
sg12
I0
sba(iMatrix
MatrixElement
p2549
(dp2550
g10
I29
sg11
I24
sg12
I0
sba(iMatrix
MatrixElement
p2551
(dp2552
g10
I29
sg11
I25
sg12
I0
sba(iMatrix
MatrixElement
p2553
(dp2554
g10
I29
sg11
I26
sg12
I0
sba(iMatrix
MatrixElement
p2555
(dp2556
g10
I29
sg11
I27
sg12
I0
sba(iMatrix
MatrixElement
p2557
(dp2558
g10
I29
sg11
I28
sg12
F-1.333325000000002
sba(iMatrix
MatrixElement
p2559
(dp2560
g10
I29
sg11
I29
sg12
F4.16665937558595
sba(iMatrix
MatrixElement
p2561
(dp2562
g10
I29
sg11
I30
sg12
F-1.3333249999999994
sba(iMatrix
MatrixElement
p2563
(dp2564
g10
I29
sg11
I31
sg12
I0
sba(iMatrix
MatrixElement
p2565
(dp2566
g10
I29
sg11
I32
sg12
I0
sba(iMatrix
MatrixElement
p2567
(dp2568
g10
I29
sg11
I33
sg12
I0
sba(iMatrix
MatrixElement
p2569
(dp2570
g10
I29
sg11
I34
sg12
I0
sba(iMatrix
MatrixElement
p2571
(dp2572
g10
I29
sg11
I35
sg12
I0
sba(iMatrix
MatrixElement
p2573
(dp2574
g10
I29
sg11
I36
sg12
I0
sba(iMatrix
MatrixElement
p2575
(dp2576
g10
I29
sg11
I37
sg12
I0
sba(iMatrix
MatrixElement
p2577
(dp2578
g10
I29
sg11
I38
sg12
I0
sba(iMatrix
MatrixElement
p2579
(dp2580
g10
I29
sg11
I39
sg12
I0
sba(iMatrix
MatrixElement
p2581
(dp2582
g10
I29
sg11
I40
sg12
I0
sba(iMatrix
MatrixElement
p2583
(dp2584
g10
I29
sg11
I41
sg12
I0
sba(iMatrix
MatrixElement
p2585
(dp2586
g10
I29
sg11
I42
sg12
I0
sba(iMatrix
MatrixElement
p2587
(dp2588
g10
I29
sg11
I43
sg12
I0
sba(iMatrix
MatrixElement
p2589
(dp2590
g10
I29
sg11
I44
sg12
I0
sbaa(lp2591
(iMatrix
MatrixElement
p2592
(dp2593
g10
I30
sg11
I1
sg12
I0
sba(iMatrix
MatrixElement
p2594
(dp2595
g10
I30
sg11
I2
sg12
I0
sba(iMatrix
MatrixElement
p2596
(dp2597
g10
I30
sg11
I3
sg12
I0
sba(iMatrix
MatrixElement
p2598
(dp2599
g10
I30
sg11
I4
sg12
I0
sba(iMatrix
MatrixElement
p2600
(dp2601
g10
I30
sg11
I5
sg12
I0
sba(iMatrix
MatrixElement
p2602
(dp2603
g10
I30
sg11
I6
sg12
I0
sba(iMatrix
MatrixElement
p2604
(dp2605
g10
I30
sg11
I7
sg12
I0
sba(iMatrix
MatrixElement
p2606
(dp2607
g10
I30
sg11
I8
sg12
I0
sba(iMatrix
MatrixElement
p2608
(dp2609
g10
I30
sg11
I9
sg12
I0
sba(iMatrix
MatrixElement
p2610
(dp2611
g10
I30
sg11
I10
sg12
I0
sba(iMatrix
MatrixElement
p2612
(dp2613
g10
I30
sg11
I11
sg12
I0
sba(iMatrix
MatrixElement
p2614
(dp2615
g10
I30
sg11
I12
sg12
I0
sba(iMatrix
MatrixElement
p2616
(dp2617
g10
I30
sg11
I13
sg12
I0
sba(iMatrix
MatrixElement
p2618
(dp2619
g10
I30
sg11
I14
sg12
I0
sba(iMatrix
MatrixElement
p2620
(dp2621
g10
I30
sg11
I15
sg12
I0
sba(iMatrix
MatrixElement
p2622
(dp2623
g10
I30
sg11
I16
sg12
F-0.7500187504687603
sba(iMatrix
MatrixElement
p2624
(dp2625
g10
I30
sg11
I17
sg12
I0
sba(iMatrix
MatrixElement
p2626
(dp2627
g10
I30
sg11
I18
sg12
I0
sba(iMatrix
MatrixElement
p2628
(dp2629
g10
I30
sg11
I19
sg12
I0
sba(iMatrix
MatrixElement
p2630
(dp2631
g10
I30
sg11
I20
sg12
I0
sba(iMatrix
MatrixElement
p2632
(dp2633
g10
I30
sg11
I21
sg12
I0
sba(iMatrix
MatrixElement
p2634
(dp2635
g10
I30
sg11
I22
sg12
I0
sba(iMatrix
MatrixElement
p2636
(dp2637
g10
I30
sg11
I23
sg12
I0
sba(iMatrix
MatrixElement
p2638
(dp2639
g10
I30
sg11
I24
sg12
I0
sba(iMatrix
MatrixElement
p2640
(dp2641
g10
I30
sg11
I25
sg12
I0
sba(iMatrix
MatrixElement
p2642
(dp2643
g10
I30
sg11
I26
sg12
I0
sba(iMatrix
MatrixElement
p2644
(dp2645
g10
I30
sg11
I27
sg12
I0
sba(iMatrix
MatrixElement
p2646
(dp2647
g10
I30
sg11
I28
sg12
I0
sba(iMatrix
MatrixElement
p2648
(dp2649
g10
I30
sg11
I29
sg12
F-1.3333249999999994
sba(iMatrix
MatrixElement
p2650
(dp2651
g10
I30
sg11
I30
sg12
F4.166659375585942
sba(iMatrix
MatrixElement
p2652
(dp2653
g10
I30
sg11
I31
sg12
F-1.3333249999999979
sba(iMatrix
MatrixElement
p2654
(dp2655
g10
I30
sg11
I32
sg12
I0
sba(iMatrix
MatrixElement
p2656
(dp2657
g10
I30
sg11
I33
sg12
I0
sba(iMatrix
MatrixElement
p2658
(dp2659
g10
I30
sg11
I34
sg12
I0
sba(iMatrix
MatrixElement
p2660
(dp2661
g10
I30
sg11
I35
sg12
I0
sba(iMatrix
MatrixElement
p2662
(dp2663
g10
I30
sg11
I36
sg12
I0
sba(iMatrix
MatrixElement
p2664
(dp2665
g10
I30
sg11
I37
sg12
I0
sba(iMatrix
MatrixElement
p2666
(dp2667
g10
I30
sg11
I38
sg12
I0
sba(iMatrix
MatrixElement
p2668
(dp2669
g10
I30
sg11
I39
sg12
I0
sba(iMatrix
MatrixElement
p2670
(dp2671
g10
I30
sg11
I40
sg12
I0
sba(iMatrix
MatrixElement
p2672
(dp2673
g10
I30
sg11
I41
sg12
I0
sba(iMatrix
MatrixElement
p2674
(dp2675
g10
I30
sg11
I42
sg12
I0
sba(iMatrix
MatrixElement
p2676
(dp2677
g10
I30
sg11
I43
sg12
I0
sba(iMatrix
MatrixElement
p2678
(dp2679
g10
I30
sg11
I44
sg12
I0
sbaa(lp2680
(iMatrix
MatrixElement
p2681
(dp2682
g10
I31
sg11
I1
sg12
I0
sba(iMatrix
MatrixElement
p2683
(dp2684
g10
I31
sg11
I2
sg12
I0
sba(iMatrix
MatrixElement
p2685
(dp2686
g10
I31
sg11
I3
sg12
I0
sba(iMatrix
MatrixElement
p2687
(dp2688
g10
I31
sg11
I4
sg12
I0
sba(iMatrix
MatrixElement
p2689
(dp2690
g10
I31
sg11
I5
sg12
I0
sba(iMatrix
MatrixElement
p2691
(dp2692
g10
I31
sg11
I6
sg12
I0
sba(iMatrix
MatrixElement
p2693
(dp2694
g10
I31
sg11
I7
sg12
I0
sba(iMatrix
MatrixElement
p2695
(dp2696
g10
I31
sg11
I8
sg12
I0
sba(iMatrix
MatrixElement
p2697
(dp2698
g10
I31
sg11
I9
sg12
I0
sba(iMatrix
MatrixElement
p2699
(dp2700
g10
I31
sg11
I10
sg12
I0
sba(iMatrix
MatrixElement
p2701
(dp2702
g10
I31
sg11
I11
sg12
I0
sba(iMatrix
MatrixElement
p2703
(dp2704
g10
I31
sg11
I12
sg12
I0
sba(iMatrix
MatrixElement
p2705
(dp2706
g10
I31
sg11
I13
sg12
I0
sba(iMatrix
MatrixElement
p2707
(dp2708
g10
I31
sg11
I14
sg12
I0
sba(iMatrix
MatrixElement
p2709
(dp2710
g10
I31
sg11
I15
sg12
I0
sba(iMatrix
MatrixElement
p2711
(dp2712
g10
I31
sg11
I16
sg12
I0
sba(iMatrix
MatrixElement
p2713
(dp2714
g10
I31
sg11
I17
sg12
I0
sba(iMatrix
MatrixElement
p2715
(dp2716
g10
I31
sg11
I18
sg12
F-0.7500187504687597
sba(iMatrix
MatrixElement
p2717
(dp2718
g10
I31
sg11
I19
sg12
I0
sba(iMatrix
MatrixElement
p2719
(dp2720
g10
I31
sg11
I20
sg12
I0
sba(iMatrix
MatrixElement
p2721
(dp2722
g10
I31
sg11
I21
sg12
I0
sba(iMatrix
MatrixElement
p2723
(dp2724
g10
I31
sg11
I22
sg12
I0
sba(iMatrix
MatrixElement
p2725
(dp2726
g10
I31
sg11
I23
sg12
I0
sba(iMatrix
MatrixElement
p2727
(dp2728
g10
I31
sg11
I24
sg12
I0
sba(iMatrix
MatrixElement
p2729
(dp2730
g10
I31
sg11
I25
sg12
I0
sba(iMatrix
MatrixElement
p2731
(dp2732
g10
I31
sg11
I26
sg12
I0
sba(iMatrix
MatrixElement
p2733
(dp2734
g10
I31
sg11
I27
sg12
I0
sba(iMatrix
MatrixElement
p2735
(dp2736
g10
I31
sg11
I28
sg12
I0
sba(iMatrix
MatrixElement
p2737
(dp2738
g10
I31
sg11
I29
sg12
I0
sba(iMatrix
MatrixElement
p2739
(dp2740
g10
I31
sg11
I30
sg12
F-1.3333249999999979
sba(iMatrix
MatrixElement
p2741
(dp2742
g10
I31
sg11
I31
sg12
F4.166659375585949
sba(iMatrix
MatrixElement
p2743
(dp2744
g10
I31
sg11
I32
sg12
F-1.3333250000000043
sba(iMatrix
MatrixElement
p2745
(dp2746
g10
I31
sg11
I33
sg12
I0
sba(iMatrix
MatrixElement
p2747
(dp2748
g10
I31
sg11
I34
sg12
I0
sba(iMatrix
MatrixElement
p2749
(dp2750
g10
I31
sg11
I35
sg12
I0
sba(iMatrix
MatrixElement
p2751
(dp2752
g10
I31
sg11
I36
sg12
I0
sba(iMatrix
MatrixElement
p2753
(dp2754
g10
I31
sg11
I37
sg12
I0
sba(iMatrix
MatrixElement
p2755
(dp2756
g10
I31
sg11
I38
sg12
I0
sba(iMatrix
MatrixElement
p2757
(dp2758
g10
I31
sg11
I39
sg12
I0
sba(iMatrix
MatrixElement
p2759
(dp2760
g10
I31
sg11
I40
sg12
I0
sba(iMatrix
MatrixElement
p2761
(dp2762
g10
I31
sg11
I41
sg12
I0
sba(iMatrix
MatrixElement
p2763
(dp2764
g10
I31
sg11
I42
sg12
F-0.7499906251171872
sba(iMatrix
MatrixElement
p2765
(dp2766
g10
I31
sg11
I43
sg12
I0
sba(iMatrix
MatrixElement
p2767
(dp2768
g10
I31
sg11
I44
sg12
I0
sbaa(lp2769
(iMatrix
MatrixElement
p2770
(dp2771
g10
I32
sg11
I1
sg12
I0
sba(iMatrix
MatrixElement
p2772
(dp2773
g10
I32
sg11
I2
sg12
I0
sba(iMatrix
MatrixElement
p2774
(dp2775
g10
I32
sg11
I3
sg12
I0
sba(iMatrix
MatrixElement
p2776
(dp2777
g10
I32
sg11
I4
sg12
I0
sba(iMatrix
MatrixElement
p2778
(dp2779
g10
I32
sg11
I5
sg12
I0
sba(iMatrix
MatrixElement
p2780
(dp2781
g10
I32
sg11
I6
sg12
I0
sba(iMatrix
MatrixElement
p2782
(dp2783
g10
I32
sg11
I7
sg12
I0
sba(iMatrix
MatrixElement
p2784
(dp2785
g10
I32
sg11
I8
sg12
I0
sba(iMatrix
MatrixElement
p2786
(dp2787
g10
I32
sg11
I9
sg12
I0
sba(iMatrix
MatrixElement
p2788
(dp2789
g10
I32
sg11
I10
sg12
I0
sba(iMatrix
MatrixElement
p2790
(dp2791
g10
I32
sg11
I11
sg12
I0
sba(iMatrix
MatrixElement
p2792
(dp2793
g10
I32
sg11
I12
sg12
I0
sba(iMatrix
MatrixElement
p2794
(dp2795
g10
I32
sg11
I13
sg12
I0
sba(iMatrix
MatrixElement
p2796
(dp2797
g10
I32
sg11
I14
sg12
I0
sba(iMatrix
MatrixElement
p2798
(dp2799
g10
I32
sg11
I15
sg12
I0
sba(iMatrix
MatrixElement
p2800
(dp2801
g10
I32
sg11
I16
sg12
I0
sba(iMatrix
MatrixElement
p2802
(dp2803
g10
I32
sg11
I17
sg12
I0
sba(iMatrix
MatrixElement
p2804
(dp2805
g10
I32
sg11
I18
sg12
I0
sba(iMatrix
MatrixElement
p2806
(dp2807
g10
I32
sg11
I19
sg12
I0
sba(iMatrix
MatrixElement
p2808
(dp2809
g10
I32
sg11
I20
sg12
F-0.7500187504687632
sba(iMatrix
MatrixElement
p2810
(dp2811
g10
I32
sg11
I21
sg12
I0
sba(iMatrix
MatrixElement
p2812
(dp2813
g10
I32
sg11
I22
sg12
I0
sba(iMatrix
MatrixElement
p2814
(dp2815
g10
I32
sg11
I23
sg12
I0
sba(iMatrix
MatrixElement
p2816
(dp2817
g10
I32
sg11
I24
sg12
I0
sba(iMatrix
MatrixElement
p2818
(dp2819
g10
I32
sg11
I25
sg12
I0
sba(iMatrix
MatrixElement
p2820
(dp2821
g10
I32
sg11
I26
sg12
I0
sba(iMatrix
MatrixElement
p2822
(dp2823
g10
I32
sg11
I27
sg12
I0
sba(iMatrix
MatrixElement
p2824
(dp2825
g10
I32
sg11
I28
sg12
I0
sba(iMatrix
MatrixElement
p2826
(dp2827
g10
I32
sg11
I29
sg12
I0
sba(iMatrix
MatrixElement
p2828
(dp2829
g10
I32
sg11
I30
sg12
I0
sba(iMatrix
MatrixElement
p2830
(dp2831
g10
I32
sg11
I31
sg12
F-1.3333250000000043
sba(iMatrix
MatrixElement
p2832
(dp2833
g10
I32
sg11
I32
sg12
F4.166659375585958
sba(iMatrix
MatrixElement
p2834
(dp2835
g10
I32
sg11
I33
sg12
I0
sba(iMatrix
MatrixElement
p2836
(dp2837
g10
I32
sg11
I34
sg12
I0
sba(iMatrix
MatrixElement
p2838
(dp2839
g10
I32
sg11
I35
sg12
I0
sba(iMatrix
MatrixElement
p2840
(dp2841
g10
I32
sg11
I36
sg12
I0
sba(iMatrix
MatrixElement
p2842
(dp2843
g10
I32
sg11
I37
sg12
I0
sba(iMatrix
MatrixElement
p2844
(dp2845
g10
I32
sg11
I38
sg12
I0
sba(iMatrix
MatrixElement
p2846
(dp2847
g10
I32
sg11
I39
sg12
I0
sba(iMatrix
MatrixElement
p2848
(dp2849
g10
I32
sg11
I40
sg12
I0
sba(iMatrix
MatrixElement
p2850
(dp2851
g10
I32
sg11
I41
sg12
I0
sba(iMatrix
MatrixElement
p2852
(dp2853
g10
I32
sg11
I42
sg12
I0
sba(iMatrix
MatrixElement
p2854
(dp2855
g10
I32
sg11
I43
sg12
F-0.7499906251171876
sba(iMatrix
MatrixElement
p2856
(dp2857
g10
I32
sg11
I44
sg12
I0
sbaa(lp2858
(iMatrix
MatrixElement
p2859
(dp2860
g10
I33
sg11
I1
sg12
I0
sba(iMatrix
MatrixElement
p2861
(dp2862
g10
I33
sg11
I2
sg12
I0
sba(iMatrix
MatrixElement
p2863
(dp2864
g10
I33
sg11
I3
sg12
I0
sba(iMatrix
MatrixElement
p2865
(dp2866
g10
I33
sg11
I4
sg12
I0
sba(iMatrix
MatrixElement
p2867
(dp2868
g10
I33
sg11
I5
sg12
I0
sba(iMatrix
MatrixElement
p2869
(dp2870
g10
I33
sg11
I6
sg12
I0
sba(iMatrix
MatrixElement
p2871
(dp2872
g10
I33
sg11
I7
sg12
I0
sba(iMatrix
MatrixElement
p2873
(dp2874
g10
I33
sg11
I8
sg12
I0
sba(iMatrix
MatrixElement
p2875
(dp2876
g10
I33
sg11
I9
sg12
F-0.7500187504687638
sba(iMatrix
MatrixElement
p2877
(dp2878
g10
I33
sg11
I10
sg12
I0
sba(iMatrix
MatrixElement
p2879
(dp2880
g10
I33
sg11
I11
sg12
I0
sba(iMatrix
MatrixElement
p2881
(dp2882
g10
I33
sg11
I12
sg12
I0
sba(iMatrix
MatrixElement
p2883
(dp2884
g10
I33
sg11
I13
sg12
I0
sba(iMatrix
MatrixElement
p2885
(dp2886
g10
I33
sg11
I14
sg12
I0
sba(iMatrix
MatrixElement
p2887
(dp2888
g10
I33
sg11
I15
sg12
I0
sba(iMatrix
MatrixElement
p2889
(dp2890
g10
I33
sg11
I16
sg12
I0
sba(iMatrix
MatrixElement
p2891
(dp2892
g10
I33
sg11
I17
sg12
I0
sba(iMatrix
MatrixElement
p2893
(dp2894
g10
I33
sg11
I18
sg12
I0
sba(iMatrix
MatrixElement
p2895
(dp2896
g10
I33
sg11
I19
sg12
I0
sba(iMatrix
MatrixElement
p2897
(dp2898
g10
I33
sg11
I20
sg12
I0
sba(iMatrix
MatrixElement
p2899
(dp2900
g10
I33
sg11
I21
sg12
I0
sba(iMatrix
MatrixElement
p2901
(dp2902
g10
I33
sg11
I22
sg12
I0
sba(iMatrix
MatrixElement
p2903
(dp2904
g10
I33
sg11
I23
sg12
F-1.3333250000000025
sba(iMatrix
MatrixElement
p2905
(dp2906
g10
I33
sg11
I24
sg12
I0
sba(iMatrix
MatrixElement
p2907
(dp2908
g10
I33
sg11
I25
sg12
I0
sba(iMatrix
MatrixElement
p2909
(dp2910
g10
I33
sg11
I26
sg12
I0
sba(iMatrix
MatrixElement
p2911
(dp2912
g10
I33
sg11
I27
sg12
I0
sba(iMatrix
MatrixElement
p2913
(dp2914
g10
I33
sg11
I28
sg12
I0
sba(iMatrix
MatrixElement
p2915
(dp2916
g10
I33
sg11
I29
sg12
I0
sba(iMatrix
MatrixElement
p2917
(dp2918
g10
I33
sg11
I30
sg12
I0
sba(iMatrix
MatrixElement
p2919
(dp2920
g10
I33
sg11
I31
sg12
I0
sba(iMatrix
MatrixElement
p2921
(dp2922
g10
I33
sg11
I32
sg12
I0
sba(iMatrix
MatrixElement
p2923
(dp2924
g10
I33
sg11
I33
sg12
F4.166659375585946
sba(iMatrix
MatrixElement
p2925
(dp2926
g10
I33
sg11
I34
sg12
F-1.3333249999999952
sba(iMatrix
MatrixElement
p2927
(dp2928
g10
I33
sg11
I35
sg12
I0
sba(iMatrix
MatrixElement
p2929
(dp2930
g10
I33
sg11
I36
sg12
I0
sba(iMatrix
MatrixElement
p2931
(dp2932
g10
I33
sg11
I37
sg12
I0
sba(iMatrix
MatrixElement
p2933
(dp2934
g10
I33
sg11
I38
sg12
I0
sba(iMatrix
MatrixElement
p2935
(dp2936
g10
I33
sg11
I39
sg12
I0
sba(iMatrix
MatrixElement
p2937
(dp2938
g10
I33
sg11
I40
sg12
I0
sba(iMatrix
MatrixElement
p2939
(dp2940
g10
I33
sg11
I41
sg12
I0
sba(iMatrix
MatrixElement
p2941
(dp2942
g10
I33
sg11
I42
sg12
I0
sba(iMatrix
MatrixElement
p2943
(dp2944
g10
I33
sg11
I43
sg12
I0
sba(iMatrix
MatrixElement
p2945
(dp2946
g10
I33
sg11
I44
sg12
I0
sbaa(lp2947
(iMatrix
MatrixElement
p2948
(dp2949
g10
I34
sg11
I1
sg12
I0
sba(iMatrix
MatrixElement
p2950
(dp2951
g10
I34
sg11
I2
sg12
I0
sba(iMatrix
MatrixElement
p2952
(dp2953
g10
I34
sg11
I3
sg12
I0
sba(iMatrix
MatrixElement
p2954
(dp2955
g10
I34
sg11
I4
sg12
I0
sba(iMatrix
MatrixElement
p2956
(dp2957
g10
I34
sg11
I5
sg12
I0
sba(iMatrix
MatrixElement
p2958
(dp2959
g10
I34
sg11
I6
sg12
I0
sba(iMatrix
MatrixElement
p2960
(dp2961
g10
I34
sg11
I7
sg12
I0
sba(iMatrix
MatrixElement
p2962
(dp2963
g10
I34
sg11
I8
sg12
I0
sba(iMatrix
MatrixElement
p2964
(dp2965
g10
I34
sg11
I9
sg12
I0
sba(iMatrix
MatrixElement
p2966
(dp2967
g10
I34
sg11
I10
sg12
I0
sba(iMatrix
MatrixElement
p2968
(dp2969
g10
I34
sg11
I11
sg12
F-0.7500187504687601
sba(iMatrix
MatrixElement
p2970
(dp2971
g10
I34
sg11
I12
sg12
I0
sba(iMatrix
MatrixElement
p2972
(dp2973
g10
I34
sg11
I13
sg12
I0
sba(iMatrix
MatrixElement
p2974
(dp2975
g10
I34
sg11
I14
sg12
I0
sba(iMatrix
MatrixElement
p2976
(dp2977
g10
I34
sg11
I15
sg12
I0
sba(iMatrix
MatrixElement
p2978
(dp2979
g10
I34
sg11
I16
sg12
I0
sba(iMatrix
MatrixElement
p2980
(dp2981
g10
I34
sg11
I17
sg12
I0
sba(iMatrix
MatrixElement
p2982
(dp2983
g10
I34
sg11
I18
sg12
I0
sba(iMatrix
MatrixElement
p2984
(dp2985
g10
I34
sg11
I19
sg12
I0
sba(iMatrix
MatrixElement
p2986
(dp2987
g10
I34
sg11
I20
sg12
I0
sba(iMatrix
MatrixElement
p2988
(dp2989
g10
I34
sg11
I21
sg12
I0
sba(iMatrix
MatrixElement
p2990
(dp2991
g10
I34
sg11
I22
sg12
I0
sba(iMatrix
MatrixElement
p2992
(dp2993
g10
I34
sg11
I23
sg12
I0
sba(iMatrix
MatrixElement
p2994
(dp2995
g10
I34
sg11
I24
sg12
I0
sba(iMatrix
MatrixElement
p2996
(dp2997
g10
I34
sg11
I25
sg12
I0
sba(iMatrix
MatrixElement
p2998
(dp2999
g10
I34
sg11
I26
sg12
I0
sba(iMatrix
MatrixElement
p3000
(dp3001
g10
I34
sg11
I27
sg12
I0
sba(iMatrix
MatrixElement
p3002
(dp3003
g10
I34
sg11
I28
sg12
I0
sba(iMatrix
MatrixElement
p3004
(dp3005
g10
I34
sg11
I29
sg12
I0
sba(iMatrix
MatrixElement
p3006
(dp3007
g10
I34
sg11
I30
sg12
I0
sba(iMatrix
MatrixElement
p3008
(dp3009
g10
I34
sg11
I31
sg12
I0
sba(iMatrix
MatrixElement
p3010
(dp3011
g10
I34
sg11
I32
sg12
I0
sba(iMatrix
MatrixElement
p3012
(dp3013
g10
I34
sg11
I33
sg12
F-1.3333249999999952
sba(iMatrix
MatrixElement
p3014
(dp3015
g10
I34
sg11
I34
sg12
F4.166659375585942
sba(iMatrix
MatrixElement
p3016
(dp3017
g10
I34
sg11
I35
sg12
I0
sba(iMatrix
MatrixElement
p3018
(dp3019
g10
I34
sg11
I36
sg12
I0
sba(iMatrix
MatrixElement
p3020
(dp3021
g10
I34
sg11
I37
sg12
F-1.3333249999999999
sba(iMatrix
MatrixElement
p3022
(dp3023
g10
I34
sg11
I38
sg12
I0
sba(iMatrix
MatrixElement
p3024
(dp3025
g10
I34
sg11
I39
sg12
I0
sba(iMatrix
MatrixElement
p3026
(dp3027
g10
I34
sg11
I40
sg12
I0
sba(iMatrix
MatrixElement
p3028
(dp3029
g10
I34
sg11
I41
sg12
I0
sba(iMatrix
MatrixElement
p3030
(dp3031
g10
I34
sg11
I42
sg12
I0
sba(iMatrix
MatrixElement
p3032
(dp3033
g10
I34
sg11
I43
sg12
I0
sba(iMatrix
MatrixElement
p3034
(dp3035
g10
I34
sg11
I44
sg12
I0
sbaa(lp3036
(iMatrix
MatrixElement
p3037
(dp3038
g10
I35
sg11
I1
sg12
I0
sba(iMatrix
MatrixElement
p3039
(dp3040
g10
I35
sg11
I2
sg12
I0
sba(iMatrix
MatrixElement
p3041
(dp3042
g10
I35
sg11
I3
sg12
I0
sba(iMatrix
MatrixElement
p3043
(dp3044
g10
I35
sg11
I4
sg12
I0
sba(iMatrix
MatrixElement
p3045
(dp3046
g10
I35
sg11
I5
sg12
I0
sba(iMatrix
MatrixElement
p3047
(dp3048
g10
I35
sg11
I6
sg12
I0
sba(iMatrix
MatrixElement
p3049
(dp3050
g10
I35
sg11
I7
sg12
I0
sba(iMatrix
MatrixElement
p3051
(dp3052
g10
I35
sg11
I8
sg12
I0
sba(iMatrix
MatrixElement
p3053
(dp3054
g10
I35
sg11
I9
sg12
I0
sba(iMatrix
MatrixElement
p3055
(dp3056
g10
I35
sg11
I10
sg12
I0
sba(iMatrix
MatrixElement
p3057
(dp3058
g10
I35
sg11
I11
sg12
I0
sba(iMatrix
MatrixElement
p3059
(dp3060
g10
I35
sg11
I12
sg12
I0
sba(iMatrix
MatrixElement
p3061
(dp3062
g10
I35
sg11
I13
sg12
I0
sba(iMatrix
MatrixElement
p3063
(dp3064
g10
I35
sg11
I14
sg12
I0
sba(iMatrix
MatrixElement
p3065
(dp3066
g10
I35
sg11
I15
sg12
I0
sba(iMatrix
MatrixElement
p3067
(dp3068
g10
I35
sg11
I16
sg12
I0
sba(iMatrix
MatrixElement
p3069
(dp3070
g10
I35
sg11
I17
sg12
I0
sba(iMatrix
MatrixElement
p3071
(dp3072
g10
I35
sg11
I18
sg12
I0
sba(iMatrix
MatrixElement
p3073
(dp3074
g10
I35
sg11
I19
sg12
I0
sba(iMatrix
MatrixElement
p3075
(dp3076
g10
I35
sg11
I20
sg12
I0
sba(iMatrix
MatrixElement
p3077
(dp3078
g10
I35
sg11
I21
sg12
I0
sba(iMatrix
MatrixElement
p3079
(dp3080
g10
I35
sg11
I22
sg12
I0
sba(iMatrix
MatrixElement
p3081
(dp3082
g10
I35
sg11
I23
sg12
I0
sba(iMatrix
MatrixElement
p3083
(dp3084
g10
I35
sg11
I24
sg12
F-0.7499906251171865
sba(iMatrix
MatrixElement
p3085
(dp3086
g10
I35
sg11
I25
sg12
I0
sba(iMatrix
MatrixElement
p3087
(dp3088
g10
I35
sg11
I26
sg12
I0
sba(iMatrix
MatrixElement
p3089
(dp3090
g10
I35
sg11
I27
sg12
I0
sba(iMatrix
MatrixElement
p3091
(dp3092
g10
I35
sg11
I28
sg12
I0
sba(iMatrix
MatrixElement
p3093
(dp3094
g10
I35
sg11
I29
sg12
I0
sba(iMatrix
MatrixElement
p3095
(dp3096
g10
I35
sg11
I30
sg12
I0
sba(iMatrix
MatrixElement
p3097
(dp3098
g10
I35
sg11
I31
sg12
I0
sba(iMatrix
MatrixElement
p3099
(dp3100
g10
I35
sg11
I32
sg12
I0
sba(iMatrix
MatrixElement
p3101
(dp3102
g10
I35
sg11
I33
sg12
I0
sba(iMatrix
MatrixElement
p3103
(dp3104
g10
I35
sg11
I34
sg12
I0
sba(iMatrix
MatrixElement
p3105
(dp3106
g10
I35
sg11
I35
sg12
F4.583340625117188
sba(iMatrix
MatrixElement
p3107
(dp3108
g10
I35
sg11
I36
sg12
F-1.6666750000000006
sba(iMatrix
MatrixElement
p3109
(dp3110
g10
I35
sg11
I37
sg12
I0
sba(iMatrix
MatrixElement
p3111
(dp3112
g10
I35
sg11
I38
sg12
I0
sba(iMatrix
MatrixElement
p3113
(dp3114
g10
I35
sg11
I39
sg12
I0
sba(iMatrix
MatrixElement
p3115
(dp3116
g10
I35
sg11
I40
sg12
I0
sba(iMatrix
MatrixElement
p3117
(dp3118
g10
I35
sg11
I41
sg12
I0
sba(iMatrix
MatrixElement
p3119
(dp3120
g10
I35
sg11
I42
sg12
I0
sba(iMatrix
MatrixElement
p3121
(dp3122
g10
I35
sg11
I43
sg12
I0
sba(iMatrix
MatrixElement
p3123
(dp3124
g10
I35
sg11
I44
sg12
F-0.5000000000000004
sbaa(lp3125
(iMatrix
MatrixElement
p3126
(dp3127
g10
I36
sg11
I1
sg12
I0
sba(iMatrix
MatrixElement
p3128
(dp3129
g10
I36
sg11
I2
sg12
I0
sba(iMatrix
MatrixElement
p3130
(dp3131
g10
I36
sg11
I3
sg12
I0
sba(iMatrix
MatrixElement
p3132
(dp3133
g10
I36
sg11
I4
sg12
I0
sba(iMatrix
MatrixElement
p3134
(dp3135
g10
I36
sg11
I5
sg12
I0
sba(iMatrix
MatrixElement
p3136
(dp3137
g10
I36
sg11
I6
sg12
I0
sba(iMatrix
MatrixElement
p3138
(dp3139
g10
I36
sg11
I7
sg12
I0
sba(iMatrix
MatrixElement
p3140
(dp3141
g10
I36
sg11
I8
sg12
I0
sba(iMatrix
MatrixElement
p3142
(dp3143
g10
I36
sg11
I9
sg12
I0
sba(iMatrix
MatrixElement
p3144
(dp3145
g10
I36
sg11
I10
sg12
I0
sba(iMatrix
MatrixElement
p3146
(dp3147
g10
I36
sg11
I11
sg12
I0
sba(iMatrix
MatrixElement
p3148
(dp3149
g10
I36
sg11
I12
sg12
I0
sba(iMatrix
MatrixElement
p3150
(dp3151
g10
I36
sg11
I13
sg12
I0
sba(iMatrix
MatrixElement
p3152
(dp3153
g10
I36
sg11
I14
sg12
I0
sba(iMatrix
MatrixElement
p3154
(dp3155
g10
I36
sg11
I15
sg12
I0
sba(iMatrix
MatrixElement
p3156
(dp3157
g10
I36
sg11
I16
sg12
I0
sba(iMatrix
MatrixElement
p3158
(dp3159
g10
I36
sg11
I17
sg12
I0
sba(iMatrix
MatrixElement
p3160
(dp3161
g10
I36
sg11
I18
sg12
I0
sba(iMatrix
MatrixElement
p3162
(dp3163
g10
I36
sg11
I19
sg12
I0
sba(iMatrix
MatrixElement
p3164
(dp3165
g10
I36
sg11
I20
sg12
I0
sba(iMatrix
MatrixElement
p3166
(dp3167
g10
I36
sg11
I21
sg12
I0
sba(iMatrix
MatrixElement
p3168
(dp3169
g10
I36
sg11
I22
sg12
I0
sba(iMatrix
MatrixElement
p3170
(dp3171
g10
I36
sg11
I23
sg12
I0
sba(iMatrix
MatrixElement
p3172
(dp3173
g10
I36
sg11
I24
sg12
I0
sba(iMatrix
MatrixElement
p3174
(dp3175
g10
I36
sg11
I25
sg12
F-0.7499906251171868
sba(iMatrix
MatrixElement
p3176
(dp3177
g10
I36
sg11
I26
sg12
I0
sba(iMatrix
MatrixElement
p3178
(dp3179
g10
I36
sg11
I27
sg12
I0
sba(iMatrix
MatrixElement
p3180
(dp3181
g10
I36
sg11
I28
sg12
I0
sba(iMatrix
MatrixElement
p3182
(dp3183
g10
I36
sg11
I29
sg12
I0
sba(iMatrix
MatrixElement
p3184
(dp3185
g10
I36
sg11
I30
sg12
I0
sba(iMatrix
MatrixElement
p3186
(dp3187
g10
I36
sg11
I31
sg12
I0
sba(iMatrix
MatrixElement
p3188
(dp3189
g10
I36
sg11
I32
sg12
I0
sba(iMatrix
MatrixElement
p3190
(dp3191
g10
I36
sg11
I33
sg12
I0
sba(iMatrix
MatrixElement
p3192
(dp3193
g10
I36
sg11
I34
sg12
I0
sba(iMatrix
MatrixElement
p3194
(dp3195
g10
I36
sg11
I35
sg12
F-1.6666750000000006
sba(iMatrix
MatrixElement
p3196
(dp3197
g10
I36
sg11
I36
sg12
F4.583340625117186
sba(iMatrix
MatrixElement
p3198
(dp3199
g10
I36
sg11
I37
sg12
I0
sba(iMatrix
MatrixElement
p3200
(dp3201
g10
I36
sg11
I38
sg12
I0
sba(iMatrix
MatrixElement
p3202
(dp3203
g10
I36
sg11
I39
sg12
I0
sba(iMatrix
MatrixElement
p3204
(dp3205
g10
I36
sg11
I40
sg12
I0
sba(iMatrix
MatrixElement
p3206
(dp3207
g10
I36
sg11
I41
sg12
F-0.4999999999999998
sba(iMatrix
MatrixElement
p3208
(dp3209
g10
I36
sg11
I42
sg12
I0
sba(iMatrix
MatrixElement
p3210
(dp3211
g10
I36
sg11
I43
sg12
I0
sba(iMatrix
MatrixElement
p3212
(dp3213
g10
I36
sg11
I44
sg12
I0
sbaa(lp3214
(iMatrix
MatrixElement
p3215
(dp3216
g10
I37
sg11
I1
sg12
I0
sba(iMatrix
MatrixElement
p3217
(dp3218
g10
I37
sg11
I2
sg12
I0
sba(iMatrix
MatrixElement
p3219
(dp3220
g10
I37
sg11
I3
sg12
I0
sba(iMatrix
MatrixElement
p3221
(dp3222
g10
I37
sg11
I4
sg12
I0
sba(iMatrix
MatrixElement
p3223
(dp3224
g10
I37
sg11
I5
sg12
I0
sba(iMatrix
MatrixElement
p3225
(dp3226
g10
I37
sg11
I6
sg12
I0
sba(iMatrix
MatrixElement
p3227
(dp3228
g10
I37
sg11
I7
sg12
I0
sba(iMatrix
MatrixElement
p3229
(dp3230
g10
I37
sg11
I8
sg12
I0
sba(iMatrix
MatrixElement
p3231
(dp3232
g10
I37
sg11
I9
sg12
I0
sba(iMatrix
MatrixElement
p3233
(dp3234
g10
I37
sg11
I10
sg12
I0
sba(iMatrix
MatrixElement
p3235
(dp3236
g10
I37
sg11
I11
sg12
I0
sba(iMatrix
MatrixElement
p3237
(dp3238
g10
I37
sg11
I12
sg12
I0
sba(iMatrix
MatrixElement
p3239
(dp3240
g10
I37
sg11
I13
sg12
F-0.7500187504687612
sba(iMatrix
MatrixElement
p3241
(dp3242
g10
I37
sg11
I14
sg12
I0
sba(iMatrix
MatrixElement
p3243
(dp3244
g10
I37
sg11
I15
sg12
I0
sba(iMatrix
MatrixElement
p3245
(dp3246
g10
I37
sg11
I16
sg12
I0
sba(iMatrix
MatrixElement
p3247
(dp3248
g10
I37
sg11
I17
sg12
I0
sba(iMatrix
MatrixElement
p3249
(dp3250
g10
I37
sg11
I18
sg12
I0
sba(iMatrix
MatrixElement
p3251
(dp3252
g10
I37
sg11
I19
sg12
I0
sba(iMatrix
MatrixElement
p3253
(dp3254
g10
I37
sg11
I20
sg12
I0
sba(iMatrix
MatrixElement
p3255
(dp3256
g10
I37
sg11
I21
sg12
I0
sba(iMatrix
MatrixElement
p3257
(dp3258
g10
I37
sg11
I22
sg12
I0
sba(iMatrix
MatrixElement
p3259
(dp3260
g10
I37
sg11
I23
sg12
I0
sba(iMatrix
MatrixElement
p3261
(dp3262
g10
I37
sg11
I24
sg12
I0
sba(iMatrix
MatrixElement
p3263
(dp3264
g10
I37
sg11
I25
sg12
I0
sba(iMatrix
MatrixElement
p3265
(dp3266
g10
I37
sg11
I26
sg12
I0
sba(iMatrix
MatrixElement
p3267
(dp3268
g10
I37
sg11
I27
sg12
I0
sba(iMatrix
MatrixElement
p3269
(dp3270
g10
I37
sg11
I28
sg12
I0
sba(iMatrix
MatrixElement
p3271
(dp3272
g10
I37
sg11
I29
sg12
I0
sba(iMatrix
MatrixElement
p3273
(dp3274
g10
I37
sg11
I30
sg12
I0
sba(iMatrix
MatrixElement
p3275
(dp3276
g10
I37
sg11
I31
sg12
I0
sba(iMatrix
MatrixElement
p3277
(dp3278
g10
I37
sg11
I32
sg12
I0
sba(iMatrix
MatrixElement
p3279
(dp3280
g10
I37
sg11
I33
sg12
I0
sba(iMatrix
MatrixElement
p3281
(dp3282
g10
I37
sg11
I34
sg12
F-1.3333249999999999
sba(iMatrix
MatrixElement
p3283
(dp3284
g10
I37
sg11
I35
sg12
I0
sba(iMatrix
MatrixElement
p3285
(dp3286
g10
I37
sg11
I36
sg12
I0
sba(iMatrix
MatrixElement
p3287
(dp3288
g10
I37
sg11
I37
sg12
F4.166659375585946
sba(iMatrix
MatrixElement
p3289
(dp3290
g10
I37
sg11
I38
sg12
F-1.333324999999998
sba(iMatrix
MatrixElement
p3291
(dp3292
g10
I37
sg11
I39
sg12
I0
sba(iMatrix
MatrixElement
p3293
(dp3294
g10
I37
sg11
I40
sg12
I0
sba(iMatrix
MatrixElement
p3295
(dp3296
g10
I37
sg11
I41
sg12
F-0.749990625117186
sba(iMatrix
MatrixElement
p3297
(dp3298
g10
I37
sg11
I42
sg12
I0
sba(iMatrix
MatrixElement
p3299
(dp3300
g10
I37
sg11
I43
sg12
I0
sba(iMatrix
MatrixElement
p3301
(dp3302
g10
I37
sg11
I44
sg12
I0
sbaa(lp3303
(iMatrix
MatrixElement
p3304
(dp3305
g10
I38
sg11
I1
sg12
I0
sba(iMatrix
MatrixElement
p3306
(dp3307
g10
I38
sg11
I2
sg12
I0
sba(iMatrix
MatrixElement
p3308
(dp3309
g10
I38
sg11
I3
sg12
I0
sba(iMatrix
MatrixElement
p3310
(dp3311
g10
I38
sg11
I4
sg12
I0
sba(iMatrix
MatrixElement
p3312
(dp3313
g10
I38
sg11
I5
sg12
I0
sba(iMatrix
MatrixElement
p3314
(dp3315
g10
I38
sg11
I6
sg12
I0
sba(iMatrix
MatrixElement
p3316
(dp3317
g10
I38
sg11
I7
sg12
I0
sba(iMatrix
MatrixElement
p3318
(dp3319
g10
I38
sg11
I8
sg12
I0
sba(iMatrix
MatrixElement
p3320
(dp3321
g10
I38
sg11
I9
sg12
I0
sba(iMatrix
MatrixElement
p3322
(dp3323
g10
I38
sg11
I10
sg12
I0
sba(iMatrix
MatrixElement
p3324
(dp3325
g10
I38
sg11
I11
sg12
I0
sba(iMatrix
MatrixElement
p3326
(dp3327
g10
I38
sg11
I12
sg12
I0
sba(iMatrix
MatrixElement
p3328
(dp3329
g10
I38
sg11
I13
sg12
I0
sba(iMatrix
MatrixElement
p3330
(dp3331
g10
I38
sg11
I14
sg12
I0
sba(iMatrix
MatrixElement
p3332
(dp3333
g10
I38
sg11
I15
sg12
F-0.7500187504687612
sba(iMatrix
MatrixElement
p3334
(dp3335
g10
I38
sg11
I16
sg12
I0
sba(iMatrix
MatrixElement
p3336
(dp3337
g10
I38
sg11
I17
sg12
I0
sba(iMatrix
MatrixElement
p3338
(dp3339
g10
I38
sg11
I18
sg12
I0
sba(iMatrix
MatrixElement
p3340
(dp3341
g10
I38
sg11
I19
sg12
I0
sba(iMatrix
MatrixElement
p3342
(dp3343
g10
I38
sg11
I20
sg12
I0
sba(iMatrix
MatrixElement
p3344
(dp3345
g10
I38
sg11
I21
sg12
I0
sba(iMatrix
MatrixElement
p3346
(dp3347
g10
I38
sg11
I22
sg12
I0
sba(iMatrix
MatrixElement
p3348
(dp3349
g10
I38
sg11
I23
sg12
I0
sba(iMatrix
MatrixElement
p3350
(dp3351
g10
I38
sg11
I24
sg12
I0
sba(iMatrix
MatrixElement
p3352
(dp3353
g10
I38
sg11
I25
sg12
I0
sba(iMatrix
MatrixElement
p3354
(dp3355
g10
I38
sg11
I26
sg12
I0
sba(iMatrix
MatrixElement
p3356
(dp3357
g10
I38
sg11
I27
sg12
I0
sba(iMatrix
MatrixElement
p3358
(dp3359
g10
I38
sg11
I28
sg12
I0
sba(iMatrix
MatrixElement
p3360
(dp3361
g10
I38
sg11
I29
sg12
I0
sba(iMatrix
MatrixElement
p3362
(dp3363
g10
I38
sg11
I30
sg12
I0
sba(iMatrix
MatrixElement
p3364
(dp3365
g10
I38
sg11
I31
sg12
I0
sba(iMatrix
MatrixElement
p3366
(dp3367
g10
I38
sg11
I32
sg12
I0
sba(iMatrix
MatrixElement
p3368
(dp3369
g10
I38
sg11
I33
sg12
I0
sba(iMatrix
MatrixElement
p3370
(dp3371
g10
I38
sg11
I34
sg12
I0
sba(iMatrix
MatrixElement
p3372
(dp3373
g10
I38
sg11
I35
sg12
I0
sba(iMatrix
MatrixElement
p3374
(dp3375
g10
I38
sg11
I36
sg12
I0
sba(iMatrix
MatrixElement
p3376
(dp3377
g10
I38
sg11
I37
sg12
F-1.333324999999998
sba(iMatrix
MatrixElement
p3378
(dp3379
g10
I38
sg11
I38
sg12
F4.166659375585944
sba(iMatrix
MatrixElement
p3380
(dp3381
g10
I38
sg11
I39
sg12
I0
sba(iMatrix
MatrixElement
p3382
(dp3383
g10
I38
sg11
I40
sg12
I0
sba(iMatrix
MatrixElement
p3384
(dp3385
g10
I38
sg11
I41
sg12
I0
sba(iMatrix
MatrixElement
p3386
(dp3387
g10
I38
sg11
I42
sg12
I0
sba(iMatrix
MatrixElement
p3388
(dp3389
g10
I38
sg11
I43
sg12
I0
sba(iMatrix
MatrixElement
p3390
(dp3391
g10
I38
sg11
I44
sg12
F-0.749990625117185
sbaa(lp3392
(iMatrix
MatrixElement
p3393
(dp3394
g10
I39
sg11
I1
sg12
I0
sba(iMatrix
MatrixElement
p3395
(dp3396
g10
I39
sg11
I2
sg12
I0
sba(iMatrix
MatrixElement
p3397
(dp3398
g10
I39
sg11
I3
sg12
I0
sba(iMatrix
MatrixElement
p3399
(dp3400
g10
I39
sg11
I4
sg12
I0
sba(iMatrix
MatrixElement
p3401
(dp3402
g10
I39
sg11
I5
sg12
I0
sba(iMatrix
MatrixElement
p3403
(dp3404
g10
I39
sg11
I6
sg12
I0
sba(iMatrix
MatrixElement
p3405
(dp3406
g10
I39
sg11
I7
sg12
I0
sba(iMatrix
MatrixElement
p3407
(dp3408
g10
I39
sg11
I8
sg12
I0
sba(iMatrix
MatrixElement
p3409
(dp3410
g10
I39
sg11
I9
sg12
I0
sba(iMatrix
MatrixElement
p3411
(dp3412
g10
I39
sg11
I10
sg12
I0
sba(iMatrix
MatrixElement
p3413
(dp3414
g10
I39
sg11
I11
sg12
I0
sba(iMatrix
MatrixElement
p3415
(dp3416
g10
I39
sg11
I12
sg12
I0
sba(iMatrix
MatrixElement
p3417
(dp3418
g10
I39
sg11
I13
sg12
I0
sba(iMatrix
MatrixElement
p3419
(dp3420
g10
I39
sg11
I14
sg12
I0
sba(iMatrix
MatrixElement
p3421
(dp3422
g10
I39
sg11
I15
sg12
I0
sba(iMatrix
MatrixElement
p3423
(dp3424
g10
I39
sg11
I16
sg12
I0
sba(iMatrix
MatrixElement
p3425
(dp3426
g10
I39
sg11
I17
sg12
F-0.7499906251171897
sba(iMatrix
MatrixElement
p3427
(dp3428
g10
I39
sg11
I18
sg12
I0
sba(iMatrix
MatrixElement
p3429
(dp3430
g10
I39
sg11
I19
sg12
I0
sba(iMatrix
MatrixElement
p3431
(dp3432
g10
I39
sg11
I20
sg12
I0
sba(iMatrix
MatrixElement
p3433
(dp3434
g10
I39
sg11
I21
sg12
I0
sba(iMatrix
MatrixElement
p3435
(dp3436
g10
I39
sg11
I22
sg12
I0
sba(iMatrix
MatrixElement
p3437
(dp3438
g10
I39
sg11
I23
sg12
I0
sba(iMatrix
MatrixElement
p3439
(dp3440
g10
I39
sg11
I24
sg12
I0
sba(iMatrix
MatrixElement
p3441
(dp3442
g10
I39
sg11
I25
sg12
I0
sba(iMatrix
MatrixElement
p3443
(dp3444
g10
I39
sg11
I26
sg12
I0
sba(iMatrix
MatrixElement
p3445
(dp3446
g10
I39
sg11
I27
sg12
I0
sba(iMatrix
MatrixElement
p3447
(dp3448
g10
I39
sg11
I28
sg12
I0
sba(iMatrix
MatrixElement
p3449
(dp3450
g10
I39
sg11
I29
sg12
I0
sba(iMatrix
MatrixElement
p3451
(dp3452
g10
I39
sg11
I30
sg12
I0
sba(iMatrix
MatrixElement
p3453
(dp3454
g10
I39
sg11
I31
sg12
I0
sba(iMatrix
MatrixElement
p3455
(dp3456
g10
I39
sg11
I32
sg12
I0
sba(iMatrix
MatrixElement
p3457
(dp3458
g10
I39
sg11
I33
sg12
I0
sba(iMatrix
MatrixElement
p3459
(dp3460
g10
I39
sg11
I34
sg12
I0
sba(iMatrix
MatrixElement
p3461
(dp3462
g10
I39
sg11
I35
sg12
I0
sba(iMatrix
MatrixElement
p3463
(dp3464
g10
I39
sg11
I36
sg12
I0
sba(iMatrix
MatrixElement
p3465
(dp3466
g10
I39
sg11
I37
sg12
I0
sba(iMatrix
MatrixElement
p3467
(dp3468
g10
I39
sg11
I38
sg12
I0
sba(iMatrix
MatrixElement
p3469
(dp3470
g10
I39
sg11
I39
sg12
F4.583340625117184
sba(iMatrix
MatrixElement
p3471
(dp3472
g10
I39
sg11
I40
sg12
F-1.6666750000000004
sba(iMatrix
MatrixElement
p3473
(dp3474
g10
I39
sg11
I41
sg12
I0
sba(iMatrix
MatrixElement
p3475
(dp3476
g10
I39
sg11
I42
sg12
I0
sba(iMatrix
MatrixElement
p3477
(dp3478
g10
I39
sg11
I43
sg12
F-0.49999999999999944
sba(iMatrix
MatrixElement
p3479
(dp3480
g10
I39
sg11
I44
sg12
I0
sbaa(lp3481
(iMatrix
MatrixElement
p3482
(dp3483
g10
I40
sg11
I1
sg12
I0
sba(iMatrix
MatrixElement
p3484
(dp3485
g10
I40
sg11
I2
sg12
I0
sba(iMatrix
MatrixElement
p3486
(dp3487
g10
I40
sg11
I3
sg12
I0
sba(iMatrix
MatrixElement
p3488
(dp3489
g10
I40
sg11
I4
sg12
I0
sba(iMatrix
MatrixElement
p3490
(dp3491
g10
I40
sg11
I5
sg12
I0
sba(iMatrix
MatrixElement
p3492
(dp3493
g10
I40
sg11
I6
sg12
I0
sba(iMatrix
MatrixElement
p3494
(dp3495
g10
I40
sg11
I7
sg12
I0
sba(iMatrix
MatrixElement
p3496
(dp3497
g10
I40
sg11
I8
sg12
I0
sba(iMatrix
MatrixElement
p3498
(dp3499
g10
I40
sg11
I9
sg12
I0
sba(iMatrix
MatrixElement
p3500
(dp3501
g10
I40
sg11
I10
sg12
I0
sba(iMatrix
MatrixElement
p3502
(dp3503
g10
I40
sg11
I11
sg12
I0
sba(iMatrix
MatrixElement
p3504
(dp3505
g10
I40
sg11
I12
sg12
I0
sba(iMatrix
MatrixElement
p3506
(dp3507
g10
I40
sg11
I13
sg12
I0
sba(iMatrix
MatrixElement
p3508
(dp3509
g10
I40
sg11
I14
sg12
I0
sba(iMatrix
MatrixElement
p3510
(dp3511
g10
I40
sg11
I15
sg12
I0
sba(iMatrix
MatrixElement
p3512
(dp3513
g10
I40
sg11
I16
sg12
I0
sba(iMatrix
MatrixElement
p3514
(dp3515
g10
I40
sg11
I17
sg12
I0
sba(iMatrix
MatrixElement
p3516
(dp3517
g10
I40
sg11
I18
sg12
I0
sba(iMatrix
MatrixElement
p3518
(dp3519
g10
I40
sg11
I19
sg12
F-0.7499906251171857
sba(iMatrix
MatrixElement
p3520
(dp3521
g10
I40
sg11
I20
sg12
I0
sba(iMatrix
MatrixElement
p3522
(dp3523
g10
I40
sg11
I21
sg12
I0
sba(iMatrix
MatrixElement
p3524
(dp3525
g10
I40
sg11
I22
sg12
I0
sba(iMatrix
MatrixElement
p3526
(dp3527
g10
I40
sg11
I23
sg12
I0
sba(iMatrix
MatrixElement
p3528
(dp3529
g10
I40
sg11
I24
sg12
I0
sba(iMatrix
MatrixElement
p3530
(dp3531
g10
I40
sg11
I25
sg12
I0
sba(iMatrix
MatrixElement
p3532
(dp3533
g10
I40
sg11
I26
sg12
I0
sba(iMatrix
MatrixElement
p3534
(dp3535
g10
I40
sg11
I27
sg12
I0
sba(iMatrix
MatrixElement
p3536
(dp3537
g10
I40
sg11
I28
sg12
I0
sba(iMatrix
MatrixElement
p3538
(dp3539
g10
I40
sg11
I29
sg12
I0
sba(iMatrix
MatrixElement
p3540
(dp3541
g10
I40
sg11
I30
sg12
I0
sba(iMatrix
MatrixElement
p3542
(dp3543
g10
I40
sg11
I31
sg12
I0
sba(iMatrix
MatrixElement
p3544
(dp3545
g10
I40
sg11
I32
sg12
I0
sba(iMatrix
MatrixElement
p3546
(dp3547
g10
I40
sg11
I33
sg12
I0
sba(iMatrix
MatrixElement
p3548
(dp3549
g10
I40
sg11
I34
sg12
I0
sba(iMatrix
MatrixElement
p3550
(dp3551
g10
I40
sg11
I35
sg12
I0
sba(iMatrix
MatrixElement
p3552
(dp3553
g10
I40
sg11
I36
sg12
I0
sba(iMatrix
MatrixElement
p3554
(dp3555
g10
I40
sg11
I37
sg12
I0
sba(iMatrix
MatrixElement
p3556
(dp3557
g10
I40
sg11
I38
sg12
I0
sba(iMatrix
MatrixElement
p3558
(dp3559
g10
I40
sg11
I39
sg12
F-1.6666750000000004
sba(iMatrix
MatrixElement
p3560
(dp3561
g10
I40
sg11
I40
sg12
F4.583340625117199
sba(iMatrix
MatrixElement
p3562
(dp3563
g10
I40
sg11
I41
sg12
I0
sba(iMatrix
MatrixElement
p3564
(dp3565
g10
I40
sg11
I42
sg12
F-0.5000000000000023
sba(iMatrix
MatrixElement
p3566
(dp3567
g10
I40
sg11
I43
sg12
I0
sba(iMatrix
MatrixElement
p3568
(dp3569
g10
I40
sg11
I44
sg12
I0
sbaa(lp3570
(iMatrix
MatrixElement
p3571
(dp3572
g10
I41
sg11
I1
sg12
I0
sba(iMatrix
MatrixElement
p3573
(dp3574
g10
I41
sg11
I2
sg12
I0
sba(iMatrix
MatrixElement
p3575
(dp3576
g10
I41
sg11
I3
sg12
I0
sba(iMatrix
MatrixElement
p3577
(dp3578
g10
I41
sg11
I4
sg12
I0
sba(iMatrix
MatrixElement
p3579
(dp3580
g10
I41
sg11
I5
sg12
I0
sba(iMatrix
MatrixElement
p3581
(dp3582
g10
I41
sg11
I6
sg12
I0
sba(iMatrix
MatrixElement
p3583
(dp3584
g10
I41
sg11
I7
sg12
I0
sba(iMatrix
MatrixElement
p3585
(dp3586
g10
I41
sg11
I8
sg12
I0
sba(iMatrix
MatrixElement
p3587
(dp3588
g10
I41
sg11
I9
sg12
I0
sba(iMatrix
MatrixElement
p3589
(dp3590
g10
I41
sg11
I10
sg12
I0
sba(iMatrix
MatrixElement
p3591
(dp3592
g10
I41
sg11
I11
sg12
I0
sba(iMatrix
MatrixElement
p3593
(dp3594
g10
I41
sg11
I12
sg12
I0
sba(iMatrix
MatrixElement
p3595
(dp3596
g10
I41
sg11
I13
sg12
I0
sba(iMatrix
MatrixElement
p3597
(dp3598
g10
I41
sg11
I14
sg12
I0
sba(iMatrix
MatrixElement
p3599
(dp3600
g10
I41
sg11
I15
sg12
I0
sba(iMatrix
MatrixElement
p3601
(dp3602
g10
I41
sg11
I16
sg12
I0
sba(iMatrix
MatrixElement
p3603
(dp3604
g10
I41
sg11
I17
sg12
I0
sba(iMatrix
MatrixElement
p3605
(dp3606
g10
I41
sg11
I18
sg12
I0
sba(iMatrix
MatrixElement
p3607
(dp3608
g10
I41
sg11
I19
sg12
I0
sba(iMatrix
MatrixElement
p3609
(dp3610
g10
I41
sg11
I20
sg12
I0
sba(iMatrix
MatrixElement
p3611
(dp3612
g10
I41
sg11
I21
sg12
I0
sba(iMatrix
MatrixElement
p3613
(dp3614
g10
I41
sg11
I22
sg12
I0
sba(iMatrix
MatrixElement
p3615
(dp3616
g10
I41
sg11
I23
sg12
I0
sba(iMatrix
MatrixElement
p3617
(dp3618
g10
I41
sg11
I24
sg12
I0
sba(iMatrix
MatrixElement
p3619
(dp3620
g10
I41
sg11
I25
sg12
I0
sba(iMatrix
MatrixElement
p3621
(dp3622
g10
I41
sg11
I26
sg12
I0
sba(iMatrix
MatrixElement
p3623
(dp3624
g10
I41
sg11
I27
sg12
I0
sba(iMatrix
MatrixElement
p3625
(dp3626
g10
I41
sg11
I28
sg12
I0
sba(iMatrix
MatrixElement
p3627
(dp3628
g10
I41
sg11
I29
sg12
I0
sba(iMatrix
MatrixElement
p3629
(dp3630
g10
I41
sg11
I30
sg12
I0
sba(iMatrix
MatrixElement
p3631
(dp3632
g10
I41
sg11
I31
sg12
I0
sba(iMatrix
MatrixElement
p3633
(dp3634
g10
I41
sg11
I32
sg12
I0
sba(iMatrix
MatrixElement
p3635
(dp3636
g10
I41
sg11
I33
sg12
I0
sba(iMatrix
MatrixElement
p3637
(dp3638
g10
I41
sg11
I34
sg12
I0
sba(iMatrix
MatrixElement
p3639
(dp3640
g10
I41
sg11
I35
sg12
I0
sba(iMatrix
MatrixElement
p3641
(dp3642
g10
I41
sg11
I36
sg12
F-0.4999999999999998
sba(iMatrix
MatrixElement
p3643
(dp3644
g10
I41
sg11
I37
sg12
F-0.749990625117186
sba(iMatrix
MatrixElement
p3645
(dp3646
g10
I41
sg11
I38
sg12
I0
sba(iMatrix
MatrixElement
p3647
(dp3648
g10
I41
sg11
I39
sg12
I0
sba(iMatrix
MatrixElement
p3649
(dp3650
g10
I41
sg11
I40
sg12
I0
sba(iMatrix
MatrixElement
p3651
(dp3652
g10
I41
sg11
I41
sg12
F4.583340625117182
sba(iMatrix
MatrixElement
p3653
(dp3654
g10
I41
sg11
I42
sg12
I0
sba(iMatrix
MatrixElement
p3655
(dp3656
g10
I41
sg11
I43
sg12
I0
sba(iMatrix
MatrixElement
p3657
(dp3658
g10
I41
sg11
I44
sg12
F-1.6666749999999984
sbaa(lp3659
(iMatrix
MatrixElement
p3660
(dp3661
g10
I42
sg11
I1
sg12
I0
sba(iMatrix
MatrixElement
p3662
(dp3663
g10
I42
sg11
I2
sg12
I0
sba(iMatrix
MatrixElement
p3664
(dp3665
g10
I42
sg11
I3
sg12
I0
sba(iMatrix
MatrixElement
p3666
(dp3667
g10
I42
sg11
I4
sg12
I0
sba(iMatrix
MatrixElement
p3668
(dp3669
g10
I42
sg11
I5
sg12
I0
sba(iMatrix
MatrixElement
p3670
(dp3671
g10
I42
sg11
I6
sg12
I0
sba(iMatrix
MatrixElement
p3672
(dp3673
g10
I42
sg11
I7
sg12
I0
sba(iMatrix
MatrixElement
p3674
(dp3675
g10
I42
sg11
I8
sg12
I0
sba(iMatrix
MatrixElement
p3676
(dp3677
g10
I42
sg11
I9
sg12
I0
sba(iMatrix
MatrixElement
p3678
(dp3679
g10
I42
sg11
I10
sg12
I0
sba(iMatrix
MatrixElement
p3680
(dp3681
g10
I42
sg11
I11
sg12
I0
sba(iMatrix
MatrixElement
p3682
(dp3683
g10
I42
sg11
I12
sg12
I0
sba(iMatrix
MatrixElement
p3684
(dp3685
g10
I42
sg11
I13
sg12
I0
sba(iMatrix
MatrixElement
p3686
(dp3687
g10
I42
sg11
I14
sg12
I0
sba(iMatrix
MatrixElement
p3688
(dp3689
g10
I42
sg11
I15
sg12
I0
sba(iMatrix
MatrixElement
p3690
(dp3691
g10
I42
sg11
I16
sg12
I0
sba(iMatrix
MatrixElement
p3692
(dp3693
g10
I42
sg11
I17
sg12
I0
sba(iMatrix
MatrixElement
p3694
(dp3695
g10
I42
sg11
I18
sg12
I0
sba(iMatrix
MatrixElement
p3696
(dp3697
g10
I42
sg11
I19
sg12
I0
sba(iMatrix
MatrixElement
p3698
(dp3699
g10
I42
sg11
I20
sg12
I0
sba(iMatrix
MatrixElement
p3700
(dp3701
g10
I42
sg11
I21
sg12
I0
sba(iMatrix
MatrixElement
p3702
(dp3703
g10
I42
sg11
I22
sg12
I0
sba(iMatrix
MatrixElement
p3704
(dp3705
g10
I42
sg11
I23
sg12
I0
sba(iMatrix
MatrixElement
p3706
(dp3707
g10
I42
sg11
I24
sg12
I0
sba(iMatrix
MatrixElement
p3708
(dp3709
g10
I42
sg11
I25
sg12
I0
sba(iMatrix
MatrixElement
p3710
(dp3711
g10
I42
sg11
I26
sg12
I0
sba(iMatrix
MatrixElement
p3712
(dp3713
g10
I42
sg11
I27
sg12
I0
sba(iMatrix
MatrixElement
p3714
(dp3715
g10
I42
sg11
I28
sg12
I0
sba(iMatrix
MatrixElement
p3716
(dp3717
g10
I42
sg11
I29
sg12
I0
sba(iMatrix
MatrixElement
p3718
(dp3719
g10
I42
sg11
I30
sg12
I0
sba(iMatrix
MatrixElement
p3720
(dp3721
g10
I42
sg11
I31
sg12
F-0.7499906251171872
sba(iMatrix
MatrixElement
p3722
(dp3723
g10
I42
sg11
I32
sg12
I0
sba(iMatrix
MatrixElement
p3724
(dp3725
g10
I42
sg11
I33
sg12
I0
sba(iMatrix
MatrixElement
p3726
(dp3727
g10
I42
sg11
I34
sg12
I0
sba(iMatrix
MatrixElement
p3728
(dp3729
g10
I42
sg11
I35
sg12
I0
sba(iMatrix
MatrixElement
p3730
(dp3731
g10
I42
sg11
I36
sg12
I0
sba(iMatrix
MatrixElement
p3732
(dp3733
g10
I42
sg11
I37
sg12
I0
sba(iMatrix
MatrixElement
p3734
(dp3735
g10
I42
sg11
I38
sg12
I0
sba(iMatrix
MatrixElement
p3736
(dp3737
g10
I42
sg11
I39
sg12
I0
sba(iMatrix
MatrixElement
p3738
(dp3739
g10
I42
sg11
I40
sg12
F-0.5000000000000023
sba(iMatrix
MatrixElement
p3740
(dp3741
g10
I42
sg11
I41
sg12
I0
sba(iMatrix
MatrixElement
p3742
(dp3743
g10
I42
sg11
I42
sg12
F4.5833406251171995
sba(iMatrix
MatrixElement
p3744
(dp3745
g10
I42
sg11
I43
sg12
F-1.6666750000000037
sba(iMatrix
MatrixElement
p3746
(dp3747
g10
I42
sg11
I44
sg12
I0
sbaa(lp3748
(iMatrix
MatrixElement
p3749
(dp3750
g10
I43
sg11
I1
sg12
I0
sba(iMatrix
MatrixElement
p3751
(dp3752
g10
I43
sg11
I2
sg12
I0
sba(iMatrix
MatrixElement
p3753
(dp3754
g10
I43
sg11
I3
sg12
I0
sba(iMatrix
MatrixElement
p3755
(dp3756
g10
I43
sg11
I4
sg12
I0
sba(iMatrix
MatrixElement
p3757
(dp3758
g10
I43
sg11
I5
sg12
I0
sba(iMatrix
MatrixElement
p3759
(dp3760
g10
I43
sg11
I6
sg12
I0
sba(iMatrix
MatrixElement
p3761
(dp3762
g10
I43
sg11
I7
sg12
I0
sba(iMatrix
MatrixElement
p3763
(dp3764
g10
I43
sg11
I8
sg12
I0
sba(iMatrix
MatrixElement
p3765
(dp3766
g10
I43
sg11
I9
sg12
I0
sba(iMatrix
MatrixElement
p3767
(dp3768
g10
I43
sg11
I10
sg12
I0
sba(iMatrix
MatrixElement
p3769
(dp3770
g10
I43
sg11
I11
sg12
I0
sba(iMatrix
MatrixElement
p3771
(dp3772
g10
I43
sg11
I12
sg12
I0
sba(iMatrix
MatrixElement
p3773
(dp3774
g10
I43
sg11
I13
sg12
I0
sba(iMatrix
MatrixElement
p3775
(dp3776
g10
I43
sg11
I14
sg12
I0
sba(iMatrix
MatrixElement
p3777
(dp3778
g10
I43
sg11
I15
sg12
I0
sba(iMatrix
MatrixElement
p3779
(dp3780
g10
I43
sg11
I16
sg12
I0
sba(iMatrix
MatrixElement
p3781
(dp3782
g10
I43
sg11
I17
sg12
I0
sba(iMatrix
MatrixElement
p3783
(dp3784
g10
I43
sg11
I18
sg12
I0
sba(iMatrix
MatrixElement
p3785
(dp3786
g10
I43
sg11
I19
sg12
I0
sba(iMatrix
MatrixElement
p3787
(dp3788
g10
I43
sg11
I20
sg12
I0
sba(iMatrix
MatrixElement
p3789
(dp3790
g10
I43
sg11
I21
sg12
I0
sba(iMatrix
MatrixElement
p3791
(dp3792
g10
I43
sg11
I22
sg12
I0
sba(iMatrix
MatrixElement
p3793
(dp3794
g10
I43
sg11
I23
sg12
I0
sba(iMatrix
MatrixElement
p3795
(dp3796
g10
I43
sg11
I24
sg12
I0
sba(iMatrix
MatrixElement
p3797
(dp3798
g10
I43
sg11
I25
sg12
I0
sba(iMatrix
MatrixElement
p3799
(dp3800
g10
I43
sg11
I26
sg12
I0
sba(iMatrix
MatrixElement
p3801
(dp3802
g10
I43
sg11
I27
sg12
I0
sba(iMatrix
MatrixElement
p3803
(dp3804
g10
I43
sg11
I28
sg12
I0
sba(iMatrix
MatrixElement
p3805
(dp3806
g10
I43
sg11
I29
sg12
I0
sba(iMatrix
MatrixElement
p3807
(dp3808
g10
I43
sg11
I30
sg12
I0
sba(iMatrix
MatrixElement
p3809
(dp3810
g10
I43
sg11
I31
sg12
I0
sba(iMatrix
MatrixElement
p3811
(dp3812
g10
I43
sg11
I32
sg12
F-0.7499906251171876
sba(iMatrix
MatrixElement
p3813
(dp3814
g10
I43
sg11
I33
sg12
I0
sba(iMatrix
MatrixElement
p3815
(dp3816
g10
I43
sg11
I34
sg12
I0
sba(iMatrix
MatrixElement
p3817
(dp3818
g10
I43
sg11
I35
sg12
I0
sba(iMatrix
MatrixElement
p3819
(dp3820
g10
I43
sg11
I36
sg12
I0
sba(iMatrix
MatrixElement
p3821
(dp3822
g10
I43
sg11
I37
sg12
I0
sba(iMatrix
MatrixElement
p3823
(dp3824
g10
I43
sg11
I38
sg12
I0
sba(iMatrix
MatrixElement
p3825
(dp3826
g10
I43
sg11
I39
sg12
F-0.49999999999999944
sba(iMatrix
MatrixElement
p3827
(dp3828
g10
I43
sg11
I40
sg12
I0
sba(iMatrix
MatrixElement
p3829
(dp3830
g10
I43
sg11
I41
sg12
I0
sba(iMatrix
MatrixElement
p3831
(dp3832
g10
I43
sg11
I42
sg12
F-1.6666750000000037
sba(iMatrix
MatrixElement
p3833
(dp3834
g10
I43
sg11
I43
sg12
F4.583340625117191
sba(iMatrix
MatrixElement
p3835
(dp3836
g10
I43
sg11
I44
sg12
I0
sbaa(lp3837
(iMatrix
MatrixElement
p3838
(dp3839
g10
I44
sg11
I1
sg12
I0
sba(iMatrix
MatrixElement
p3840
(dp3841
g10
I44
sg11
I2
sg12
I0
sba(iMatrix
MatrixElement
p3842
(dp3843
g10
I44
sg11
I3
sg12
I0
sba(iMatrix
MatrixElement
p3844
(dp3845
g10
I44
sg11
I4
sg12
I0
sba(iMatrix
MatrixElement
p3846
(dp3847
g10
I44
sg11
I5
sg12
I0
sba(iMatrix
MatrixElement
p3848
(dp3849
g10
I44
sg11
I6
sg12
I0
sba(iMatrix
MatrixElement
p3850
(dp3851
g10
I44
sg11
I7
sg12
I0
sba(iMatrix
MatrixElement
p3852
(dp3853
g10
I44
sg11
I8
sg12
I0
sba(iMatrix
MatrixElement
p3854
(dp3855
g10
I44
sg11
I9
sg12
I0
sba(iMatrix
MatrixElement
p3856
(dp3857
g10
I44
sg11
I10
sg12
I0
sba(iMatrix
MatrixElement
p3858
(dp3859
g10
I44
sg11
I11
sg12
I0
sba(iMatrix
MatrixElement
p3860
(dp3861
g10
I44
sg11
I12
sg12
I0
sba(iMatrix
MatrixElement
p3862
(dp3863
g10
I44
sg11
I13
sg12
I0
sba(iMatrix
MatrixElement
p3864
(dp3865
g10
I44
sg11
I14
sg12
I0
sba(iMatrix
MatrixElement
p3866
(dp3867
g10
I44
sg11
I15
sg12
I0
sba(iMatrix
MatrixElement
p3868
(dp3869
g10
I44
sg11
I16
sg12
I0
sba(iMatrix
MatrixElement
p3870
(dp3871
g10
I44
sg11
I17
sg12
I0
sba(iMatrix
MatrixElement
p3872
(dp3873
g10
I44
sg11
I18
sg12
I0
sba(iMatrix
MatrixElement
p3874
(dp3875
g10
I44
sg11
I19
sg12
I0
sba(iMatrix
MatrixElement
p3876
(dp3877
g10
I44
sg11
I20
sg12
I0
sba(iMatrix
MatrixElement
p3878
(dp3879
g10
I44
sg11
I21
sg12
I0
sba(iMatrix
MatrixElement
p3880
(dp3881
g10
I44
sg11
I22
sg12
I0
sba(iMatrix
MatrixElement
p3882
(dp3883
g10
I44
sg11
I23
sg12
I0
sba(iMatrix
MatrixElement
p3884
(dp3885
g10
I44
sg11
I24
sg12
I0
sba(iMatrix
MatrixElement
p3886
(dp3887
g10
I44
sg11
I25
sg12
I0
sba(iMatrix
MatrixElement
p3888
(dp3889
g10
I44
sg11
I26
sg12
I0
sba(iMatrix
MatrixElement
p3890
(dp3891
g10
I44
sg11
I27
sg12
I0
sba(iMatrix
MatrixElement
p3892
(dp3893
g10
I44
sg11
I28
sg12
I0
sba(iMatrix
MatrixElement
p3894
(dp3895
g10
I44
sg11
I29
sg12
I0
sba(iMatrix
MatrixElement
p3896
(dp3897
g10
I44
sg11
I30
sg12
I0
sba(iMatrix
MatrixElement
p3898
(dp3899
g10
I44
sg11
I31
sg12
I0
sba(iMatrix
MatrixElement
p3900
(dp3901
g10
I44
sg11
I32
sg12
I0
sba(iMatrix
MatrixElement
p3902
(dp3903
g10
I44
sg11
I33
sg12
I0
sba(iMatrix
MatrixElement
p3904
(dp3905
g10
I44
sg11
I34
sg12
I0
sba(iMatrix
MatrixElement
p3906
(dp3907
g10
I44
sg11
I35
sg12
F-0.5000000000000004
sba(iMatrix
MatrixElement
p3908
(dp3909
g10
I44
sg11
I36
sg12
I0
sba(iMatrix
MatrixElement
p3910
(dp3911
g10
I44
sg11
I37
sg12
I0
sba(iMatrix
MatrixElement
p3912
(dp3913
g10
I44
sg11
I38
sg12
F-0.749990625117185
sba(iMatrix
MatrixElement
p3914
(dp3915
g10
I44
sg11
I39
sg12
I0
sba(iMatrix
MatrixElement
p3916
(dp3917
g10
I44
sg11
I40
sg12
I0
sba(iMatrix
MatrixElement
p3918
(dp3919
g10
I44
sg11
I41
sg12
F-1.6666749999999984
sba(iMatrix
MatrixElement
p3920
(dp3921
g10
I44
sg11
I42
sg12
I0
sba(iMatrix
MatrixElement
p3922
(dp3923
g10
I44
sg11
I43
sg12
I0
sba(iMatrix
MatrixElement
p3924
(dp3925
g10
I44
sg11
I44
sg12
F4.5833406251171835
sbaasS'columns'
p3926
I44
sba(iMatrix
Matrix
p3927
(dp3928
g3
I44
sg4
(lp3929
(lp3930
a(lp3931
(iMatrix
MatrixElement
p3932
(dp3933
g10
I1
sg11
I1
sg12
I0
sbaa(lp3934
(iMatrix
MatrixElement
p3935
(dp3936
g10
I2
sg11
I1
sg12
I0
sbaa(lp3937
(iMatrix
MatrixElement
p3938
(dp3939
g10
I3
sg11
I1
sg12
I0
sbaa(lp3940
(iMatrix
MatrixElement
p3941
(dp3942
g10
I4
sg11
I1
sg12
I0
sbaa(lp3943
(iMatrix
MatrixElement
p3944
(dp3945
g10
I5
sg11
I1
sg12
I0
sbaa(lp3946
(iMatrix
MatrixElement
p3947
(dp3948
g10
I6
sg11
I1
sg12
I0
sbaa(lp3949
(iMatrix
MatrixElement
p3950
(dp3951
g10
I7
sg11
I1
sg12
I0
sbaa(lp3952
(iMatrix
MatrixElement
p3953
(dp3954
g10
I8
sg11
I1
sg12
I0
sbaa(lp3955
(iMatrix
MatrixElement
p3956
(dp3957
g10
I9
sg11
I1
sg12
I0
sbaa(lp3958
(iMatrix
MatrixElement
p3959
(dp3960
g10
I10
sg11
I1
sg12
I0
sbaa(lp3961
(iMatrix
MatrixElement
p3962
(dp3963
g10
I11
sg11
I1
sg12
I0
sbaa(lp3964
(iMatrix
MatrixElement
p3965
(dp3966
g10
I12
sg11
I1
sg12
I0
sbaa(lp3967
(iMatrix
MatrixElement
p3968
(dp3969
g10
I13
sg11
I1
sg12
I0
sbaa(lp3970
(iMatrix
MatrixElement
p3971
(dp3972
g10
I14
sg11
I1
sg12
I0
sbaa(lp3973
(iMatrix
MatrixElement
p3974
(dp3975
g10
I15
sg11
I1
sg12
I0
sbaa(lp3976
(iMatrix
MatrixElement
p3977
(dp3978
g10
I16
sg11
I1
sg12
I0
sbaa(lp3979
(iMatrix
MatrixElement
p3980
(dp3981
g10
I17
sg11
I1
sg12
I0
sbaa(lp3982
(iMatrix
MatrixElement
p3983
(dp3984
g10
I18
sg11
I1
sg12
I0
sbaa(lp3985
(iMatrix
MatrixElement
p3986
(dp3987
g10
I19
sg11
I1
sg12
I0
sbaa(lp3988
(iMatrix
MatrixElement
p3989
(dp3990
g10
I20
sg11
I1
sg12
I0
sbaa(lp3991
(iMatrix
MatrixElement
p3992
(dp3993
g10
I21
sg11
I1
sg12
F7.499906251171867
sbaa(lp3994
(iMatrix
MatrixElement
p3995
(dp3996
g10
I22
sg11
I1
sg12
F7.499906251171888
sbaa(lp3997
(iMatrix
MatrixElement
p3998
(dp3999
g10
I23
sg11
I1
sg12
F7.499906251171886
sbaa(lp4000
(iMatrix
MatrixElement
p4001
(dp4002
g10
I24
sg11
I1
sg12
I0
sbaa(lp4003
(iMatrix
MatrixElement
p4004
(dp4005
g10
I25
sg11
I1
sg12
I0
sbaa(lp4006
(iMatrix
MatrixElement
p4007
(dp4008
g10
I26
sg11
I1
sg12
F7.499906251171867
sbaa(lp4009
(iMatrix
MatrixElement
p4010
(dp4011
g10
I27
sg11
I1
sg12
F7.499906251171864
sbaa(lp4012
(iMatrix
MatrixElement
p4013
(dp4014
g10
I28
sg11
I1
sg12
F7.499906251171873
sbaa(lp4015
(iMatrix
MatrixElement
p4016
(dp4017
g10
I29
sg11
I1
sg12
F7.499906251171864
sbaa(lp4018
(iMatrix
MatrixElement
p4019
(dp4020
g10
I30
sg11
I1
sg12
F7.499906251171846
sbaa(lp4021
(iMatrix
MatrixElement
p4022
(dp4023
g10
I31
sg11
I1
sg12
I0
sbaa(lp4024
(iMatrix
MatrixElement
p4025
(dp4026
g10
I32
sg11
I1
sg12
I0
sbaa(lp4027
(iMatrix
MatrixElement
p4028
(dp4029
g10
I33
sg11
I1
sg12
F7.499906251171846
sbaa(lp4030
(iMatrix
MatrixElement
p4031
(dp4032
g10
I34
sg11
I1
sg12
F7.499906251171867
sbaa(lp4033
(iMatrix
MatrixElement
p4034
(dp4035
g10
I35
sg11
I1
sg12
I0
sbaa(lp4036
(iMatrix
MatrixElement
p4037
(dp4038
g10
I36
sg11
I1
sg12
F16.666749999999997
sbaa(lp4039
(iMatrix
MatrixElement
p4040
(dp4041
g10
I37
sg11
I1
sg12
I0
sbaa(lp4042
(iMatrix
MatrixElement
p4043
(dp4044
g10
I38
sg11
I1
sg12
I0
sbaa(lp4045
(iMatrix
MatrixElement
p4046
(dp4047
g10
I39
sg11
I1
sg12
I0
sbaa(lp4048
(iMatrix
MatrixElement
p4049
(dp4050
g10
I40
sg11
I1
sg12
F16.6667500000001
sbaa(lp4051
(iMatrix
MatrixElement
p4052
(dp4053
g10
I41
sg11
I1
sg12
F16.666749999999983
sbaa(lp4054
(iMatrix
MatrixElement
p4055
(dp4056
g10
I42
sg11
I1
sg12
F16.666750000000064
sbaa(lp4057
(iMatrix
MatrixElement
p4058
(dp4059
g10
I43
sg11
I1
sg12
I0
sbaa(lp4060
(iMatrix
MatrixElement
p4061
(dp4062
g10
I44
sg11
I1
sg12
I0
sbaasg3926
I1
sba(dp4063
I1
(iMeshStructure
Node
p4064
(dp4065
S'y'
p4066
F0.0
sS'x'
p4067
F0.0
sS'number'
p4068
I1
sS'voltage'
p4069
F0.0
sbsI2
(iMeshStructure
Node
p4070
(dp4071
g4066
F0.0
sg4067
F0.02
sg4068
I2
sg4069
F0.0
sbsI3
(iMeshStructure
Node
p4072
(dp4073
g4066
F0.0
sg4067
F0.04
sg4068
I3
sg4069
F0.0
sbsI4
(iMeshStructure
Node
p4074
(dp4075
g4066
F0.0
sg4067
F0.06
sg4068
I4
sg4069
F0.0
sbsI5
(iMeshStructure
Node
p4076
(dp4077
g4066
F0.0
sg4067
F0.08
sg4068
I5
sg4069
F0.0
sbsI6
(iMeshStructure
Node
p4078
(dp4079
g4066
F0.0
sg4067
F0.1
sg4068
I6
sg4069
F0.0
sbsI7
(iMeshStructure
Node
p4080
(dp4081
g4066
F0.0
sg4067
F0.12
sg4068
I7
sg4069
F0.0
sbsI8
(iMeshStructure
Node
p4082
(dp4083
g4066
F0.0
sg4067
F0.14
sg4068
I8
sg4069
F0.0
sbsI9
(iMeshStructure
Node
p4084
(dp4085
g4066
F0.0
sg4067
F0.16
sg4068
I9
sg4069
F0.0
sbsI10
(iMeshStructure
Node
p4086
(dp4087
g4066
F0.0
sg4067
F0.18
sg4068
I10
sg4069
F0.0
sbsI11
(iMeshStructure
Node
p4088
(dp4089
g4066
F0.0
sg4067
F0.2
sg4068
I11
sg4069
F0.0
sbsI12
(iMeshStructure
Node
p4090
(dp4091
g4066
F0.026667
sg4067
F0.0
sg4068
I12
sg4069
F0.0
sbsI13
(iMeshStructure
Node
p4092
(dp4093
g4066
F0.026667
sg4067
F0.02
sg4068
I13
sg4069
F0.0
sbsI14
(iMeshStructure
Node
p4094
(dp4095
g4066
F0.026667
sg4067
F0.04
sg4068
I14
sg4069
F0.0
sbsI15
(iMeshStructure
Node
p4096
(dp4097
g4066
F0.026667
sg4067
F0.06
sg4068
I15
sg4069
F0.0
sbsI16
(iMeshStructure
Node
p4098
(dp4099
g4066
F0.026667
sg4067
F0.08
sg4068
I16
sg4069
F0.0
sbsI17
(iMeshStructure
Node
p4100
(dp4101
g4066
F0.026667
sg4067
F0.1
sg4068
I17
sg4069
F0.0
sbsI18
(iMeshStructure
Node
p4102
(dp4103
g4066
F0.026667
sg4067
F0.12
sg4068
I18
sg4069
F0.0
sbsI19
(iMeshStructure
Node
p4104
(dp4105
g4066
F0.026667
sg4067
F0.14
sg4068
I19
sg4069
F0.0
sbsI20
(iMeshStructure
Node
p4106
(dp4107
g4066
F0.026667
sg4067
F0.16
sg4068
I20
sg4069
F0.0
sbsI21
(iMeshStructure
Node
p4108
(dp4109
g4066
F0.026667
sg4067
F0.18
sg4068
I21
sg4069
F0.0
sbsI22
(iMeshStructure
Node
p4110
(dp4111
g4066
F0.026667
sg4067
F0.2
sg4068
I22
sg4069
F0.0
sbsI23
(iMeshStructure
Node
p4112
(dp4113
g4066
F0.053333
sg4067
F0.0
sg4068
I23
sg4069
F0.0
sbsI24
(iMeshStructure
Node
p4114
(dp4115
g4066
F0.053333
sg4067
F0.02
sg4068
I24
sg4069
F0.0
sbsI25
(iMeshStructure
Node
p4116
(dp4117
g4066
F0.053333
sg4067
F0.04
sg4068
I25
sg4069
F0.0
sbsI26
(iMeshStructure
Node
p4118
(dp4119
g4066
F0.053333
sg4067
F0.06
sg4068
I26
sg4069
F0.0
sbsI27
(iMeshStructure
Node
p4120
(dp4121
g4066
F0.053333
sg4067
F0.08
sg4068
I27
sg4069
F0.0
sbsI28
(iMeshStructure
Node
p4122
(dp4123
g4066
F0.053333
sg4067
F0.1
sg4068
I28
sg4069
F0.0
sbsI29
(iMeshStructure
Node
p4124
(dp4125
g4066
F0.053333
sg4067
F0.12
sg4068
I29
sg4069
F0.0
sbsI30
(iMeshStructure
Node
p4126
(dp4127
g4066
F0.053333
sg4067
F0.14
sg4068
I30
sg4069
F0.0
sbsI31
(iMeshStructure
Node
p4128
(dp4129
g4066
F0.053333
sg4067
F0.16
sg4068
I31
sg4069
F0.0
sbsI32
(iMeshStructure
Node
p4130
(dp4131
g4066
F0.053333
sg4067
F0.18
sg4068
I32
sg4069
F0.0
sbsI33
(iMeshStructure
Node
p4132
(dp4133
g4066
F0.053333
sg4067
F0.2
sg4068
I33
sg4069
F0.0
sbsI34
(iMeshStructure
Node
p4134
(dp4135
g4066
F0.08
sg4067
F0.0
sg4068
I34
sg4069
F0.0
sbsI35
(iMeshStructure
Node
p4136
(dp4137
g4066
F0.08
sg4067
F0.02
sg4068
I35
sg4069
F0.0
sbsI36
(iMeshStructure
Node
p4138
(dp4139
g4066
F0.08
sg4067
F0.04
sg4068
I36
sg4069
F0.0
sbsI37
(iMeshStructure
Node
p4140
(dp4141
g4066
F0.08
sg4067
F0.06
sg4068
I37
sg4069
F10.0
sbsI38
(iMeshStructure
Node
p4142
(dp4143
g4066
F0.08
sg4067
F0.08
sg4068
I38
sg4069
F10.0
sbsI39
(iMeshStructure
Node
p4144
(dp4145
g4066
F0.08
sg4067
F0.1
sg4068
I39
sg4069
F10.0
sbsI40
(iMeshStructure
Node
p4146
(dp4147
g4066
F0.08
sg4067
F0.12
sg4068
I40
sg4069
F10.0
sbsI41
(iMeshStructure
Node
p4148
(dp4149
g4066
F0.08
sg4067
F0.14
sg4068
I41
sg4069
F10.0
sbsI42
(iMeshStructure
Node
p4150
(dp4151
g4066
F0.08
sg4067
F0.16
sg4068
I42
sg4069
F0.0
sbsI43
(iMeshStructure
Node
p4152
(dp4153
g4066
F0.08
sg4067
F0.18
sg4068
I43
sg4069
F0.0
sbsI44
(iMeshStructure
Node
p4154
(dp4155
g4066
F0.08
sg4067
F0.2
sg4068
I44
sg4069
F0.0
sbsI45
(iMeshStructure
Node
p4156
(dp4157
g4066
F0.12
sg4067
F0.0
sg4068
I45
sg4069
F0.0
sbsI46
(iMeshStructure
Node
p4158
(dp4159
g4066
F0.12
sg4067
F0.02
sg4068
I46
sg4069
F0.0
sbsI47
(iMeshStructure
Node
p4160
(dp4161
g4066
F0.12
sg4067
F0.04
sg4068
I47
sg4069
F0.0
sbsI48
(iMeshStructure
Node
p4162
(dp4163
g4066
F0.12
sg4067
F0.06
sg4068
I48
sg4069
F10.0
sbsI49
(iMeshStructure
Node
p4164
(dp4165
g4066
F0.12
sg4067
F0.08
sg4068
I49
sg4069
F10.0
sbsI50
(iMeshStructure
Node
p4166
(dp4167
g4066
F0.12
sg4067
F0.1
sg4068
I50
sg4069
F10.0
sbsI51
(iMeshStructure
Node
p4168
(dp4169
g4066
F0.12
sg4067
F0.12
sg4068
I51
sg4069
F10.0
sbsI52
(iMeshStructure
Node
p4170
(dp4171
g4066
F0.12
sg4067
F0.14
sg4068
I52
sg4069
F10.0
sbsI53
(iMeshStructure
Node
p4172
(dp4173
g4066
F0.12
sg4067
F0.16
sg4068
I53
sg4069
F0.0
sbsI54
(iMeshStructure
Node
p4174
(dp4175
g4066
F0.12
sg4067
F0.18
sg4068
I54
sg4069
F0.0
sbsI55
(iMeshStructure
Node
p4176
(dp4177
g4066
F0.12
sg4067
F0.2
sg4068
I55
sg4069
F0.0
sbsI56
(iMeshStructure
Node
p4178
(dp4179
g4066
F0.146667
sg4067
F0.0
sg4068
I56
sg4069
F0.0
sbsI57
(iMeshStructure
Node
p4180
(dp4181
g4066
F0.146667
sg4067
F0.02
sg4068
I57
sg4069
F0.0
sbsI58
(iMeshStructure
Node
p4182
(dp4183
g4066
F0.146667
sg4067
F0.04
sg4068
I58
sg4069
F0.0
sbsI59
(iMeshStructure
Node
p4184
(dp4185
g4066
F0.146667
sg4067
F0.06
sg4068
I59
sg4069
F0.0
sbsI60
(iMeshStructure
Node
p4186
(dp4187
g4066
F0.146667
sg4067
F0.08
sg4068
I60
sg4069
F0.0
sbsI61
(iMeshStructure
Node
p4188
(dp4189
g4066
F0.146667
sg4067
F0.1
sg4068
I61
sg4069
F0.0
sbsI62
(iMeshStructure
Node
p4190
(dp4191
g4066
F0.146667
sg4067
F0.12
sg4068
I62
sg4069
F0.0
sbsI63
(iMeshStructure
Node
p4192
(dp4193
g4066
F0.146667
sg4067
F0.14
sg4068
I63
sg4069
F0.0
sbsI64
(iMeshStructure
Node
p4194
(dp4195
g4066
F0.146667
sg4067
F0.16
sg4068
I64
sg4069
F0.0
sbsI65
(iMeshStructure
Node
p4196
(dp4197
g4066
F0.146667
sg4067
F0.18
sg4068
I65
sg4069
F0.0
sbsI66
(iMeshStructure
Node
p4198
(dp4199
g4066
F0.146667
sg4067
F0.2
sg4068
I66
sg4069
F0.0
sbsI67
(iMeshStructure
Node
p4200
(dp4201
g4066
F0.173333
sg4067
F0.0
sg4068
I67
sg4069
F0.0
sbsI68
(iMeshStructure
Node
p4202
(dp4203
g4066
F0.173333
sg4067
F0.02
sg4068
I68
sg4069
F0.0
sbsI69
(iMeshStructure
Node
p4204
(dp4205
g4066
F0.173333
sg4067
F0.04
sg4068
I69
sg4069
F0.0
sbsI70
(iMeshStructure
Node
p4206
(dp4207
g4066
F0.173333
sg4067
F0.06
sg4068
I70
sg4069
F0.0
sbsI71
(iMeshStructure
Node
p4208
(dp4209
g4066
F0.173333
sg4067
F0.08
sg4068
I71
sg4069
F0.0
sbsI72
(iMeshStructure
Node
p4210
(dp4211
g4066
F0.173333
sg4067
F0.1
sg4068
I72
sg4069
F0.0
sbsI73
(iMeshStructure
Node
p4212
(dp4213
g4066
F0.173333
sg4067
F0.12
sg4068
I73
sg4069
F0.0
sbsI74
(iMeshStructure
Node
p4214
(dp4215
g4066
F0.173333
sg4067
F0.14
sg4068
I74
sg4069
F0.0
sbsI75
(iMeshStructure
Node
p4216
(dp4217
g4066
F0.173333
sg4067
F0.16
sg4068
I75
sg4069
F0.0
sbsI76
(iMeshStructure
Node
p4218
(dp4219
g4066
F0.173333
sg4067
F0.18
sg4068
I76
sg4069
F0.0
sbsI77
(iMeshStructure
Node
p4220
(dp4221
g4066
F0.173333
sg4067
F0.2
sg4068
I77
sg4069
F0.0
sbsI78
(iMeshStructure
Node
p4222
(dp4223
g4066
F0.2
sg4067
F0.0
sg4068
I78
sg4069
F0.0
sbsI79
(iMeshStructure
Node
p4224
(dp4225
g4066
F0.2
sg4067
F0.02
sg4068
I79
sg4069
F0.0
sbsI80
(iMeshStructure
Node
p4226
(dp4227
g4066
F0.2
sg4067
F0.04
sg4068
I80
sg4069
F0.0
sbsI81
(iMeshStructure
Node
p4228
(dp4229
g4066
F0.2
sg4067
F0.06
sg4068
I81
sg4069
F0.0
sbsI82
(iMeshStructure
Node
p4230
(dp4231
g4066
F0.2
sg4067
F0.08
sg4068
I82
sg4069
F0.0
sbsI83
(iMeshStructure
Node
p4232
(dp4233
g4066
F0.2
sg4067
F0.1
sg4068
I83
sg4069
F0.0
sbsI84
(iMeshStructure
Node
p4234
(dp4235
g4066
F0.2
sg4067
F0.12
sg4068
I84
sg4069
F0.0
sbsI85
(iMeshStructure
Node
p4236
(dp4237
g4066
F0.2
sg4067
F0.14
sg4068
I85
sg4069
F0.0
sbsI86
(iMeshStructure
Node
p4238
(dp4239
g4066
F0.2
sg4067
F0.16
sg4068
I86
sg4069
F0.0
sbsI87
(iMeshStructure
Node
p4240
(dp4241
g4066
F0.2
sg4067
F0.18
sg4068
I87
sg4069
F0.0
sbsI88
(iMeshStructure
Node
p4242
(dp4243
g4066
F0.2
sg4067
F0.2
sg4068
I88
sg4069
F0.0
sbsa(lp4244
I1
aI2
aI3
aI4
aI5
aI6
aI7
aI8
aI9
aI10
aI11
aI12
aI22
aI23
aI33
aI34
aI37
aI38
aI39
aI40
aI41
aI44
aI45
aI48
aI49
aI50
aI51
aI52
aI55
aI56
aI66
aI67
aI77
aI78
aI79
aI80
aI81
aI82
aI83
aI84
aI85
aI86
aI87
aI88
aa(lp4245
I76
aI75
aI74
aI13
aI73
aI14
aI72
aI15
aI71
aI16
aI70
aI17
aI69
aI18
aI68
aI19
aI65
aI20
aI64
aI21
aI63
aI62
aI61
aI24
aI25
aI26
aI27
aI28
aI29
aI30
aI31
aI32
aI60
aI59
aI35
aI36
aI58
aI57
aI54
aI53
aI47
aI42
aI43
aI46
aI45
aI44
aI41
aI48
aI52
aI40
aI39
aI55
aI56
aI38
aI37
aI34
aI49
aI33
aI50
aI23
aI51
aI22
aI11
aI10
aI9
aI66
aI67
aI8
aI7
aI6
aI5
aI4
aI3
aI12
aI2
aI1
aI77
aI78
aI79
aI80
aI81
aI82
aI83
aI84
aI85
aI86
aI87
aI88
aa.