(lp0
(iMatrix
Matrix
p1
(dp2
S'rows'
p3
I144
sS'elements'
p4
(lp5
(lp6
a(lp7
(iMatrix
MatrixElement
p8
(dp9
S'i'
p10
I1
sS'j'
p11
I1
sS'value'
p12
F4.16666666666663
sba(iMatrix
MatrixElement
p13
(dp14
g10
I1
sg11
I2
sg12
F-1.3333333333333313
sbaNaNaNaNaNaNaNaNaNaNaNaNaNaNaNaNaNaNaNaNaNaNaNaNaNaNa(iMatrix
MatrixElement
p15
(dp16
g10
I1
sg11
I29
sg12
F-0.750000000000006
sbaNaNaNaNaNaNaNaNaNaNaNaNaNaNaNaNaNaNaNaNaNaNaNaNaNaNaNaNaNaNaNaNaNaNaNaNaNaNaNaNaNaNaNaNaNaNaNaNaNaNaNaNaNaNaNaNaNaNaNaNaNaNaNaNaNaNaNaNaNaNaNaNaNaNaNaNaNaNaNaNaNaNaNaNaNaNaNaNaNaNaNaNaNaNaNaNaNaNaNaNaNaNaNaNaNaNaNaNaNaNaNaNaNaNaNaa(lp17
(iMatrix
MatrixElement
p18
(dp19
g10
I2
sg11
I1
sg12
F-1.3333333333333313
sba(iMatrix
MatrixElement
p20
(dp21
g10
I2
sg11
I2
sg12
F4.166666666666677
sba(iMatrix
MatrixElement
p22
(dp23
g10
I2
sg11
I3
sg12
F-1.3333333333333415
sbaNaNaNaNaNaNaNaNaNaNaNaNaNaNaNaNaNaNaNaNaNaNaNaNaNaNaNa(iMatrix
MatrixElement
p24
(dp25
g10
I2
sg11
I31
sg12
F-0.7500000000000169
sbaNaNaNaNaNaNaNaNaNaNaNaNaNaNaNaNaNaNaNaNaNaNaNaNaNaNaNaNaNaNaNaNaNaNaNaNaNaNaNaNaNaNaNaNaNaNaNaNaNaNaNaNaNaNaNaNaNaNaNaNaNaNaNaNaNaNaNaNaNaNaNaNaNaNaNaNaNaNaNaNaNaNaNaNaNaNaNaNaNaNaNaNaNaNaNaNaNaNaNaNaNaNaNaNaNaNaNaNaNaNaNaNaNaa(lp26
Na(iMatrix
MatrixElement
p27
(dp28
g10
I3
sg11
I2
sg12
F-1.3333333333333415
sba(iMatrix
MatrixElement
p29
(dp30
g10
I3
sg11
I3
sg12
F4.166666666666687
sbaNa(iMatrix
MatrixElement
p31
(dp32
g10
I3
sg11
I5
sg12
F-1.3333333333333444
sbaNaNaNaNaNaNaNaNaNaNaNaNaNaNaNaNaNaNaNaNaNaNaNaNaNaNaNa(iMatrix
MatrixElement
p33
(dp34
g10
I3
sg11
I33
sg12
F-0.7500000000000092
sbaNaNaNaNaNaNaNaNaNaNaNaNaNaNaNaNaNaNaNaNaNaNaNaNaNaNaNaNaNaNaNaNaNaNaNaNaNaNaNaNaNaNaNaNaNaNaNaNaNaNaNaNaNaNaNaNaNaNaNaNaNaNaNaNaNaNaNaNaNaNaNaNaNaNaNaNaNaNaNaNaNaNaNaNaNaNaNaNaNaNaNaNaNaNaNaNaNaNaNaNaNaNaNaNaNaNaNaNaNaNaNaa(lp35
NaNaNa(iMatrix
MatrixElement
p36
(dp37
g10
I4
sg11
I4
sg12
F4.166666666666666
sbaNa(iMatrix
MatrixElement
p38
(dp39
g10
I4
sg11
I6
sg12
F-1.3333333333333333
sbaNaNaNaNaNaNaNaNaNaNaNaNaNaNaNaNaNaNaNaNaNaNaNaNaNaNaNaNaNa(iMatrix
MatrixElement
p40
(dp41
g10
I4
sg11
I36
sg12
F-0.75
sbaNaNaNaNaNaNaNaNaNaNaNaNaNaNaNaNaNaNaNaNaNaNaNaNaNaNaNaNaNaNaNaNaNaNaNaNaNaNaNaNaNaNaNaNaNaNaNaNaNaNaNaNaNaNaNaNaNaNaNaNaNaNaNaNaNaNaNaNaNaNaNaNaNaNaNaNaNaNaNaNaNaNaNaNaNaNaNaNaNaNaNaNaNaNaNaNaNaNaNaNaNaNaNaNaNaNaNaNaa(lp42
NaNa(iMatrix
MatrixElement
p43
(dp44
g10
I5
sg11
I3
sg12
F-1.3333333333333444
sbaNa(iMatrix
MatrixElement
p45
(dp46
g10
I5
sg11
I5
sg12
F4.166666666666674
sbaNa(iMatrix
MatrixElement
p47
(dp48
g10
I5
sg11
I7
sg12
F-1.3333333333333326
sbaNaNaNaNaNaNaNaNaNaNaNaNaNaNaNaNaNaNaNaNaNaNaNaNaNaNa(iMatrix
MatrixElement
p49
(dp50
g10
I5
sg11
I34
sg12
F-0.7499999999999873
sbaNaNaNaNaNaNaNaNaNaNaNaNaNaNaNaNaNaNaNaNaNaNaNaNaNaNaNaNaNaNaNaNaNaNaNaNaNaNaNaNaNaNaNaNaNaNaNaNaNaNaNaNaNaNaNaNaNaNaNaNaNaNaNaNaNaNaNaNaNaNaNaNaNaNaNaNaNaNaNaNaNaNaNaNaNaNaNaNaNaNaNaNaNaNaNaNaNaNaNaNaNaNaNaNaNaNaNaNaNaNaa(lp51
NaNaNa(iMatrix
MatrixElement
p52
(dp53
g10
I6
sg11
I4
sg12
F-1.3333333333333333
sbaNa(iMatrix
MatrixElement
p54
(dp55
g10
I6
sg11
I6
sg12
F4.166666666666666
sbaNa(iMatrix
MatrixElement
p56
(dp57
g10
I6
sg11
I8
sg12
F-1.333333333333333
sbaNaNaNaNaNaNaNaNaNaNaNaNaNaNaNaNaNaNaNaNaNaNaNaNaNaNaNaNa(iMatrix
MatrixElement
p58
(dp59
g10
I6
sg11
I37
sg12
F-0.7499999999999997
sbaNaNaNaNaNaNaNaNaNaNaNaNaNaNaNaNaNaNaNaNaNaNaNaNaNaNaNaNaNaNaNaNaNaNaNaNaNaNaNaNaNaNaNaNaNaNaNaNaNaNaNaNaNaNaNaNaNaNaNaNaNaNaNaNaNaNaNaNaNaNaNaNaNaNaNaNaNaNaNaNaNaNaNaNaNaNaNaNaNaNaNaNaNaNaNaNaNaNaNaNaNaNaNaNaNaNaNaa(lp60
NaNaNaNa(iMatrix
MatrixElement
p61
(dp62
g10
I7
sg11
I5
sg12
F-1.3333333333333326
sbaNa(iMatrix
MatrixElement
p63
(dp64
g10
I7
sg11
I7
sg12
F4.1166758340833365
sbaNa(iMatrix
MatrixElement
p65
(dp66
g10
I7
sg11
I9
sg12
F-1.2000300007500075
sbaNaNaNaNaNaNaNaNaNaNaNaNaNaNaNaNaNaNaNaNaNaNaNaNaNa(iMatrix
MatrixElement
p67
(dp68
g10
I7
sg11
I35
sg12
F-0.7916562499999904
sbaNaNaNaNaNaNaNaNaNaNaNaNaNaNaNaNaNaNaNaNaNaNaNaNaNaNaNaNaNaNaNaNaNaNaNaNaNaNaNaNaNaNaNaNaNaNaNaNaNaNaNaNaNaNaNaNaNaNaNaNaNaNaNaNaNaNaNaNaNaNaNaNaNaNaNaNaNaNaNaNaNaNaNaNaNaNaNaNaNaNaNaNaNaNaNaNaNaNaNaNaNaNaNaNaNaNaNaNaNaa(lp69
NaNaNaNaNa(iMatrix
MatrixElement
p70
(dp71
g10
I8
sg11
I6
sg12
F-1.333333333333333
sbaNa(iMatrix
MatrixElement
p72
(dp73
g10
I8
sg11
I8
sg12
F4.166666666666667
sbaNa(iMatrix
MatrixElement
p74
(dp75
g10
I8
sg11
I10
sg12
F-1.3333333333333337
sbaNaNaNaNaNaNaNaNaNaNaNaNaNaNaNaNaNaNaNaNaNaNaNaNaNaNaNa(iMatrix
MatrixElement
p76
(dp77
g10
I8
sg11
I38
sg12
F-0.7500000000000001
sbaNaNaNaNaNaNaNaNaNaNaNaNaNaNaNaNaNaNaNaNaNaNaNaNaNaNaNaNaNaNaNaNaNaNaNaNaNaNaNaNaNaNaNaNaNaNaNaNaNaNaNaNaNaNaNaNaNaNaNaNaNaNaNaNaNaNaNaNaNaNaNaNaNaNaNaNaNaNaNaNaNaNaNaNaNaNaNaNaNaNaNaNaNaNaNaNaNaNaNaNaNaNaNaNaNaNaa(lp78
NaNaNaNaNaNa(iMatrix
MatrixElement
p79
(dp80
g10
I9
sg11
I7
sg12
F-1.2000300007500075
sbaNa(iMatrix
MatrixElement
p81
(dp82
g10
I9
sg11
I9
sg12
F4.066657503749846
sbaNa(iMatrix
MatrixElement
p83
(dp84
g10
I9
sg11
I11
sg12
F-1.19994000299984
sbaNaNaNaNaNaNaNaNaNaNaNaNaNaNaNaNaNaNaNaNaNaNaNaNaNaNaNaNaNaNaNaNaNaNaNaNaNaNaNa(iMatrix
MatrixElement
p85
(dp86
g10
I9
sg11
I51
sg12
F-0.8333437500000043
sbaNaNaNaNaNaNaNaNaNaNaNaNaNaNaNaNaNaNaNaNaNaNaNaNaNaNaNaNaNaNaNaNaNaNaNaNaNaNaNaNaNaNaNaNaNaNaNaNaNaNaNaNaNaNaNaNaNaNaNaNaNaNaNaNaNaNaNaNaNaNaNaNaNaNaNaNaNaNaNaNaNaNaNaNaNaNaNaNaNaNaNaNaNaa(lp87
NaNaNaNaNaNaNa(iMatrix
MatrixElement
p88
(dp89
g10
I10
sg11
I8
sg12
F-1.3333333333333337
sbaNa(iMatrix
MatrixElement
p90
(dp91
g10
I10
sg11
I10
sg12
F4.166666666666666
sbaNa(iMatrix
MatrixElement
p92
(dp93
g10
I10
sg11
I12
sg12
F-1.333333333333333
sbaNaNaNaNaNaNaNaNaNaNaNaNaNaNaNaNaNaNaNaNaNaNaNaNaNaNa(iMatrix
MatrixElement
p94
(dp95
g10
I10
sg11
I39
sg12
F-0.7500000000000001
sbaNaNaNaNaNaNaNaNaNaNaNaNaNaNaNaNaNaNaNaNaNaNaNaNaNaNaNaNaNaNaNaNaNaNaNaNaNaNaNaNaNaNaNaNaNaNaNaNaNaNaNaNaNaNaNaNaNaNaNaNaNaNaNaNaNaNaNaNaNaNaNaNaNaNaNaNaNaNaNaNaNaNaNaNaNaNaNaNaNaNaNaNaNaNaNaNaNaNaNaNaNaNaNaNaNaa(lp96
NaNaNaNaNaNaNaNa(iMatrix
MatrixElement
p97
(dp98
g10
I11
sg11
I9
sg12
F-1.19994000299984
sbaNa(iMatrix
MatrixElement
p99
(dp100
g10
I11
sg11
I11
sg12
F4.066657503749862
sbaNa(iMatrix
MatrixElement
p101
(dp102
g10
I11
sg11
I13
sg12
F-1.2000300007500129
sbaNaNaNaNaNaNaNaNaNaNaNaNaNaNaNaNaNaNaNaNaNaNaNaNaNaNaNaNaNaNaNaNaNaNaNaNaNaNa(iMatrix
MatrixElement
p103
(dp104
g10
I11
sg11
I52
sg12
F-0.8333437500000114
sbaNaNaNaNaNaNaNaNaNaNaNaNaNaNaNaNaNaNaNaNaNaNaNaNaNaNaNaNaNaNaNaNaNaNaNaNaNaNaNaNaNaNaNaNaNaNaNaNaNaNaNaNaNaNaNaNaNaNaNaNaNaNaNaNaNaNaNaNaNaNaNaNaNaNaNaNaNaNaNaNaNaNaNaNaNaNaNaNaNaNaNaNaa(lp105
NaNaNaNaNaNaNaNaNa(iMatrix
MatrixElement
p106
(dp107
g10
I12
sg11
I10
sg12
F-1.333333333333333
sbaNa(iMatrix
MatrixElement
p108
(dp109
g10
I12
sg11
I12
sg12
F4.116675834083352
sbaNa(iMatrix
MatrixElement
p110
(dp111
g10
I12
sg11
I14
sg12
F-1.200030000750019
sbaNaNaNaNaNaNaNaNaNaNaNaNaNaNaNaNaNaNaNaNaNaNaNaNaNa(iMatrix
MatrixElement
p112
(dp113
g10
I12
sg11
I40
sg12
F-0.7916562499999993
sbaNaNaNaNaNaNaNaNaNaNaNaNaNaNaNaNaNaNaNaNaNaNaNaNaNaNaNaNaNaNaNaNaNaNaNaNaNaNaNaNaNaNaNaNaNaNaNaNaNaNaNaNaNaNaNaNaNaNaNaNaNaNaNaNaNaNaNaNaNaNaNaNaNaNaNaNaNaNaNaNaNaNaNaNaNaNaNaNaNaNaNaNaNaNaNaNaNaNaNaNaNaNaNaNaa(lp114
NaNaNaNaNaNaNaNaNaNa(iMatrix
MatrixElement
p115
(dp116
g10
I13
sg11
I11
sg12
F-1.2000300007500129
sbaNa(iMatrix
MatrixElement
p117
(dp118
g10
I13
sg11
I13
sg12
F4.066685001500049
sbaNa(iMatrix
MatrixElement
p119
(dp120
g10
I13
sg11
I15
sg12
F-1.200030000750032
sbaNaNaNaNaNaNaNaNaNaNaNaNaNaNaNaNaNaNaNaNaNaNaNaNaNaNaNaNaNaNaNaNaNaNaNaNaNaNaNaNaNaNaNaNaNaNaNaNaNaNaNaNa(iMatrix
MatrixElement
p121
(dp122
g10
I13
sg11
I68
sg12
F-0.8333125000000186
sbaNaNaNaNaNaNaNaNaNaNaNaNaNaNaNaNaNaNaNaNaNaNaNaNaNaNaNaNaNaNaNaNaNaNaNaNaNaNaNaNaNaNaNaNaNaNaNaNaNaNaNaNaNaNaNaNaNaNaNaNaNaNaNaNaNaNaNaNaNaNaNaNaNaNaNaNaa(lp123
NaNaNaNaNaNaNaNaNaNaNa(iMatrix
MatrixElement
p124
(dp125
g10
I14
sg11
I12
sg12
F-1.200030000750019
sbaNa(iMatrix
MatrixElement
p126
(dp127
g10
I14
sg11
I14
sg12
F4.066657503749868
sbaNa(iMatrix
MatrixElement
p128
(dp129
g10
I14
sg11
I16
sg12
F-1.1999400029998493
sbaNaNaNaNaNaNaNaNaNaNaNaNaNaNaNaNaNaNaNaNaNaNaNaNa(iMatrix
MatrixElement
p130
(dp131
g10
I14
sg11
I41
sg12
F-0.8333437499999996
sbaNaNaNaNaNaNaNaNaNaNaNaNaNaNaNaNaNaNaNaNaNaNaNaNaNaNaNaNaNaNaNaNaNaNaNaNaNaNaNaNaNaNaNaNaNaNaNaNaNaNaNaNaNaNaNaNaNaNaNaNaNaNaNaNaNaNaNaNaNaNaNaNaNaNaNaNaNaNaNaNaNaNaNaNaNaNaNaNaNaNaNaNaNaNaNaNaNaNaNaNaNaNaNaa(lp132
NaNaNaNaNaNaNaNaNaNaNaNa(iMatrix
MatrixElement
p133
(dp134
g10
I15
sg11
I13
sg12
F-1.200030000750032
sbaNa(iMatrix
MatrixElement
p135
(dp136
g10
I15
sg11
I15
sg12
F4.066657503749879
sbaNa(iMatrix
MatrixElement
p137
(dp138
g10
I15
sg11
I17
sg12
F-1.1999400029998464
sbaNaNaNaNaNaNaNaNaNaNaNaNaNaNaNaNaNaNaNaNaNaNaNaNaNaNaNaNaNaNaNaNaNaNaNaNaNaNaNaNaNaNaNaNaNaNaNaNaNaNaNa(iMatrix
MatrixElement
p139
(dp140
g10
I15
sg11
I69
sg12
F-0.8333437499999974
sbaNaNaNaNaNaNaNaNaNaNaNaNaNaNaNaNaNaNaNaNaNaNaNaNaNaNaNaNaNaNaNaNaNaNaNaNaNaNaNaNaNaNaNaNaNaNaNaNaNaNaNaNaNaNaNaNaNaNaNaNaNaNaNaNaNaNaNaNaNaNaNaNaNaNaNaa(lp141
NaNaNaNaNaNaNaNaNaNaNaNaNa(iMatrix
MatrixElement
p142
(dp143
g10
I16
sg11
I14
sg12
F-1.1999400029998493
sbaNa(iMatrix
MatrixElement
p144
(dp145
g10
I16
sg11
I16
sg12
F4.06665750374987
sbaNa(iMatrix
MatrixElement
p146
(dp147
g10
I16
sg11
I18
sg12
F-1.2000300007500195
sbaNaNaNaNaNaNaNaNaNaNaNaNaNaNaNaNaNaNaNaNaNaNaNa(iMatrix
MatrixElement
p148
(dp149
g10
I16
sg11
I42
sg12
F-0.8333437500000006
sbaNaNaNaNaNaNaNaNaNaNaNaNaNaNaNaNaNaNaNaNaNaNaNaNaNaNaNaNaNaNaNaNaNaNaNaNaNaNaNaNaNaNaNaNaNaNaNaNaNaNaNaNaNaNaNaNaNaNaNaNaNaNaNaNaNaNaNaNaNaNaNaNaNaNaNaNaNaNaNaNaNaNaNaNaNaNaNaNaNaNaNaNaNaNaNaNaNaNaNaNaNaNaa(lp150
NaNaNaNaNaNaNaNaNaNaNaNaNaNa(iMatrix
MatrixElement
p151
(dp152
g10
I17
sg11
I15
sg12
F-1.1999400029998464
sbaNa(iMatrix
MatrixElement
p153
(dp154
g10
I17
sg11
I17
sg12
F4.066657503749858
sbaNa(iMatrix
MatrixElement
p155
(dp156
g10
I17
sg11
I19
sg12
F-1.2000300007500182
sbaNaNaNaNaNaNaNaNaNaNaNaNaNaNaNaNaNaNaNaNaNaNaNaNaNaNaNaNaNaNaNaNaNaNaNaNaNaNaNaNaNaNaNaNaNaNaNaNaNaNaNaNaNaNaNaNaNaNaNaNaNaNaNaNaNa(iMatrix
MatrixElement
p157
(dp158
g10
I17
sg11
I85
sg12
F-0.8333437499999907
sbaNaNaNaNaNaNaNaNaNaNaNaNaNaNaNaNaNaNaNaNaNaNaNaNaNaNaNaNaNaNaNaNaNaNaNaNaNaNaNaNaNaNaNaNaNaNaNaNaNaNaNaNaNaNaNaNaNaNaNaa(lp159
NaNaNaNaNaNaNaNaNaNaNaNaNaNaNa(iMatrix
MatrixElement
p160
(dp161
g10
I18
sg11
I16
sg12
F-1.2000300007500195
sbaNa(iMatrix
MatrixElement
p162
(dp163
g10
I18
sg11
I18
sg12
F4.0666850015000415
sbaNa(iMatrix
MatrixElement
p164
(dp165
g10
I18
sg11
I20
sg12
F-1.2000300007500195
sbaNaNaNaNaNaNaNaNaNaNaNaNaNaNaNaNaNaNaNaNaNaNa(iMatrix
MatrixElement
p166
(dp167
g10
I18
sg11
I43
sg12
F-0.8333125000000015
sbaNaNaNaNaNaNaNaNaNaNaNaNaNaNaNaNaNaNaNaNaNaNaNaNaNaNaNaNaNaNaNaNaNaNaNaNaNaNaNaNaNaNaNaNaNaNaNaNaNaNaNaNaNaNaNaNaNaNaNaNaNaNaNaNaNaNaNaNaNaNaNaNaNaNaNaNaNaNaNaNaNaNaNaNaNaNaNaNaNaNaNaNaNaNaNaNaNaNaNaNaNaa(lp168
NaNaNaNaNaNaNaNaNaNaNaNaNaNaNaNa(iMatrix
MatrixElement
p169
(dp170
g10
I19
sg11
I17
sg12
F-1.2000300007500182
sbaNa(iMatrix
MatrixElement
p171
(dp172
g10
I19
sg11
I19
sg12
F4.116675834083342
sbaNa(iMatrix
MatrixElement
p173
(dp174
g10
I19
sg11
I21
sg12
F-1.3333333333333255
sbaNaNaNaNaNaNaNaNaNaNaNaNaNaNaNaNaNaNaNaNaNaNaNaNaNaNaNaNaNaNaNaNaNaNaNaNaNaNaNaNaNaNaNaNaNaNaNaNaNaNaNaNaNaNaNaNaNaNaNaNaNaNaNaNa(iMatrix
MatrixElement
p175
(dp176
g10
I19
sg11
I86
sg12
F-0.7916562499999988
sbaNaNaNaNaNaNaNaNaNaNaNaNaNaNaNaNaNaNaNaNaNaNaNaNaNaNaNaNaNaNaNaNaNaNaNaNaNaNaNaNaNaNaNaNaNaNaNaNaNaNaNaNaNaNaNaNaNaNaa(lp177
NaNaNaNaNaNaNaNaNaNaNaNaNaNaNaNaNa(iMatrix
MatrixElement
p178
(dp179
g10
I20
sg11
I18
sg12
F-1.2000300007500195
sbaNa(iMatrix
MatrixElement
p180
(dp181
g10
I20
sg11
I20
sg12
F4.06665750374987
sbaNa(iMatrix
MatrixElement
p182
(dp183
g10
I20
sg11
I22
sg12
F-1.1999400029998504
sbaNaNaNaNaNaNaNaNaNaNaNaNaNaNaNaNaNaNaNaNaNa(iMatrix
MatrixElement
p184
(dp185
g10
I20
sg11
I44
sg12
F-0.8333437499999996
sbaNaNaNaNaNaNaNaNaNaNaNaNaNaNaNaNaNaNaNaNaNaNaNaNaNaNaNaNaNaNaNaNaNaNaNaNaNaNaNaNaNaNaNaNaNaNaNaNaNaNaNaNaNaNaNaNaNaNaNaNaNaNaNaNaNaNaNaNaNaNaNaNaNaNaNaNaNaNaNaNaNaNaNaNaNaNaNaNaNaNaNaNaNaNaNaNaNaNaNaNaa(lp186
NaNaNaNaNaNaNaNaNaNaNaNaNaNaNaNaNaNa(iMatrix
MatrixElement
p187
(dp188
g10
I21
sg11
I19
sg12
F-1.3333333333333255
sbaNa(iMatrix
MatrixElement
p189
(dp190
g10
I21
sg11
I21
sg12
F4.166666666666664
sbaNa(iMatrix
MatrixElement
p191
(dp192
g10
I21
sg11
I23
sg12
F-1.333333333333341
sbaNaNaNaNaNaNaNaNaNaNaNaNaNaNaNaNaNaNaNaNaNaNaNaNaNaNaNaNaNaNaNaNaNaNaNaNaNaNaNaNaNaNaNaNaNaNaNaNaNaNaNaNaNaNaNaNaNaNaNaNaNaNaNaNaNaNaNa(iMatrix
MatrixElement
p193
(dp194
g10
I21
sg11
I91
sg12
F-0.7500000000000019
sbaNaNaNaNaNaNaNaNaNaNaNaNaNaNaNaNaNaNaNaNaNaNaNaNaNaNaNaNaNaNaNaNaNaNaNaNaNaNaNaNaNaNaNaNaNaNaNaNaNaNaNaNaNaa(lp195
NaNaNaNaNaNaNaNaNaNaNaNaNaNaNaNaNaNaNa(iMatrix
MatrixElement
p196
(dp197
g10
I22
sg11
I20
sg12
F-1.1999400029998504
sbaNa(iMatrix
MatrixElement
p198
(dp199
g10
I22
sg11
I22
sg12
F4.066657503749871
sbaNa(iMatrix
MatrixElement
p200
(dp201
g10
I22
sg11
I24
sg12
F-1.2000300007500195
sbaNaNaNaNaNaNaNaNaNaNaNaNaNaNaNaNaNaNaNaNa(iMatrix
MatrixElement
p202
(dp203
g10
I22
sg11
I45
sg12
F-0.8333437500000006
sbaNaNaNaNaNaNaNaNaNaNaNaNaNaNaNaNaNaNaNaNaNaNaNaNaNaNaNaNaNaNaNaNaNaNaNaNaNaNaNaNaNaNaNaNaNaNaNaNaNaNaNaNaNaNaNaNaNaNaNaNaNaNaNaNaNaNaNaNaNaNaNaNaNaNaNaNaNaNaNaNaNaNaNaNaNaNaNaNaNaNaNaNaNaNaNaNaNaNaNaa(lp204
NaNaNaNaNaNaNaNaNaNaNaNaNaNaNaNaNaNaNaNa(iMatrix
MatrixElement
p205
(dp206
g10
I23
sg11
I21
sg12
F-1.333333333333341
sbaNa(iMatrix
MatrixElement
p207
(dp208
g10
I23
sg11
I23
sg12
F4.16666666666667
sbaNa(iMatrix
MatrixElement
p209
(dp210
g10
I23
sg11
I25
sg12
F-1.3333333333333282
sbaNaNaNaNaNaNaNaNaNaNaNaNaNaNaNaNaNaNaNaNaNaNaNaNaNaNaNaNaNaNaNaNaNaNaNaNaNaNaNaNaNaNaNaNaNaNaNaNaNaNaNaNaNaNaNaNaNaNaNaNaNaNaNaNaNaNa(iMatrix
MatrixElement
p211
(dp212
g10
I23
sg11
I92
sg12
F-0.7499999999999984
sbaNaNaNaNaNaNaNaNaNaNaNaNaNaNaNaNaNaNaNaNaNaNaNaNaNaNaNaNaNaNaNaNaNaNaNaNaNaNaNaNaNaNaNaNaNaNaNaNaNaNaNaNaa(lp213
NaNaNaNaNaNaNaNaNaNaNaNaNaNaNaNaNaNaNaNaNa(iMatrix
MatrixElement
p214
(dp215
g10
I24
sg11
I22
sg12
F-1.2000300007500195
sbaNa(iMatrix
MatrixElement
p216
(dp217
g10
I24
sg11
I24
sg12
F4.1166758340833525
sbaNa(iMatrix
MatrixElement
p218
(dp219
g10
I24
sg11
I26
sg12
F-1.333333333333333
sbaNaNaNaNaNaNaNaNaNaNaNaNaNaNaNaNaNaNaNa(iMatrix
MatrixElement
p220
(dp221
g10
I24
sg11
I46
sg12
F-0.7916562499999997
sbaNaNaNaNaNaNaNaNaNaNaNaNaNaNaNaNaNaNaNaNaNaNaNaNaNaNaNaNaNaNaNaNaNaNaNaNaNaNaNaNaNaNaNaNaNaNaNaNaNaNaNaNaNaNaNaNaNaNaNaNaNaNaNaNaNaNaNaNaNaNaNaNaNaNaNaNaNaNaNaNaNaNaNaNaNaNaNaNaNaNaNaNaNaNaNaNaNaNaa(lp222
NaNaNaNaNaNaNaNaNaNaNaNaNaNaNaNaNaNaNaNaNaNa(iMatrix
MatrixElement
p223
(dp224
g10
I25
sg11
I23
sg12
F-1.3333333333333282
sbaNa(iMatrix
MatrixElement
p225
(dp226
g10
I25
sg11
I25
sg12
F4.166666666666655
sbaNa(iMatrix
MatrixElement
p227
(dp228
g10
I25
sg11
I27
sg12
F-1.3333333333333317
sbaNaNaNaNaNaNaNaNaNaNaNaNaNaNaNaNaNaNaNaNaNaNaNaNaNaNaNaNaNaNaNaNaNaNaNaNaNaNaNaNaNaNaNaNaNaNaNaNaNaNaNaNaNaNaNaNaNaNaNaNaNaNaNaNaNa(iMatrix
MatrixElement
p229
(dp230
g10
I25
sg11
I93
sg12
F-0.7499999999999981
sbaNaNaNaNaNaNaNaNaNaNaNaNaNaNaNaNaNaNaNaNaNaNaNaNaNaNaNaNaNaNaNaNaNaNaNaNaNaNaNaNaNaNaNaNaNaNaNaNaNaNaNaa(lp231
NaNaNaNaNaNaNaNaNaNaNaNaNaNaNaNaNaNaNaNaNaNaNa(iMatrix
MatrixElement
p232
(dp233
g10
I26
sg11
I24
sg12
F-1.333333333333333
sbaNa(iMatrix
MatrixElement
p234
(dp235
g10
I26
sg11
I26
sg12
F4.16666666666667
sbaNa(iMatrix
MatrixElement
p236
(dp237
g10
I26
sg11
I28
sg12
F-1.333333333333336
sbaNaNaNaNaNaNaNaNaNaNaNaNaNaNaNaNaNaNa(iMatrix
MatrixElement
p238
(dp239
g10
I26
sg11
I47
sg12
F-0.7500000000000006
sbaNaNaNaNaNaNaNaNaNaNaNaNaNaNaNaNaNaNaNaNaNaNaNaNaNaNaNaNaNaNaNaNaNaNaNaNaNaNaNaNaNaNaNaNaNaNaNaNaNaNaNaNaNaNaNaNaNaNaNaNaNaNaNaNaNaNaNaNaNaNaNaNaNaNaNaNaNaNaNaNaNaNaNaNaNaNaNaNaNaNaNaNaNaNaNaNaNaa(lp240
NaNaNaNaNaNaNaNaNaNaNaNaNaNaNaNaNaNaNaNaNaNaNaNa(iMatrix
MatrixElement
p241
(dp242
g10
I27
sg11
I25
sg12
F-1.3333333333333317
sbaNa(iMatrix
MatrixElement
p243
(dp244
g10
I27
sg11
I27
sg12
F4.166666666666662
sbaNaNaNaNaNaNaNaNaNaNaNaNaNaNaNaNaNaNaNaNaNaNaNaNaNaNaNaNaNaNaNaNaNaNaNaNaNaNaNaNaNaNaNaNaNaNaNaNaNaNaNaNaNaNaNaNaNaNaNaNaNaNaNaNaNaNa(iMatrix
MatrixElement
p245
(dp246
g10
I27
sg11
I94
sg12
F-0.7500000000000001
sbaNaNaNaNaNaNaNaNaNaNaNaNaNaNaNaNaNaNaNaNaNaNaNaNaNaNaNaNaNaNaNaNaNaNaNaNaNaNaNaNaNaNaNaNaNaNaNaNaNaNaa(lp247
NaNaNaNaNaNaNaNaNaNaNaNaNaNaNaNaNaNaNaNaNaNaNaNaNa(iMatrix
MatrixElement
p248
(dp249
g10
I28
sg11
I26
sg12
F-1.333333333333336
sbaNa(iMatrix
MatrixElement
p250
(dp251
g10
I28
sg11
I28
sg12
F4.166666666666669
sbaNa(iMatrix
MatrixElement
p252
(dp253
g10
I28
sg11
I30
sg12
F-1.333333333333333
sbaNaNaNaNaNaNaNaNaNaNaNaNaNaNaNaNaNa(iMatrix
MatrixElement
p254
(dp255
g10
I28
sg11
I48
sg12
F-0.7500000000000006
sbaNaNaNaNaNaNaNaNaNaNaNaNaNaNaNaNaNaNaNaNaNaNaNaNaNaNaNaNaNaNaNaNaNaNaNaNaNaNaNaNaNaNaNaNaNaNaNaNaNaNaNaNaNaNaNaNaNaNaNaNaNaNaNaNaNaNaNaNaNaNaNaNaNaNaNaNaNaNaNaNaNaNaNaNaNaNaNaNaNaNaNaNaNaNaNaNaa(lp256
(iMatrix
MatrixElement
p257
(dp258
g10
I29
sg11
I1
sg12
F-0.750000000000006
sbaNaNaNaNaNaNaNaNaNaNaNaNaNaNaNaNaNaNaNaNaNaNaNaNaNaNaNa(iMatrix
MatrixElement
p259
(dp260
g10
I29
sg11
I29
sg12
F4.166666666666696
sbaNa(iMatrix
MatrixElement
p261
(dp262
g10
I29
sg11
I31
sg12
F-1.3333333333333566
sbaNaNaNaNaNaNaNaNaNaNaNaNaNaNaNaNaNaNaNaNaNaNaNaNaNaNaNaNaNaNaNaNaNaNaNaNaNaNaNaNaNaNaNaNaNaNaNaNaNaNaNaNaNaNaNaNaNaNaNaNaNaNaNa(iMatrix
MatrixElement
p263
(dp264
g10
I29
sg11
I95
sg12
F-0.7500000000000087
sbaNaNaNaNaNaNaNaNaNaNaNaNaNaNaNaNaNaNaNaNaNaNaNaNaNaNaNaNaNaNaNaNaNaNaNaNaNaNaNaNaNaNaNaNaNaNaNaNaNaa(lp265
NaNaNaNaNaNaNaNaNaNaNaNaNaNaNaNaNaNaNaNaNaNaNaNaNaNaNa(iMatrix
MatrixElement
p266
(dp267
g10
I30
sg11
I28
sg12
F-1.333333333333333
sbaNa(iMatrix
MatrixElement
p268
(dp269
g10
I30
sg11
I30
sg12
F4.16666666666666
sbaNa(iMatrix
MatrixElement
p270
(dp271
g10
I30
sg11
I32
sg12
F-1.33333333333333
sbaNaNaNaNaNaNaNaNaNaNaNaNaNaNaNaNa(iMatrix
MatrixElement
p272
(dp273
g10
I30
sg11
I49
sg12
F-0.749999999999998
sbaNaNaNaNaNaNaNaNaNaNaNaNaNaNaNaNaNaNaNaNaNaNaNaNaNaNaNaNaNaNaNaNaNaNaNaNaNaNaNaNaNaNaNaNaNaNaNaNaNaNaNaNaNaNaNaNaNaNaNaNaNaNaNaNaNaNaNaNaNaNaNaNaNaNaNaNaNaNaNaNaNaNaNaNaNaNaNaNaNaNaNaNaNaNaNaa(lp274
Na(iMatrix
MatrixElement
p275
(dp276
g10
I31
sg11
I2
sg12
F-0.7500000000000169
sbaNaNaNaNaNaNaNaNaNaNaNaNaNaNaNaNaNaNaNaNaNaNaNaNaNaNa(iMatrix
MatrixElement
p277
(dp278
g10
I31
sg11
I29
sg12
F-1.3333333333333566
sbaNa(iMatrix
MatrixElement
p279
(dp280
g10
I31
sg11
I31
sg12
F4.166666666666732
sbaNa(iMatrix
MatrixElement
p281
(dp282
g10
I31
sg11
I33
sg12
F-1.3333333333333521
sbaNaNaNaNaNaNaNaNaNaNaNaNaNaNaNaNaNaNaNaNaNaNaNaNaNaNaNaNaNaNaNaNaNaNaNaNaNaNaNaNaNaNaNaNaNaNaNaNaNaNaNaNaNaNaNaNaNaNaNaNaNaNa(iMatrix
MatrixElement
p283
(dp284
g10
I31
sg11
I96
sg12
F-0.750000000000006
sbaNaNaNaNaNaNaNaNaNaNaNaNaNaNaNaNaNaNaNaNaNaNaNaNaNaNaNaNaNaNaNaNaNaNaNaNaNaNaNaNaNaNaNaNaNaNaNaNaa(lp285
NaNaNaNaNaNaNaNaNaNaNaNaNaNaNaNaNaNaNaNaNaNaNaNaNaNaNaNaNa(iMatrix
MatrixElement
p286
(dp287
g10
I32
sg11
I30
sg12
F-1.33333333333333
sbaNa(iMatrix
MatrixElement
p288
(dp289
g10
I32
sg11
I32
sg12
F4.166666666666668
sbaNaNaNaNaNaNaNaNaNaNaNaNaNaNaNaNaNa(iMatrix
MatrixElement
p290
(dp291
g10
I32
sg11
I50
sg12
F-0.7500000000000014
sbaNaNaNaNaNaNaNaNaNaNaNaNaNaNaNaNaNaNaNaNaNaNaNaNaNaNaNaNaNaNaNaNaNaNaNaNaNaNaNaNaNaNaNaNaNaNaNaNaNaNaNaNaNaNaNaNaNaNaNaNaNaNaNaNaNaNaNaNaNaNaNaNaNaNaNaNaNaNaNaNaNaNaNaNaNaNaNaNaNaNaNaNaNaNaa(lp292
NaNa(iMatrix
MatrixElement
p293
(dp294
g10
I33
sg11
I3
sg12
F-0.7500000000000092
sbaNaNaNaNaNaNaNaNaNaNaNaNaNaNaNaNaNaNaNaNaNaNaNaNaNaNaNa(iMatrix
MatrixElement
p295
(dp296
g10
I33
sg11
I31
sg12
F-1.3333333333333521
sbaNa(iMatrix
MatrixElement
p297
(dp298
g10
I33
sg11
I33
sg12
F4.16666666666665
sba(iMatrix
MatrixElement
p299
(dp300
g10
I33
sg11
I34
sg12
F-1.3333333333333042
sbaNaNaNaNaNaNaNaNaNaNaNaNaNaNaNaNaNaNaNaNaNaNaNaNaNaNaNaNaNaNaNaNaNaNaNaNaNaNaNaNaNaNaNaNaNaNaNaNaNaNaNaNaNaNaNaNaNaNaNaNaNaNa(iMatrix
MatrixElement
p301
(dp302
g10
I33
sg11
I97
sg12
F-0.7499999999999838
sbaNaNaNaNaNaNaNaNaNaNaNaNaNaNaNaNaNaNaNaNaNaNaNaNaNaNaNaNaNaNaNaNaNaNaNaNaNaNaNaNaNaNaNaNaNaNaNaa(lp303
NaNaNaNa(iMatrix
MatrixElement
p304
(dp305
g10
I34
sg11
I5
sg12
F-0.7499999999999873
sbaNaNaNaNaNaNaNaNaNaNaNaNaNaNaNaNaNaNaNaNaNaNaNaNaNaNaNa(iMatrix
MatrixElement
p306
(dp307
g10
I34
sg11
I33
sg12
F-1.3333333333333042
sba(iMatrix
MatrixElement
p308
(dp309
g10
I34
sg11
I34
sg12
F4.166666666666618
sba(iMatrix
MatrixElement
p310
(dp311
g10
I34
sg11
I35
sg12
F-1.333333333333325
sbaNaNaNaNaNaNaNaNaNaNaNaNaNaNaNaNaNaNaNaNaNaNaNaNaNaNaNaNaNaNaNaNaNaNaNaNaNaNaNaNaNaNaNaNaNaNaNaNaNaNaNaNaNaNaNaNaNaNaNaNaNaNaNaNaNaNa(iMatrix
MatrixElement
p312
(dp313
g10
I34
sg11
I102
sg12
F-0.7500000000000009
sbaNaNaNaNaNaNaNaNaNaNaNaNaNaNaNaNaNaNaNaNaNaNaNaNaNaNaNaNaNaNaNaNaNaNaNaNaNaNaNaNaNaNaa(lp314
NaNaNaNaNaNa(iMatrix
MatrixElement
p315
(dp316
g10
I35
sg11
I7
sg12
F-0.7916562499999904
sbaNaNaNaNaNaNaNaNaNaNaNaNaNaNaNaNaNaNaNaNaNaNaNaNaNaNa(iMatrix
MatrixElement
p317
(dp318
g10
I35
sg11
I34
sg12
F-1.333333333333325
sba(iMatrix
MatrixElement
p319
(dp320
g10
I35
sg11
I35
sg12
F4.11667583408335
sbaNaNaNaNaNaNaNaNaNaNaNaNaNaNaNa(iMatrix
MatrixElement
p321
(dp322
g10
I35
sg11
I51
sg12
F-1.2000300007500297
sbaNaNaNaNaNaNaNaNaNaNaNaNaNaNaNaNaNaNaNaNaNaNaNaNaNaNaNaNaNaNaNaNaNaNaNaNaNaNaNaNaNaNaNaNaNaNaNaNaNaNaNa(iMatrix
MatrixElement
p323
(dp324
g10
I35
sg11
I103
sg12
F-0.7916562500000048
sbaNaNaNaNaNaNaNaNaNaNaNaNaNaNaNaNaNaNaNaNaNaNaNaNaNaNaNaNaNaNaNaNaNaNaNaNaNaNaNaNaNaa(lp325
NaNaNa(iMatrix
MatrixElement
p326
(dp327
g10
I36
sg11
I4
sg12
F-0.75
sbaNaNaNaNaNaNaNaNaNaNaNaNaNaNaNaNaNaNaNaNaNaNaNaNaNaNaNaNaNaNaNa(iMatrix
MatrixElement
p328
(dp329
g10
I36
sg11
I36
sg12
F4.166666666666666
sba(iMatrix
MatrixElement
p330
(dp331
g10
I36
sg11
I37
sg12
F-1.3333333333333333
sbaNaNaNaNaNaNaNaNaNaNaNaNaNaNaNa(iMatrix
MatrixElement
p332
(dp333
g10
I36
sg11
I53
sg12
F-0.75
sbaNaNaNaNaNaNaNaNaNaNaNaNaNaNaNaNaNaNaNaNaNaNaNaNaNaNaNaNaNaNaNaNaNaNaNaNaNaNaNaNaNaNaNaNaNaNaNaNaNaNaNaNaNaNaNaNaNaNaNaNaNaNaNaNaNaNaNaNaNaNaNaNaNaNaNaNaNaNaNaNaNaNaNaNaNaNaNaNaNaNaNaa(lp334
NaNaNaNaNa(iMatrix
MatrixElement
p335
(dp336
g10
I37
sg11
I6
sg12
F-0.7499999999999997
sbaNaNaNaNaNaNaNaNaNaNaNaNaNaNaNaNaNaNaNaNaNaNaNaNaNaNaNaNaNa(iMatrix
MatrixElement
p337
(dp338
g10
I37
sg11
I36
sg12
F-1.3333333333333333
sba(iMatrix
MatrixElement
p339
(dp340
g10
I37
sg11
I37
sg12
F4.166666666666666
sba(iMatrix
MatrixElement
p341
(dp342
g10
I37
sg11
I38
sg12
F-1.333333333333333
sbaNaNaNaNaNaNaNaNaNaNaNaNaNaNaNa(iMatrix
MatrixElement
p343
(dp344
g10
I37
sg11
I54
sg12
F-0.7499999999999998
sbaNaNaNaNaNaNaNaNaNaNaNaNaNaNaNaNaNaNaNaNaNaNaNaNaNaNaNaNaNaNaNaNaNaNaNaNaNaNaNaNaNaNaNaNaNaNaNaNaNaNaNaNaNaNaNaNaNaNaNaNaNaNaNaNaNaNaNaNaNaNaNaNaNaNaNaNaNaNaNaNaNaNaNaNaNaNaNaNaNaNaa(lp345
NaNaNaNaNaNaNa(iMatrix
MatrixElement
p346
(dp347
g10
I38
sg11
I8
sg12
F-0.7500000000000001
sbaNaNaNaNaNaNaNaNaNaNaNaNaNaNaNaNaNaNaNaNaNaNaNaNaNaNaNaNa(iMatrix
MatrixElement
p348
(dp349
g10
I38
sg11
I37
sg12
F-1.333333333333333
sba(iMatrix
MatrixElement
p350
(dp351
g10
I38
sg11
I38
sg12
F4.166666666666668
sba(iMatrix
MatrixElement
p352
(dp353
g10
I38
sg11
I39
sg12
F-1.3333333333333344
sbaNaNaNaNaNaNaNaNaNaNaNaNaNaNaNa(iMatrix
MatrixElement
p354
(dp355
g10
I38
sg11
I55
sg12
F-0.7500000000000003
sbaNaNaNaNaNaNaNaNaNaNaNaNaNaNaNaNaNaNaNaNaNaNaNaNaNaNaNaNaNaNaNaNaNaNaNaNaNaNaNaNaNaNaNaNaNaNaNaNaNaNaNaNaNaNaNaNaNaNaNaNaNaNaNaNaNaNaNaNaNaNaNaNaNaNaNaNaNaNaNaNaNaNaNaNaNaNaNaNaNaa(lp356
NaNaNaNaNaNaNaNaNa(iMatrix
MatrixElement
p357
(dp358
g10
I39
sg11
I10
sg12
F-0.7500000000000001
sbaNaNaNaNaNaNaNaNaNaNaNaNaNaNaNaNaNaNaNaNaNaNaNaNaNaNaNa(iMatrix
MatrixElement
p359
(dp360
g10
I39
sg11
I38
sg12
F-1.3333333333333344
sba(iMatrix
MatrixElement
p361
(dp362
g10
I39
sg11
I39
sg12
F4.16666666666667
sba(iMatrix
MatrixElement
p363
(dp364
g10
I39
sg11
I40
sg12
F-1.3333333333333346
sbaNaNaNaNaNaNaNaNaNaNaNaNaNaNaNa(iMatrix
MatrixElement
p365
(dp366
g10
I39
sg11
I56
sg12
F-0.7500000000000009
sbaNaNaNaNaNaNaNaNaNaNaNaNaNaNaNaNaNaNaNaNaNaNaNaNaNaNaNaNaNaNaNaNaNaNaNaNaNaNaNaNaNaNaNaNaNaNaNaNaNaNaNaNaNaNaNaNaNaNaNaNaNaNaNaNaNaNaNaNaNaNaNaNaNaNaNaNaNaNaNaNaNaNaNaNaNaNaNaNaa(lp367
NaNaNaNaNaNaNaNaNaNaNa(iMatrix
MatrixElement
p368
(dp369
g10
I40
sg11
I12
sg12
F-0.7916562499999993
sbaNaNaNaNaNaNaNaNaNaNaNaNaNaNaNaNaNaNaNaNaNaNaNaNaNaNa(iMatrix
MatrixElement
p370
(dp371
g10
I40
sg11
I39
sg12
F-1.3333333333333346
sba(iMatrix
MatrixElement
p372
(dp373
g10
I40
sg11
I40
sg12
F4.116675834083355
sba(iMatrix
MatrixElement
p374
(dp375
g10
I40
sg11
I41
sg12
F-1.2000300007500198
sbaNaNaNaNaNaNaNaNaNaNaNaNaNaNaNa(iMatrix
MatrixElement
p376
(dp377
g10
I40
sg11
I57
sg12
F-0.7916562500000011
sbaNaNaNaNaNaNaNaNaNaNaNaNaNaNaNaNaNaNaNaNaNaNaNaNaNaNaNaNaNaNaNaNaNaNaNaNaNaNaNaNaNaNaNaNaNaNaNaNaNaNaNaNaNaNaNaNaNaNaNaNaNaNaNaNaNaNaNaNaNaNaNaNaNaNaNaNaNaNaNaNaNaNaNaNaNaNaNaa(lp378
NaNaNaNaNaNaNaNaNaNaNaNaNa(iMatrix
MatrixElement
p379
(dp380
g10
I41
sg11
I14
sg12
F-0.8333437499999996
sbaNaNaNaNaNaNaNaNaNaNaNaNaNaNaNaNaNaNaNaNaNaNaNaNaNa(iMatrix
MatrixElement
p381
(dp382
g10
I41
sg11
I40
sg12
F-1.2000300007500198
sba(iMatrix
MatrixElement
p383
(dp384
g10
I41
sg11
I41
sg12
F4.066657503749868
sba(iMatrix
MatrixElement
p385
(dp386
g10
I41
sg11
I42
sg12
F-1.1999400029998495
sbaNaNaNaNaNaNaNaNaNaNaNaNaNaNaNa(iMatrix
MatrixElement
p387
(dp388
g10
I41
sg11
I58
sg12
F-0.8333437499999988
sbaNaNaNaNaNaNaNaNaNaNaNaNaNaNaNaNaNaNaNaNaNaNaNaNaNaNaNaNaNaNaNaNaNaNaNaNaNaNaNaNaNaNaNaNaNaNaNaNaNaNaNaNaNaNaNaNaNaNaNaNaNaNaNaNaNaNaNaNaNaNaNaNaNaNaNaNaNaNaNaNaNaNaNaNaNaNaa(lp389
NaNaNaNaNaNaNaNaNaNaNaNaNaNaNa(iMatrix
MatrixElement
p390
(dp391
g10
I42
sg11
I16
sg12
F-0.8333437500000006
sbaNaNaNaNaNaNaNaNaNaNaNaNaNaNaNaNaNaNaNaNaNaNaNaNa(iMatrix
MatrixElement
p392
(dp393
g10
I42
sg11
I41
sg12
F-1.1999400029998495
sba(iMatrix
MatrixElement
p394
(dp395
g10
I42
sg11
I42
sg12
F4.066657503749871
sba(iMatrix
MatrixElement
p396
(dp397
g10
I42
sg11
I43
sg12
F-1.2000300007500198
sbaNaNaNaNaNaNaNaNaNaNaNaNaNaNaNa(iMatrix
MatrixElement
p398
(dp399
g10
I42
sg11
I59
sg12
F-0.8333437500000007
sbaNaNaNaNaNaNaNaNaNaNaNaNaNaNaNaNaNaNaNaNaNaNaNaNaNaNaNaNaNaNaNaNaNaNaNaNaNaNaNaNaNaNaNaNaNaNaNaNaNaNaNaNaNaNaNaNaNaNaNaNaNaNaNaNaNaNaNaNaNaNaNaNaNaNaNaNaNaNaNaNaNaNaNaNaNaa(lp400
NaNaNaNaNaNaNaNaNaNaNaNaNaNaNaNaNa(iMatrix
MatrixElement
p401
(dp402
g10
I43
sg11
I18
sg12
F-0.8333125000000015
sbaNaNaNaNaNaNaNaNaNaNaNaNaNaNaNaNaNaNaNaNaNaNaNa(iMatrix
MatrixElement
p403
(dp404
g10
I43
sg11
I42
sg12
F-1.2000300007500198
sba(iMatrix
MatrixElement
p405
(dp406
g10
I43
sg11
I43
sg12
F4.06668500150004
sba(iMatrix
MatrixElement
p407
(dp408
g10
I43
sg11
I44
sg12
F-1.2000300007500186
sbaNaNaNaNaNaNaNaNaNaNaNaNaNaNaNa(iMatrix
MatrixElement
p409
(dp410
g10
I43
sg11
I60
sg12
F-0.8333124999999999
sbaNaNaNaNaNaNaNaNaNaNaNaNaNaNaNaNaNaNaNaNaNaNaNaNaNaNaNaNaNaNaNaNaNaNaNaNaNaNaNaNaNaNaNaNaNaNaNaNaNaNaNaNaNaNaNaNaNaNaNaNaNaNaNaNaNaNaNaNaNaNaNaNaNaNaNaNaNaNaNaNaNaNaNaNaa(lp411
NaNaNaNaNaNaNaNaNaNaNaNaNaNaNaNaNaNaNa(iMatrix
MatrixElement
p412
(dp413
g10
I44
sg11
I20
sg12
F-0.8333437499999996
sbaNaNaNaNaNaNaNaNaNaNaNaNaNaNaNaNaNaNaNaNaNaNa(iMatrix
MatrixElement
p414
(dp415
g10
I44
sg11
I43
sg12
F-1.2000300007500186
sba(iMatrix
MatrixElement
p416
(dp417
g10
I44
sg11
I44
sg12
F4.066657503749867
sba(iMatrix
MatrixElement
p418
(dp419
g10
I44
sg11
I45
sg12
F-1.1999400029998482
sbaNaNaNaNaNaNaNaNaNaNaNaNaNaNaNa(iMatrix
MatrixElement
p420
(dp421
g10
I44
sg11
I61
sg12
F-0.83334375
sbaNaNaNaNaNaNaNaNaNaNaNaNaNaNaNaNaNaNaNaNaNaNaNaNaNaNaNaNaNaNaNaNaNaNaNaNaNaNaNaNaNaNaNaNaNaNaNaNaNaNaNaNaNaNaNaNaNaNaNaNaNaNaNaNaNaNaNaNaNaNaNaNaNaNaNaNaNaNaNaNaNaNaNaa(lp422
NaNaNaNaNaNaNaNaNaNaNaNaNaNaNaNaNaNaNaNaNa(iMatrix
MatrixElement
p423
(dp424
g10
I45
sg11
I22
sg12
F-0.8333437500000006
sbaNaNaNaNaNaNaNaNaNaNaNaNaNaNaNaNaNaNaNaNaNa(iMatrix
MatrixElement
p425
(dp426
g10
I45
sg11
I44
sg12
F-1.1999400029998482
sba(iMatrix
MatrixElement
p427
(dp428
g10
I45
sg11
I45
sg12
F4.066657503749866
sba(iMatrix
MatrixElement
p429
(dp430
g10
I45
sg11
I46
sg12
F-1.2000300007500182
sbaNaNaNaNaNaNaNaNaNaNaNaNaNaNaNa(iMatrix
MatrixElement
p431
(dp432
g10
I45
sg11
I62
sg12
F-0.8333437499999984
sbaNaNaNaNaNaNaNaNaNaNaNaNaNaNaNaNaNaNaNaNaNaNaNaNaNaNaNaNaNaNaNaNaNaNaNaNaNaNaNaNaNaNaNaNaNaNaNaNaNaNaNaNaNaNaNaNaNaNaNaNaNaNaNaNaNaNaNaNaNaNaNaNaNaNaNaNaNaNaNaNaNaNaa(lp433
NaNaNaNaNaNaNaNaNaNaNaNaNaNaNaNaNaNaNaNaNaNaNa(iMatrix
MatrixElement
p434
(dp435
g10
I46
sg11
I24
sg12
F-0.7916562499999997
sbaNaNaNaNaNaNaNaNaNaNaNaNaNaNaNaNaNaNaNaNa(iMatrix
MatrixElement
p436
(dp437
g10
I46
sg11
I45
sg12
F-1.2000300007500182
sba(iMatrix
MatrixElement
p438
(dp439
g10
I46
sg11
I46
sg12
F4.116675834083347
sba(iMatrix
MatrixElement
p440
(dp441
g10
I46
sg11
I47
sg12
F-1.3333333333333308
sbaNaNaNaNaNaNaNaNaNaNaNaNaNaNaNa(iMatrix
MatrixElement
p442
(dp443
g10
I46
sg11
I63
sg12
F-0.791656249999998
sbaNaNaNaNaNaNaNaNaNaNaNaNaNaNaNaNaNaNaNaNaNaNaNaNaNaNaNaNaNaNaNaNaNaNaNaNaNaNaNaNaNaNaNaNaNaNaNaNaNaNaNaNaNaNaNaNaNaNaNaNaNaNaNaNaNaNaNaNaNaNaNaNaNaNaNaNaNaNaNaNaNaa(lp444
NaNaNaNaNaNaNaNaNaNaNaNaNaNaNaNaNaNaNaNaNaNaNaNaNa(iMatrix
MatrixElement
p445
(dp446
g10
I47
sg11
I26
sg12
F-0.7500000000000006
sbaNaNaNaNaNaNaNaNaNaNaNaNaNaNaNaNaNaNaNa(iMatrix
MatrixElement
p447
(dp448
g10
I47
sg11
I46
sg12
F-1.3333333333333308
sba(iMatrix
MatrixElement
p449
(dp450
g10
I47
sg11
I47
sg12
F4.16666666666667
sba(iMatrix
MatrixElement
p451
(dp452
g10
I47
sg11
I48
sg12
F-1.3333333333333366
sbaNaNaNaNaNaNaNaNaNaNaNaNaNaNaNa(iMatrix
MatrixElement
p453
(dp454
g10
I47
sg11
I64
sg12
F-0.7500000000000009
sbaNaNaNaNaNaNaNaNaNaNaNaNaNaNaNaNaNaNaNaNaNaNaNaNaNaNaNaNaNaNaNaNaNaNaNaNaNaNaNaNaNaNaNaNaNaNaNaNaNaNaNaNaNaNaNaNaNaNaNaNaNaNaNaNaNaNaNaNaNaNaNaNaNaNaNaNaNaNaNaNaa(lp455
NaNaNaNaNaNaNaNaNaNaNaNaNaNaNaNaNaNaNaNaNaNaNaNaNaNaNa(iMatrix
MatrixElement
p456
(dp457
g10
I48
sg11
I28
sg12
F-0.7500000000000006
sbaNaNaNaNaNaNaNaNaNaNaNaNaNaNaNaNaNaNa(iMatrix
MatrixElement
p458
(dp459
g10
I48
sg11
I47
sg12
F-1.3333333333333366
sba(iMatrix
MatrixElement
p460
(dp461
g10
I48
sg11
I48
sg12
F4.166666666666677
sba(iMatrix
MatrixElement
p462
(dp463
g10
I48
sg11
I49
sg12
F-1.333333333333337
sbaNaNaNaNaNaNaNaNaNaNaNaNaNaNaNa(iMatrix
MatrixElement
p464
(dp465
g10
I48
sg11
I65
sg12
F-0.7500000000000027
sbaNaNaNaNaNaNaNaNaNaNaNaNaNaNaNaNaNaNaNaNaNaNaNaNaNaNaNaNaNaNaNaNaNaNaNaNaNaNaNaNaNaNaNaNaNaNaNaNaNaNaNaNaNaNaNaNaNaNaNaNaNaNaNaNaNaNaNaNaNaNaNaNaNaNaNaNaNaNaNaa(lp466
NaNaNaNaNaNaNaNaNaNaNaNaNaNaNaNaNaNaNaNaNaNaNaNaNaNaNaNaNa(iMatrix
MatrixElement
p467
(dp468
g10
I49
sg11
I30
sg12
F-0.749999999999998
sbaNaNaNaNaNaNaNaNaNaNaNaNaNaNaNaNaNa(iMatrix
MatrixElement
p469
(dp470
g10
I49
sg11
I48
sg12
F-1.333333333333337
sba(iMatrix
MatrixElement
p471
(dp472
g10
I49
sg11
I49
sg12
F4.166666666666665
sba(iMatrix
MatrixElement
p473
(dp474
g10
I49
sg11
I50
sg12
F-1.333333333333328
sbaNaNaNaNaNaNaNaNaNaNaNaNaNaNaNa(iMatrix
MatrixElement
p475
(dp476
g10
I49
sg11
I66
sg12
F-0.7500000000000018
sbaNaNaNaNaNaNaNaNaNaNaNaNaNaNaNaNaNaNaNaNaNaNaNaNaNaNaNaNaNaNaNaNaNaNaNaNaNaNaNaNaNaNaNaNaNaNaNaNaNaNaNaNaNaNaNaNaNaNaNaNaNaNaNaNaNaNaNaNaNaNaNaNaNaNaNaNaNaNaa(lp477
NaNaNaNaNaNaNaNaNaNaNaNaNaNaNaNaNaNaNaNaNaNaNaNaNaNaNaNaNaNaNa(iMatrix
MatrixElement
p478
(dp479
g10
I50
sg11
I32
sg12
F-0.7500000000000014
sbaNaNaNaNaNaNaNaNaNaNaNaNaNaNaNaNa(iMatrix
MatrixElement
p480
(dp481
g10
I50
sg11
I49
sg12
F-1.333333333333328
sba(iMatrix
MatrixElement
p482
(dp483
g10
I50
sg11
I50
sg12
F4.1666666666666625
sbaNaNaNaNaNaNaNaNaNaNaNaNaNaNaNaNa(iMatrix
MatrixElement
p484
(dp485
g10
I50
sg11
I67
sg12
F-0.7499999999999967
sbaNaNaNaNaNaNaNaNaNaNaNaNaNaNaNaNaNaNaNaNaNaNaNaNaNaNaNaNaNaNaNaNaNaNaNaNaNaNaNaNaNaNaNaNaNaNaNaNaNaNaNaNaNaNaNaNaNaNaNaNaNaNaNaNaNaNaNaNaNaNaNaNaNaNaNaNaNaa(lp486
NaNaNaNaNaNaNaNa(iMatrix
MatrixElement
p487
(dp488
g10
I51
sg11
I9
sg12
F-0.8333437500000043
sbaNaNaNaNaNaNaNaNaNaNaNaNaNaNaNaNaNaNaNaNaNaNaNaNaNa(iMatrix
MatrixElement
p489
(dp490
g10
I51
sg11
I35
sg12
F-1.2000300007500297
sbaNaNaNaNaNaNaNaNaNaNaNaNaNaNaNa(iMatrix
MatrixElement
p491
(dp492
g10
I51
sg11
I51
sg12
F4.066657503749904
sba(iMatrix
MatrixElement
p493
(dp494
g10
I51
sg11
I52
sg12
F-1.199940002999869
sbaNaNaNaNaNaNaNaNaNaNaNaNaNaNaNaNaNaNaNaNaNaNaNaNaNaNaNaNaNaNaNaNaNaNaNaNaNaNaNaNaNaNaNaNaNaNaNaNaNaNaNaNaNaNaNa(iMatrix
MatrixElement
p495
(dp496
g10
I51
sg11
I108
sg12
F-0.8333437500000009
sbaNaNaNaNaNaNaNaNaNaNaNaNaNaNaNaNaNaNaNaNaNaNaNaNaNaNaNaNaNaNaNaNaNaNaNaNaa(lp497
NaNaNaNaNaNaNaNaNaNa(iMatrix
MatrixElement
p498
(dp499
g10
I52
sg11
I11
sg12
F-0.8333437500000114
sbaNaNaNaNaNaNaNaNaNaNaNaNaNaNaNaNaNaNaNaNaNaNaNaNaNaNaNaNaNaNaNaNaNaNaNaNaNaNaNa(iMatrix
MatrixElement
p500
(dp501
g10
I52
sg11
I51
sg12
F-1.199940002999869
sba(iMatrix
MatrixElement
p502
(dp503
g10
I52
sg11
I52
sg12
F4.0666575037499
sbaNaNaNaNaNaNaNaNaNaNaNaNaNaNaNa(iMatrix
MatrixElement
p504
(dp505
g10
I52
sg11
I68
sg12
F-1.2000300007500253
sbaNaNaNaNaNaNaNaNaNaNaNaNaNaNaNaNaNaNaNaNaNaNaNaNaNaNaNaNaNaNaNaNaNaNaNaNaNaNaNaNa(iMatrix
MatrixElement
p506
(dp507
g10
I52
sg11
I109
sg12
F-0.833343749999994
sbaNaNaNaNaNaNaNaNaNaNaNaNaNaNaNaNaNaNaNaNaNaNaNaNaNaNaNaNaNaNaNaNaNaNaNaa(lp508
NaNaNaNaNaNaNaNaNaNaNaNaNaNaNaNaNaNaNaNaNaNaNaNaNaNaNaNaNaNaNaNaNaNaNa(iMatrix
MatrixElement
p509
(dp510
g10
I53
sg11
I36
sg12
F-0.75
sbaNaNaNaNaNaNaNaNaNaNaNaNaNaNaNaNa(iMatrix
MatrixElement
p511
(dp512
g10
I53
sg11
I53
sg12
F4.166666666666666
sba(iMatrix
MatrixElement
p513
(dp514
g10
I53
sg11
I54
sg12
F-1.3333333333333333
sbaNaNaNaNaNaNaNaNaNaNaNaNaNaNaNa(iMatrix
MatrixElement
p515
(dp516
g10
I53
sg11
I70
sg12
F-0.75
sbaNaNaNaNaNaNaNaNaNaNaNaNaNaNaNaNaNaNaNaNaNaNaNaNaNaNaNaNaNaNaNaNaNaNaNaNaNaNaNaNaNaNaNaNaNaNaNaNaNaNaNaNaNaNaNaNaNaNaNaNaNaNaNaNaNaNaNaNaNaNaNaNaNaNaa(lp517
NaNaNaNaNaNaNaNaNaNaNaNaNaNaNaNaNaNaNaNaNaNaNaNaNaNaNaNaNaNaNaNaNaNaNaNa(iMatrix
MatrixElement
p518
(dp519
g10
I54
sg11
I37
sg12
F-0.7499999999999998
sbaNaNaNaNaNaNaNaNaNaNaNaNaNaNaNa(iMatrix
MatrixElement
p520
(dp521
g10
I54
sg11
I53
sg12
F-1.3333333333333333
sba(iMatrix
MatrixElement
p522
(dp523
g10
I54
sg11
I54
sg12
F4.166666666666665
sba(iMatrix
MatrixElement
p524
(dp525
g10
I54
sg11
I55
sg12
F-1.3333333333333326
sbaNaNaNaNaNaNaNaNaNaNaNaNaNaNaNa(iMatrix
MatrixElement
p526
(dp527
g10
I54
sg11
I71
sg12
F-0.7499999999999993
sbaNaNaNaNaNaNaNaNaNaNaNaNaNaNaNaNaNaNaNaNaNaNaNaNaNaNaNaNaNaNaNaNaNaNaNaNaNaNaNaNaNaNaNaNaNaNaNaNaNaNaNaNaNaNaNaNaNaNaNaNaNaNaNaNaNaNaNaNaNaNaNaNaNaa(lp528
NaNaNaNaNaNaNaNaNaNaNaNaNaNaNaNaNaNaNaNaNaNaNaNaNaNaNaNaNaNaNaNaNaNaNaNaNa(iMatrix
MatrixElement
p529
(dp530
g10
I55
sg11
I38
sg12
F-0.7500000000000003
sbaNaNaNaNaNaNaNaNaNaNaNaNaNaNaNa(iMatrix
MatrixElement
p531
(dp532
g10
I55
sg11
I54
sg12
F-1.3333333333333326
sba(iMatrix
MatrixElement
p533
(dp534
g10
I55
sg11
I55
sg12
F4.166666666666668
sba(iMatrix
MatrixElement
p535
(dp536
g10
I55
sg11
I56
sg12
F-1.333333333333334
sbaNaNaNaNaNaNaNaNaNaNaNaNaNaNaNa(iMatrix
MatrixElement
p537
(dp538
g10
I55
sg11
I72
sg12
F-0.75
sbaNaNaNaNaNaNaNaNaNaNaNaNaNaNaNaNaNaNaNaNaNaNaNaNaNaNaNaNaNaNaNaNaNaNaNaNaNaNaNaNaNaNaNaNaNaNaNaNaNaNaNaNaNaNaNaNaNaNaNaNaNaNaNaNaNaNaNaNaNaNaNaNaa(lp539
NaNaNaNaNaNaNaNaNaNaNaNaNaNaNaNaNaNaNaNaNaNaNaNaNaNaNaNaNaNaNaNaNaNaNaNaNaNa(iMatrix
MatrixElement
p540
(dp541
g10
I56
sg11
I39
sg12
F-0.7500000000000009
sbaNaNaNaNaNaNaNaNaNaNaNaNaNaNaNa(iMatrix
MatrixElement
p542
(dp543
g10
I56
sg11
I55
sg12
F-1.333333333333334
sba(iMatrix
MatrixElement
p544
(dp545
g10
I56
sg11
I56
sg12
F4.16666666666667
sba(iMatrix
MatrixElement
p546
(dp547
g10
I56
sg11
I57
sg12
F-1.333333333333334
sbaNaNaNaNaNaNaNaNaNaNaNaNaNaNaNa(iMatrix
MatrixElement
p548
(dp549
g10
I56
sg11
I73
sg12
F-0.7500000000000004
sbaNaNaNaNaNaNaNaNaNaNaNaNaNaNaNaNaNaNaNaNaNaNaNaNaNaNaNaNaNaNaNaNaNaNaNaNaNaNaNaNaNaNaNaNaNaNaNaNaNaNaNaNaNaNaNaNaNaNaNaNaNaNaNaNaNaNaNaNaNaNaNaa(lp550
NaNaNaNaNaNaNaNaNaNaNaNaNaNaNaNaNaNaNaNaNaNaNaNaNaNaNaNaNaNaNaNaNaNaNaNaNaNaNa(iMatrix
MatrixElement
p551
(dp552
g10
I57
sg11
I40
sg12
F-0.7916562500000011
sbaNaNaNaNaNaNaNaNaNaNaNaNaNaNaNa(iMatrix
MatrixElement
p553
(dp554
g10
I57
sg11
I56
sg12
F-1.333333333333334
sba(iMatrix
MatrixElement
p555
(dp556
g10
I57
sg11
I57
sg12
F4.11667583408335
sba(iMatrix
MatrixElement
p557
(dp558
g10
I57
sg11
I58
sg12
F-1.200030000750016
sbaNaNaNaNaNaNaNaNaNaNaNaNaNaNaNa(iMatrix
MatrixElement
p559
(dp560
g10
I57
sg11
I74
sg12
F-0.7916562499999985
sbaNaNaNaNaNaNaNaNaNaNaNaNaNaNaNaNaNaNaNaNaNaNaNaNaNaNaNaNaNaNaNaNaNaNaNaNaNaNaNaNaNaNaNaNaNaNaNaNaNaNaNaNaNaNaNaNaNaNaNaNaNaNaNaNaNaNaNaNaNaNaa(lp561
NaNaNaNaNaNaNaNaNaNaNaNaNaNaNaNaNaNaNaNaNaNaNaNaNaNaNaNaNaNaNaNaNaNaNaNaNaNaNaNa(iMatrix
MatrixElement
p562
(dp563
g10
I58
sg11
I41
sg12
F-0.8333437499999988
sbaNaNaNaNaNaNaNaNaNaNaNaNaNaNaNa(iMatrix
MatrixElement
p564
(dp565
g10
I58
sg11
I57
sg12
F-1.200030000750016
sba(iMatrix
MatrixElement
p566
(dp567
g10
I58
sg11
I58
sg12
F4.066657503749862
sba(iMatrix
MatrixElement
p568
(dp569
g10
I58
sg11
I59
sg12
F-1.1999400029998482
sbaNaNaNaNaNaNaNaNaNaNaNaNaNaNaNa(iMatrix
MatrixElement
p570
(dp571
g10
I58
sg11
I75
sg12
F-0.8333437499999989
sbaNaNaNaNaNaNaNaNaNaNaNaNaNaNaNaNaNaNaNaNaNaNaNaNaNaNaNaNaNaNaNaNaNaNaNaNaNaNaNaNaNaNaNaNaNaNaNaNaNaNaNaNaNaNaNaNaNaNaNaNaNaNaNaNaNaNaNaNaNaa(lp572
NaNaNaNaNaNaNaNaNaNaNaNaNaNaNaNaNaNaNaNaNaNaNaNaNaNaNaNaNaNaNaNaNaNaNaNaNaNaNaNaNa(iMatrix
MatrixElement
p573
(dp574
g10
I59
sg11
I42
sg12
F-0.8333437500000007
sbaNaNaNaNaNaNaNaNaNaNaNaNaNaNaNa(iMatrix
MatrixElement
p575
(dp576
g10
I59
sg11
I58
sg12
F-1.1999400029998482
sba(iMatrix
MatrixElement
p577
(dp578
g10
I59
sg11
I59
sg12
F4.066657503749868
sba(iMatrix
MatrixElement
p579
(dp580
g10
I59
sg11
I60
sg12
F-1.2000300007500186
sbaNaNaNaNaNaNaNaNaNaNaNaNaNaNaNa(iMatrix
MatrixElement
p581
(dp582
g10
I59
sg11
I76
sg12
F-0.8333437499999999
sbaNaNaNaNaNaNaNaNaNaNaNaNaNaNaNaNaNaNaNaNaNaNaNaNaNaNaNaNaNaNaNaNaNaNaNaNaNaNaNaNaNaNaNaNaNaNaNaNaNaNaNaNaNaNaNaNaNaNaNaNaNaNaNaNaNaNaNaNaa(lp583
NaNaNaNaNaNaNaNaNaNaNaNaNaNaNaNaNaNaNaNaNaNaNaNaNaNaNaNaNaNaNaNaNaNaNaNaNaNaNaNaNaNa(iMatrix
MatrixElement
p584
(dp585
g10
I60
sg11
I43
sg12
F-0.8333124999999999
sbaNaNaNaNaNaNaNaNaNaNaNaNaNaNaNa(iMatrix
MatrixElement
p586
(dp587
g10
I60
sg11
I59
sg12
F-1.2000300007500186
sba(iMatrix
MatrixElement
p588
(dp589
g10
I60
sg11
I60
sg12
F4.066685001500041
sba(iMatrix
MatrixElement
p590
(dp591
g10
I60
sg11
I61
sg12
F-1.2000300007500204
sbaNaNaNaNaNaNaNaNaNaNaNaNaNaNaNa(iMatrix
MatrixElement
p592
(dp593
g10
I60
sg11
I77
sg12
F-0.8333125000000021
sbaNaNaNaNaNaNaNaNaNaNaNaNaNaNaNaNaNaNaNaNaNaNaNaNaNaNaNaNaNaNaNaNaNaNaNaNaNaNaNaNaNaNaNaNaNaNaNaNaNaNaNaNaNaNaNaNaNaNaNaNaNaNaNaNaNaNaNaa(lp594
NaNaNaNaNaNaNaNaNaNaNaNaNaNaNaNaNaNaNaNaNaNaNaNaNaNaNaNaNaNaNaNaNaNaNaNaNaNaNaNaNaNaNa(iMatrix
MatrixElement
p595
(dp596
g10
I61
sg11
I44
sg12
F-0.83334375
sbaNaNaNaNaNaNaNaNaNaNaNaNaNaNaNa(iMatrix
MatrixElement
p597
(dp598
g10
I61
sg11
I60
sg12
F-1.2000300007500204
sba(iMatrix
MatrixElement
p599
(dp600
g10
I61
sg11
I61
sg12
F4.0666575037498625
sba(iMatrix
MatrixElement
p601
(dp602
g10
I61
sg11
I62
sg12
F-1.1999400029998446
sbaNaNaNaNaNaNaNaNaNaNaNaNaNaNaNa(iMatrix
MatrixElement
p603
(dp604
g10
I61
sg11
I78
sg12
F-0.8333437499999966
sbaNaNaNaNaNaNaNaNaNaNaNaNaNaNaNaNaNaNaNaNaNaNaNaNaNaNaNaNaNaNaNaNaNaNaNaNaNaNaNaNaNaNaNaNaNaNaNaNaNaNaNaNaNaNaNaNaNaNaNaNaNaNaNaNaNaNaa(lp605
NaNaNaNaNaNaNaNaNaNaNaNaNaNaNaNaNaNaNaNaNaNaNaNaNaNaNaNaNaNaNaNaNaNaNaNaNaNaNaNaNaNaNaNa(iMatrix
MatrixElement
p606
(dp607
g10
I62
sg11
I45
sg12
F-0.8333437499999984
sbaNaNaNaNaNaNaNaNaNaNaNaNaNaNaNa(iMatrix
MatrixElement
p608
(dp609
g10
I62
sg11
I61
sg12
F-1.1999400029998446
sba(iMatrix
MatrixElement
p610
(dp611
g10
I62
sg11
I62
sg12
F4.066657503749863
sba(iMatrix
MatrixElement
p612
(dp613
g10
I62
sg11
I63
sg12
F-1.20003000075002
sbaNaNaNaNaNaNaNaNaNaNaNaNaNaNaNa(iMatrix
MatrixElement
p614
(dp615
g10
I62
sg11
I79
sg12
F-0.8333437500000008
sbaNaNaNaNaNaNaNaNaNaNaNaNaNaNaNaNaNaNaNaNaNaNaNaNaNaNaNaNaNaNaNaNaNaNaNaNaNaNaNaNaNaNaNaNaNaNaNaNaNaNaNaNaNaNaNaNaNaNaNaNaNaNaNaNaNaa(lp616
NaNaNaNaNaNaNaNaNaNaNaNaNaNaNaNaNaNaNaNaNaNaNaNaNaNaNaNaNaNaNaNaNaNaNaNaNaNaNaNaNaNaNaNaNa(iMatrix
MatrixElement
p617
(dp618
g10
I63
sg11
I46
sg12
F-0.791656249999998
sbaNaNaNaNaNaNaNaNaNaNaNaNaNaNaNa(iMatrix
MatrixElement
p619
(dp620
g10
I63
sg11
I62
sg12
F-1.20003000075002
sba(iMatrix
MatrixElement
p621
(dp622
g10
I63
sg11
I63
sg12
F4.1166758340833525
sba(iMatrix
MatrixElement
p623
(dp624
g10
I63
sg11
I64
sg12
F-1.333333333333334
sbaNaNaNaNaNaNaNaNaNaNaNaNaNaNaNa(iMatrix
MatrixElement
p625
(dp626
g10
I63
sg11
I80
sg12
F-0.7916562500000011
sbaNaNaNaNaNaNaNaNaNaNaNaNaNaNaNaNaNaNaNaNaNaNaNaNaNaNaNaNaNaNaNaNaNaNaNaNaNaNaNaNaNaNaNaNaNaNaNaNaNaNaNaNaNaNaNaNaNaNaNaNaNaNaNaNaa(lp627
NaNaNaNaNaNaNaNaNaNaNaNaNaNaNaNaNaNaNaNaNaNaNaNaNaNaNaNaNaNaNaNaNaNaNaNaNaNaNaNaNaNaNaNaNaNa(iMatrix
MatrixElement
p628
(dp629
g10
I64
sg11
I47
sg12
F-0.7500000000000009
sbaNaNaNaNaNaNaNaNaNaNaNaNaNaNaNa(iMatrix
MatrixElement
p630
(dp631
g10
I64
sg11
I63
sg12
F-1.333333333333334
sba(iMatrix
MatrixElement
p632
(dp633
g10
I64
sg11
I64
sg12
F4.166666666666677
sba(iMatrix
MatrixElement
p634
(dp635
g10
I64
sg11
I65
sg12
F-1.3333333333333408
sbaNaNaNaNaNaNaNaNaNaNaNaNaNaNaNa(iMatrix
MatrixElement
p636
(dp637
g10
I64
sg11
I81
sg12
F-0.7500000000000013
sbaNaNaNaNaNaNaNaNaNaNaNaNaNaNaNaNaNaNaNaNaNaNaNaNaNaNaNaNaNaNaNaNaNaNaNaNaNaNaNaNaNaNaNaNaNaNaNaNaNaNaNaNaNaNaNaNaNaNaNaNaNaNaNaa(lp638
NaNaNaNaNaNaNaNaNaNaNaNaNaNaNaNaNaNaNaNaNaNaNaNaNaNaNaNaNaNaNaNaNaNaNaNaNaNaNaNaNaNaNaNaNaNaNa(iMatrix
MatrixElement
p639
(dp640
g10
I65
sg11
I48
sg12
F-0.7500000000000027
sbaNaNaNaNaNaNaNaNaNaNaNaNaNaNaNa(iMatrix
MatrixElement
p641
(dp642
g10
I65
sg11
I64
sg12
F-1.3333333333333408
sba(iMatrix
MatrixElement
p643
(dp644
g10
I65
sg11
I65
sg12
F4.166666666666687
sba(iMatrix
MatrixElement
p645
(dp646
g10
I65
sg11
I66
sg12
F-1.3333333333333401
sbaNaNaNaNaNaNaNaNaNaNaNaNaNaNaNa(iMatrix
MatrixElement
p647
(dp648
g10
I65
sg11
I82
sg12
F-0.750000000000003
sbaNaNaNaNaNaNaNaNaNaNaNaNaNaNaNaNaNaNaNaNaNaNaNaNaNaNaNaNaNaNaNaNaNaNaNaNaNaNaNaNaNaNaNaNaNaNaNaNaNaNaNaNaNaNaNaNaNaNaNaNaNaNaa(lp649
NaNaNaNaNaNaNaNaNaNaNaNaNaNaNaNaNaNaNaNaNaNaNaNaNaNaNaNaNaNaNaNaNaNaNaNaNaNaNaNaNaNaNaNaNaNaNaNa(iMatrix
MatrixElement
p650
(dp651
g10
I66
sg11
I49
sg12
F-0.7500000000000018
sbaNaNaNaNaNaNaNaNaNaNaNaNaNaNaNa(iMatrix
MatrixElement
p652
(dp653
g10
I66
sg11
I65
sg12
F-1.3333333333333401
sba(iMatrix
MatrixElement
p654
(dp655
g10
I66
sg11
I66
sg12
F4.166666666666647
sba(iMatrix
MatrixElement
p656
(dp657
g10
I66
sg11
I67
sg12
F-1.333333333333314
sbaNaNaNaNaNaNaNaNaNaNaNaNaNaNaNa(iMatrix
MatrixElement
p658
(dp659
g10
I66
sg11
I83
sg12
F-0.749999999999992
sbaNaNaNaNaNaNaNaNaNaNaNaNaNaNaNaNaNaNaNaNaNaNaNaNaNaNaNaNaNaNaNaNaNaNaNaNaNaNaNaNaNaNaNaNaNaNaNaNaNaNaNaNaNaNaNaNaNaNaNaNaNaa(lp660
NaNaNaNaNaNaNaNaNaNaNaNaNaNaNaNaNaNaNaNaNaNaNaNaNaNaNaNaNaNaNaNaNaNaNaNaNaNaNaNaNaNaNaNaNaNaNaNaNa(iMatrix
MatrixElement
p661
(dp662
g10
I67
sg11
I50
sg12
F-0.7499999999999967
sbaNaNaNaNaNaNaNaNaNaNaNaNaNaNaNa(iMatrix
MatrixElement
p663
(dp664
g10
I67
sg11
I66
sg12
F-1.333333333333314
sba(iMatrix
MatrixElement
p665
(dp666
g10
I67
sg11
I67
sg12
F4.1666666666666545
sbaNaNaNaNaNaNaNaNaNaNaNaNaNaNaNaNa(iMatrix
MatrixElement
p667
(dp668
g10
I67
sg11
I84
sg12
F-0.7500000000000027
sbaNaNaNaNaNaNaNaNaNaNaNaNaNaNaNaNaNaNaNaNaNaNaNaNaNaNaNaNaNaNaNaNaNaNaNaNaNaNaNaNaNaNaNaNaNaNaNaNaNaNaNaNaNaNaNaNaNaNaNaNaa(lp669
NaNaNaNaNaNaNaNaNaNaNaNa(iMatrix
MatrixElement
p670
(dp671
g10
I68
sg11
I13
sg12
F-0.8333125000000186
sbaNaNaNaNaNaNaNaNaNaNaNaNaNaNaNaNaNaNaNaNaNaNaNaNaNaNaNaNaNaNaNaNaNaNaNaNaNaNa(iMatrix
MatrixElement
p672
(dp673
g10
I68
sg11
I52
sg12
F-1.2000300007500253
sbaNaNaNaNaNaNaNaNaNaNaNaNaNaNaNa(iMatrix
MatrixElement
p674
(dp675
g10
I68
sg11
I68
sg12
F4.066685001500054
sba(iMatrix
MatrixElement
p676
(dp677
g10
I68
sg11
I69
sg12
F-1.2000300007500198
sbaNaNaNaNaNaNaNaNaNaNaNaNaNaNaNaNaNaNaNaNaNaNaNaNaNaNaNaNaNaNaNaNaNaNaNaNaNaNaNaNaNaNaNaNa(iMatrix
MatrixElement
p678
(dp679
g10
I68
sg11
I114
sg12
F-0.833312499999991
sbaNaNaNaNaNaNaNaNaNaNaNaNaNaNaNaNaNaNaNaNaNaNaNaNaNaNaNaNaNaNaa(lp680
NaNaNaNaNaNaNaNaNaNaNaNaNaNa(iMatrix
MatrixElement
p681
(dp682
g10
I69
sg11
I15
sg12
F-0.8333437499999974
sbaNaNaNaNaNaNaNaNaNaNaNaNaNaNaNaNaNaNaNaNaNaNaNaNaNaNaNaNaNaNaNaNaNaNaNaNaNaNaNaNaNaNaNaNaNaNaNaNaNaNaNaNa(iMatrix
MatrixElement
p683
(dp684
g10
I69
sg11
I68
sg12
F-1.2000300007500198
sba(iMatrix
MatrixElement
p685
(dp686
g10
I69
sg11
I69
sg12
F4.066657503749838
sbaNaNaNaNaNaNaNaNaNaNaNaNaNaNaNa(iMatrix
MatrixElement
p687
(dp688
g10
I69
sg11
I85
sg12
F-1.1999400029998295
sbaNaNaNaNaNaNaNaNaNaNaNaNaNaNaNaNaNaNaNaNaNaNaNaNaNaNaNaNaNa(iMatrix
MatrixElement
p689
(dp690
g10
I69
sg11
I115
sg12
F-0.8333437499999903
sbaNaNaNaNaNaNaNaNaNaNaNaNaNaNaNaNaNaNaNaNaNaNaNaNaNaNaNaNaNaa(lp691
NaNaNaNaNaNaNaNaNaNaNaNaNaNaNaNaNaNaNaNaNaNaNaNaNaNaNaNaNaNaNaNaNaNaNaNaNaNaNaNaNaNaNaNaNaNaNaNaNaNaNaNa(iMatrix
MatrixElement
p692
(dp693
g10
I70
sg11
I53
sg12
F-0.75
sbaNaNaNaNaNaNaNaNaNaNaNaNaNaNaNaNa(iMatrix
MatrixElement
p694
(dp695
g10
I70
sg11
I70
sg12
F4.166666666666666
sba(iMatrix
MatrixElement
p696
(dp697
g10
I70
sg11
I71
sg12
F-1.3333333333333333
sbaNaNaNaNaNaNaNaNaNaNaNaNaNaNaNa(iMatrix
MatrixElement
p698
(dp699
g10
I70
sg11
I87
sg12
F-0.75
sbaNaNaNaNaNaNaNaNaNaNaNaNaNaNaNaNaNaNaNaNaNaNaNaNaNaNaNaNaNaNaNaNaNaNaNaNaNaNaNaNaNaNaNaNaNaNaNaNaNaNaNaNaNaNaNaNaNaa(lp700
NaNaNaNaNaNaNaNaNaNaNaNaNaNaNaNaNaNaNaNaNaNaNaNaNaNaNaNaNaNaNaNaNaNaNaNaNaNaNaNaNaNaNaNaNaNaNaNaNaNaNaNaNa(iMatrix
MatrixElement
p701
(dp702
g10
I71
sg11
I54
sg12
F-0.7499999999999993
sbaNaNaNaNaNaNaNaNaNaNaNaNaNaNaNa(iMatrix
MatrixElement
p703
(dp704
g10
I71
sg11
I70
sg12
F-1.3333333333333333
sba(iMatrix
MatrixElement
p705
(dp706
g10
I71
sg11
I71
sg12
F4.166666666666666
sba(iMatrix
MatrixElement
p707
(dp708
g10
I71
sg11
I72
sg12
F-1.333333333333333
sbaNaNaNaNaNaNaNaNaNaNaNaNaNaNaNa(iMatrix
MatrixElement
p709
(dp710
g10
I71
sg11
I88
sg12
F-0.7500000000000002
sbaNaNaNaNaNaNaNaNaNaNaNaNaNaNaNaNaNaNaNaNaNaNaNaNaNaNaNaNaNaNaNaNaNaNaNaNaNaNaNaNaNaNaNaNaNaNaNaNaNaNaNaNaNaNaNaNaa(lp711
NaNaNaNaNaNaNaNaNaNaNaNaNaNaNaNaNaNaNaNaNaNaNaNaNaNaNaNaNaNaNaNaNaNaNaNaNaNaNaNaNaNaNaNaNaNaNaNaNaNaNaNaNaNa(iMatrix
MatrixElement
p712
(dp713
g10
I72
sg11
I55
sg12
F-0.75
sbaNaNaNaNaNaNaNaNaNaNaNaNaNaNaNa(iMatrix
MatrixElement
p714
(dp715
g10
I72
sg11
I71
sg12
F-1.333333333333333
sba(iMatrix
MatrixElement
p716
(dp717
g10
I72
sg11
I72
sg12
F4.166666666666671
sba(iMatrix
MatrixElement
p718
(dp719
g10
I72
sg11
I73
sg12
F-1.3333333333333364
sbaNaNaNaNaNaNaNaNaNaNaNaNaNaNaNa(iMatrix
MatrixElement
p720
(dp721
g10
I72
sg11
I89
sg12
F-0.7500000000000013
sbaNaNaNaNaNaNaNaNaNaNaNaNaNaNaNaNaNaNaNaNaNaNaNaNaNaNaNaNaNaNaNaNaNaNaNaNaNaNaNaNaNaNaNaNaNaNaNaNaNaNaNaNaNaNaNaa(lp722
NaNaNaNaNaNaNaNaNaNaNaNaNaNaNaNaNaNaNaNaNaNaNaNaNaNaNaNaNaNaNaNaNaNaNaNaNaNaNaNaNaNaNaNaNaNaNaNaNaNaNaNaNaNaNa(iMatrix
MatrixElement
p723
(dp724
g10
I73
sg11
I56
sg12
F-0.7500000000000004
sbaNaNaNaNaNaNaNaNaNaNaNaNaNaNaNa(iMatrix
MatrixElement
p725
(dp726
g10
I73
sg11
I72
sg12
F-1.3333333333333364
sba(iMatrix
MatrixElement
p727
(dp728
g10
I73
sg11
I73
sg12
F4.166666666666672
sba(iMatrix
MatrixElement
p729
(dp730
g10
I73
sg11
I74
sg12
F-1.3333333333333348
sbaNaNaNaNaNaNaNaNaNaNaNaNaNaNaNa(iMatrix
MatrixElement
p731
(dp732
g10
I73
sg11
I90
sg12
F-0.7500000000000009
sbaNaNaNaNaNaNaNaNaNaNaNaNaNaNaNaNaNaNaNaNaNaNaNaNaNaNaNaNaNaNaNaNaNaNaNaNaNaNaNaNaNaNaNaNaNaNaNaNaNaNaNaNaNaNaa(lp733
NaNaNaNaNaNaNaNaNaNaNaNaNaNaNaNaNaNaNaNaNaNaNaNaNaNaNaNaNaNaNaNaNaNaNaNaNaNaNaNaNaNaNaNaNaNaNaNaNaNaNaNaNaNaNaNa(iMatrix
MatrixElement
p734
(dp735
g10
I74
sg11
I57
sg12
F-0.7916562499999985
sbaNaNaNaNaNaNaNaNaNaNaNaNaNaNaNa(iMatrix
MatrixElement
p736
(dp737
g10
I74
sg11
I73
sg12
F-1.3333333333333348
sba(iMatrix
MatrixElement
p738
(dp739
g10
I74
sg11
I74
sg12
F4.116675834083358
sba(iMatrix
MatrixElement
p740
(dp741
g10
I74
sg11
I75
sg12
F-1.2000300007500222
sbaNaNaNaNaNaNaNaNaNaNaNaNaNaNaNaNaNaNaNaNaNaNaNaNaNaNaNaNaNaNaNaNaNaNaNaNaNaNaNaNaNaNaNaNaNaNaNaNaNaNaNaNaNaNaNaNaNaNaNaNaNaNaNaNaNaNaNaNaNaa(lp742
NaNaNaNaNaNaNaNaNaNaNaNaNaNaNaNaNaNaNaNaNaNaNaNaNaNaNaNaNaNaNaNaNaNaNaNaNaNaNaNaNaNaNaNaNaNaNaNaNaNaNaNaNaNaNaNaNa(iMatrix
MatrixElement
p743
(dp744
g10
I75
sg11
I58
sg12
F-0.8333437499999989
sbaNaNaNaNaNaNaNaNaNaNaNaNaNaNaNa(iMatrix
MatrixElement
p745
(dp746
g10
I75
sg11
I74
sg12
F-1.2000300007500222
sba(iMatrix
MatrixElement
p747
(dp748
g10
I75
sg11
I75
sg12
F4.066657503749871
sba(iMatrix
MatrixElement
p749
(dp750
g10
I75
sg11
I76
sg12
F-1.19994000299985
sbaNaNaNaNaNaNaNaNaNaNaNaNaNaNaNaNaNaNaNaNaNaNaNaNaNaNaNaNaNaNaNaNaNaNaNaNaNaNaNaNaNaNaNaNaNaNaNaNaNaNaNaNaNaNaNaNaNaNaNaNaNaNaNaNaNaNaNaNaa(lp751
NaNaNaNaNaNaNaNaNaNaNaNaNaNaNaNaNaNaNaNaNaNaNaNaNaNaNaNaNaNaNaNaNaNaNaNaNaNaNaNaNaNaNaNaNaNaNaNaNaNaNaNaNaNaNaNaNaNa(iMatrix
MatrixElement
p752
(dp753
g10
I76
sg11
I59
sg12
F-0.8333437499999999
sbaNaNaNaNaNaNaNaNaNaNaNaNaNaNaNa(iMatrix
MatrixElement
p754
(dp755
g10
I76
sg11
I75
sg12
F-1.19994000299985
sba(iMatrix
MatrixElement
p756
(dp757
g10
I76
sg11
I76
sg12
F4.0666575037498776
sba(iMatrix
MatrixElement
p758
(dp759
g10
I76
sg11
I77
sg12
F-1.200030000750025
sbaNaNaNaNaNaNaNaNaNaNaNaNaNaNaNaNaNaNaNaNaNaNaNaNaNaNaNaNaNaNaNaNaNaNaNaNaNaNaNaNaNaNaNaNaNaNaNaNaNaNaNaNaNaNaNaNaNaNaNaNaNaNaNaNaNaNaNaa(lp760
NaNaNaNaNaNaNaNaNaNaNaNaNaNaNaNaNaNaNaNaNaNaNaNaNaNaNaNaNaNaNaNaNaNaNaNaNaNaNaNaNaNaNaNaNaNaNaNaNaNaNaNaNaNaNaNaNaNaNa(iMatrix
MatrixElement
p761
(dp762
g10
I77
sg11
I60
sg12
F-0.8333125000000021
sbaNaNaNaNaNaNaNaNaNaNaNaNaNaNaNa(iMatrix
MatrixElement
p763
(dp764
g10
I77
sg11
I76
sg12
F-1.200030000750025
sba(iMatrix
MatrixElement
p765
(dp766
g10
I77
sg11
I77
sg12
F4.066685001500041
sba(iMatrix
MatrixElement
p767
(dp768
g10
I77
sg11
I78
sg12
F-1.2000300007500142
sbaNaNaNaNaNaNaNaNaNaNaNaNaNaNaNaNaNaNaNaNaNaNaNaNaNaNaNaNaNaNaNaNaNaNaNaNaNaNaNaNaNaNaNaNaNaNaNaNaNaNaNaNaNaNaNaNaNaNaNaNaNaNaNaNaNaNaa(lp769
NaNaNaNaNaNaNaNaNaNaNaNaNaNaNaNaNaNaNaNaNaNaNaNaNaNaNaNaNaNaNaNaNaNaNaNaNaNaNaNaNaNaNaNaNaNaNaNaNaNaNaNaNaNaNaNaNaNaNaNa(iMatrix
MatrixElement
p770
(dp771
g10
I78
sg11
I61
sg12
F-0.8333437499999966
sbaNaNaNaNaNaNaNaNaNaNaNaNaNaNaNa(iMatrix
MatrixElement
p772
(dp773
g10
I78
sg11
I77
sg12
F-1.2000300007500142
sba(iMatrix
MatrixElement
p774
(dp775
g10
I78
sg11
I78
sg12
F4.066657503749853
sba(iMatrix
MatrixElement
p776
(dp777
g10
I78
sg11
I79
sg12
F-1.1999400029998462
sbaNaNaNaNaNaNaNaNaNaNaNaNaNaNaNaNaNaNaNaNaNaNaNaNaNaNaNaNaNaNaNaNaNaNaNaNaNaNaNaNaNaNaNaNaNaNaNaNaNaNaNaNaNaNaNaNaNaNaNaNaNaNaNaNaNaa(lp778
NaNaNaNaNaNaNaNaNaNaNaNaNaNaNaNaNaNaNaNaNaNaNaNaNaNaNaNaNaNaNaNaNaNaNaNaNaNaNaNaNaNaNaNaNaNaNaNaNaNaNaNaNaNaNaNaNaNaNaNaNa(iMatrix
MatrixElement
p779
(dp780
g10
I79
sg11
I62
sg12
F-0.8333437500000008
sbaNaNaNaNaNaNaNaNaNaNaNaNaNaNaNa(iMatrix
MatrixElement
p781
(dp782
g10
I79
sg11
I78
sg12
F-1.1999400029998462
sba(iMatrix
MatrixElement
p783
(dp784
g10
I79
sg11
I79
sg12
F4.06665750374987
sba(iMatrix
MatrixElement
p785
(dp786
g10
I79
sg11
I80
sg12
F-1.2000300007500218
sbaNaNaNaNaNaNaNaNaNaNaNaNaNaNaNaNaNaNaNaNaNaNaNaNaNaNaNaNaNaNaNaNaNaNaNaNaNaNaNaNaNaNaNaNaNaNaNaNaNaNaNaNaNaNaNaNaNaNaNaNaNaNaNaNaa(lp787
NaNaNaNaNaNaNaNaNaNaNaNaNaNaNaNaNaNaNaNaNaNaNaNaNaNaNaNaNaNaNaNaNaNaNaNaNaNaNaNaNaNaNaNaNaNaNaNaNaNaNaNaNaNaNaNaNaNaNaNaNaNa(iMatrix
MatrixElement
p788
(dp789
g10
I80
sg11
I63
sg12
F-0.7916562500000011
sbaNaNaNaNaNaNaNaNaNaNaNaNaNaNaNa(iMatrix
MatrixElement
p790
(dp791
g10
I80
sg11
I79
sg12
F-1.2000300007500218
sba(iMatrix
MatrixElement
p792
(dp793
g10
I80
sg11
I80
sg12
F4.116675834083346
sba(iMatrix
MatrixElement
p794
(dp795
g10
I80
sg11
I81
sg12
F-1.333333333333326
sbaNaNaNaNaNaNaNaNaNaNaNaNaNaNaNaNaNaNaNaNaNaNaNaNaNaNaNaNaNaNaNaNaNaNaNaNaNaNaNaNaNaNaNaNaNaNaNaNaNaNaNaNaNaNaNaNaNaNaNaNaNaNaNaa(lp796
NaNaNaNaNaNaNaNaNaNaNaNaNaNaNaNaNaNaNaNaNaNaNaNaNaNaNaNaNaNaNaNaNaNaNaNaNaNaNaNaNaNaNaNaNaNaNaNaNaNaNaNaNaNaNaNaNaNaNaNaNaNaNa(iMatrix
MatrixElement
p797
(dp798
g10
I81
sg11
I64
sg12
F-0.7500000000000013
sbaNaNaNaNaNaNaNaNaNaNaNaNaNaNaNa(iMatrix
MatrixElement
p799
(dp800
g10
I81
sg11
I80
sg12
F-1.333333333333326
sba(iMatrix
MatrixElement
p801
(dp802
g10
I81
sg11
I81
sg12
F4.166666666666663
sba(iMatrix
MatrixElement
p803
(dp804
g10
I81
sg11
I82
sg12
F-1.3333333333333386
sbaNaNaNaNaNaNaNaNaNaNaNaNaNaNaNa(iMatrix
MatrixElement
p805
(dp806
g10
I81
sg11
I98
sg12
F-0.7499999999999983
sbaNaNaNaNaNaNaNaNaNaNaNaNaNaNaNaNaNaNaNaNaNaNaNaNaNaNaNaNaNaNaNaNaNaNaNaNaNaNaNaNaNaNaNaNaNaNaa(lp807
NaNaNaNaNaNaNaNaNaNaNaNaNaNaNaNaNaNaNaNaNaNaNaNaNaNaNaNaNaNaNaNaNaNaNaNaNaNaNaNaNaNaNaNaNaNaNaNaNaNaNaNaNaNaNaNaNaNaNaNaNaNaNaNa(iMatrix
MatrixElement
p808
(dp809
g10
I82
sg11
I65
sg12
F-0.750000000000003
sbaNaNaNaNaNaNaNaNaNaNaNaNaNaNaNa(iMatrix
MatrixElement
p810
(dp811
g10
I82
sg11
I81
sg12
F-1.3333333333333386
sba(iMatrix
MatrixElement
p812
(dp813
g10
I82
sg11
I82
sg12
F4.166666666666673
sba(iMatrix
MatrixElement
p814
(dp815
g10
I82
sg11
I83
sg12
F-1.3333333333333317
sbaNaNaNaNaNaNaNaNaNaNaNaNaNaNaNa(iMatrix
MatrixElement
p816
(dp817
g10
I82
sg11
I99
sg12
F-0.75
sbaNaNaNaNaNaNaNaNaNaNaNaNaNaNaNaNaNaNaNaNaNaNaNaNaNaNaNaNaNaNaNaNaNaNaNaNaNaNaNaNaNaNaNaNaNaa(lp818
NaNaNaNaNaNaNaNaNaNaNaNaNaNaNaNaNaNaNaNaNaNaNaNaNaNaNaNaNaNaNaNaNaNaNaNaNaNaNaNaNaNaNaNaNaNaNaNaNaNaNaNaNaNaNaNaNaNaNaNaNaNaNaNaNa(iMatrix
MatrixElement
p819
(dp820
g10
I83
sg11
I66
sg12
F-0.749999999999992
sbaNaNaNaNaNaNaNaNaNaNaNaNaNaNaNa(iMatrix
MatrixElement
p821
(dp822
g10
I83
sg11
I82
sg12
F-1.3333333333333317
sba(iMatrix
MatrixElement
p823
(dp824
g10
I83
sg11
I83
sg12
F4.16666666666667
sba(iMatrix
MatrixElement
p825
(dp826
g10
I83
sg11
I84
sg12
F-1.333333333333336
sbaNaNaNaNaNaNaNaNaNaNaNaNaNaNaNa(iMatrix
MatrixElement
p827
(dp828
g10
I83
sg11
I100
sg12
F-0.7500000000000094
sbaNaNaNaNaNaNaNaNaNaNaNaNaNaNaNaNaNaNaNaNaNaNaNaNaNaNaNaNaNaNaNaNaNaNaNaNaNaNaNaNaNaNaNaNaa(lp829
NaNaNaNaNaNaNaNaNaNaNaNaNaNaNaNaNaNaNaNaNaNaNaNaNaNaNaNaNaNaNaNaNaNaNaNaNaNaNaNaNaNaNaNaNaNaNaNaNaNaNaNaNaNaNaNaNaNaNaNaNaNaNaNaNaNa(iMatrix
MatrixElement
p830
(dp831
g10
I84
sg11
I67
sg12
F-0.7500000000000027
sbaNaNaNaNaNaNaNaNaNaNaNaNaNaNaNa(iMatrix
MatrixElement
p832
(dp833
g10
I84
sg11
I83
sg12
F-1.333333333333336
sba(iMatrix
MatrixElement
p834
(dp835
g10
I84
sg11
I84
sg12
F4.166666666666696
sbaNaNaNaNaNaNaNaNaNaNaNaNaNaNaNaNa(iMatrix
MatrixElement
p836
(dp837
g10
I84
sg11
I101
sg12
F-0.7500000000000078
sbaNaNaNaNaNaNaNaNaNaNaNaNaNaNaNaNaNaNaNaNaNaNaNaNaNaNaNaNaNaNaNaNaNaNaNaNaNaNaNaNaNaNaNaa(lp838
NaNaNaNaNaNaNaNaNaNaNaNaNaNaNaNa(iMatrix
MatrixElement
p839
(dp840
g10
I85
sg11
I17
sg12
F-0.8333437499999907
sbaNaNaNaNaNaNaNaNaNaNaNaNaNaNaNaNaNaNaNaNaNaNaNaNaNaNaNaNaNaNaNaNaNaNaNaNaNaNaNaNaNaNaNaNaNaNaNaNaNaNaNa(iMatrix
MatrixElement
p841
(dp842
g10
I85
sg11
I69
sg12
F-1.1999400029998295
sbaNaNaNaNaNaNaNaNaNaNaNaNaNaNaNa(iMatrix
MatrixElement
p843
(dp844
g10
I85
sg11
I85
sg12
F4.066657503749852
sba(iMatrix
MatrixElement
p845
(dp846
g10
I85
sg11
I86
sg12
F-1.2000300007500255
sbaNaNaNaNaNaNaNaNaNaNaNaNaNaNaNaNaNaNaNaNaNaNaNaNaNaNaNaNaNaNaNaNaNa(iMatrix
MatrixElement
p847
(dp848
g10
I85
sg11
I120
sg12
F-0.833343750000006
sbaNaNaNaNaNaNaNaNaNaNaNaNaNaNaNaNaNaNaNaNaNaNaNaNaa(lp849
NaNaNaNaNaNaNaNaNaNaNaNaNaNaNaNaNaNa(iMatrix
MatrixElement
p850
(dp851
g10
I86
sg11
I19
sg12
F-0.7916562499999988
sbaNaNaNaNaNaNaNaNaNaNaNaNaNaNaNaNaNaNaNaNaNaNaNaNaNaNaNaNaNaNaNaNaNaNaNaNaNaNaNaNaNaNaNaNaNaNaNaNaNaNaNaNaNaNaNaNaNaNaNaNaNaNaNaNaNa(iMatrix
MatrixElement
p852
(dp853
g10
I86
sg11
I85
sg12
F-1.2000300007500255
sba(iMatrix
MatrixElement
p854
(dp855
g10
I86
sg11
I86
sg12
F4.116675834083349
sbaNaNaNaNa(iMatrix
MatrixElement
p856
(dp857
g10
I86
sg11
I91
sg12
F-1.333333333333324
sbaNaNaNaNaNaNaNaNaNaNaNaNaNaNaNaNaNaNaNaNaNaNaNaNaNaNaNaNaNa(iMatrix
MatrixElement
p858
(dp859
g10
I86
sg11
I121
sg12
F-0.7916562499999998
sbaNaNaNaNaNaNaNaNaNaNaNaNaNaNaNaNaNaNaNaNaNaNaNaa(lp860
NaNaNaNaNaNaNaNaNaNaNaNaNaNaNaNaNaNaNaNaNaNaNaNaNaNaNaNaNaNaNaNaNaNaNaNaNaNaNaNaNaNaNaNaNaNaNaNaNaNaNaNaNaNaNaNaNaNaNaNaNaNaNaNaNaNaNaNaNa(iMatrix
MatrixElement
p861
(dp862
g10
I87
sg11
I70
sg12
F-0.75
sbaNaNaNaNaNaNaNaNaNaNaNaNaNaNaNaNa(iMatrix
MatrixElement
p863
(dp864
g10
I87
sg11
I87
sg12
F4.349999999999997
sba(iMatrix
MatrixElement
p865
(dp866
g10
I87
sg11
I88
sg12
F-1.4999999999999984
sbaNaNaNaNaNaNaNaNaNaNaNaNaNaNaNa(iMatrix
MatrixElement
p867
(dp868
g10
I87
sg11
I104
sg12
F-0.5999999999999992
sbaNaNaNaNaNaNaNaNaNaNaNaNaNaNaNaNaNaNaNaNaNaNaNaNaNaNaNaNaNaNaNaNaNaNaNaNaNaNaNaNaa(lp869
NaNaNaNaNaNaNaNaNaNaNaNaNaNaNaNaNaNaNaNaNaNaNaNaNaNaNaNaNaNaNaNaNaNaNaNaNaNaNaNaNaNaNaNaNaNaNaNaNaNaNaNaNaNaNaNaNaNaNaNaNaNaNaNaNaNaNaNaNaNa(iMatrix
MatrixElement
p870
(dp871
g10
I88
sg11
I71
sg12
F-0.7500000000000002
sbaNaNaNaNaNaNaNaNaNaNaNaNaNaNaNa(iMatrix
MatrixElement
p872
(dp873
g10
I88
sg11
I87
sg12
F-1.4999999999999984
sba(iMatrix
MatrixElement
p874
(dp875
g10
I88
sg11
I88
sg12
F4.35
sba(iMatrix
MatrixElement
p876
(dp877
g10
I88
sg11
I89
sg12
F-1.5000000000000013
sbaNaNaNaNaNaNaNaNaNaNaNaNaNaNaNa(iMatrix
MatrixElement
p878
(dp879
g10
I88
sg11
I105
sg12
F-0.6
sbaNaNaNaNaNaNaNaNaNaNaNaNaNaNaNaNaNaNaNaNaNaNaNaNaNaNaNaNaNaNaNaNaNaNaNaNaNaNaNaa(lp880
NaNaNaNaNaNaNaNaNaNaNaNaNaNaNaNaNaNaNaNaNaNaNaNaNaNaNaNaNaNaNaNaNaNaNaNaNaNaNaNaNaNaNaNaNaNaNaNaNaNaNaNaNaNaNaNaNaNaNaNaNaNaNaNaNaNaNaNaNaNaNa(iMatrix
MatrixElement
p881
(dp882
g10
I89
sg11
I72
sg12
F-0.7500000000000013
sbaNaNaNaNaNaNaNaNaNaNaNaNaNaNaNa(iMatrix
MatrixElement
p883
(dp884
g10
I89
sg11
I88
sg12
F-1.5000000000000013
sba(iMatrix
MatrixElement
p885
(dp886
g10
I89
sg11
I89
sg12
F4.350000000000001
sba(iMatrix
MatrixElement
p887
(dp888
g10
I89
sg11
I90
sg12
F-1.499999999999999
sbaNaNaNaNaNaNaNaNaNaNaNaNaNaNaNa(iMatrix
MatrixElement
p889
(dp890
g10
I89
sg11
I106
sg12
F-0.6000000000000001
sbaNaNaNaNaNaNaNaNaNaNaNaNaNaNaNaNaNaNaNaNaNaNaNaNaNaNaNaNaNaNaNaNaNaNaNaNaNaNaa(lp891
NaNaNaNaNaNaNaNaNaNaNaNaNaNaNaNaNaNaNaNaNaNaNaNaNaNaNaNaNaNaNaNaNaNaNaNaNaNaNaNaNaNaNaNaNaNaNaNaNaNaNaNaNaNaNaNaNaNaNaNaNaNaNaNaNaNaNaNaNaNaNaNa(iMatrix
MatrixElement
p892
(dp893
g10
I90
sg11
I73
sg12
F-0.7500000000000009
sbaNaNaNaNaNaNaNaNaNaNaNaNaNaNaNa(iMatrix
MatrixElement
p894
(dp895
g10
I90
sg11
I89
sg12
F-1.499999999999999
sba(iMatrix
MatrixElement
p896
(dp897
g10
I90
sg11
I90
sg12
F4.350000000000002
sbaNaNaNaNaNaNaNaNaNaNaNaNaNaNaNaNa(iMatrix
MatrixElement
p898
(dp899
g10
I90
sg11
I107
sg12
F-0.6
sbaNaNaNaNaNaNaNaNaNaNaNaNaNaNaNaNaNaNaNaNaNaNaNaNaNaNaNaNaNaNaNaNaNaNaNaNaNaa(lp900
NaNaNaNaNaNaNaNaNaNaNaNaNaNaNaNaNaNaNaNa(iMatrix
MatrixElement
p901
(dp902
g10
I91
sg11
I21
sg12
F-0.7500000000000019
sbaNaNaNaNaNaNaNaNaNaNaNaNaNaNaNaNaNaNaNaNaNaNaNaNaNaNaNaNaNaNaNaNaNaNaNaNaNaNaNaNaNaNaNaNaNaNaNaNaNaNaNaNaNaNaNaNaNaNaNaNaNaNaNaNa(iMatrix
MatrixElement
p903
(dp904
g10
I91
sg11
I86
sg12
F-1.333333333333324
sbaNaNaNaNa(iMatrix
MatrixElement
p905
(dp906
g10
I91
sg11
I91
sg12
F4.166666666666662
sba(iMatrix
MatrixElement
p907
(dp908
g10
I91
sg11
I92
sg12
F-1.3333333333333348
sbaNaNaNaNaNaNaNaNaNaNaNaNaNaNaNaNaNaNaNaNaNaNaNaNaNaNaNaNaNaNaNaNaNa(iMatrix
MatrixElement
p909
(dp910
g10
I91
sg11
I126
sg12
F-0.7500000000000007
sbaNaNaNaNaNaNaNaNaNaNaNaNaNaNaNaNaNaNaa(lp911
NaNaNaNaNaNaNaNaNaNaNaNaNaNaNaNaNaNaNaNaNaNa(iMatrix
MatrixElement
p912
(dp913
g10
I92
sg11
I23
sg12
F-0.7499999999999984
sbaNaNaNaNaNaNaNaNaNaNaNaNaNaNaNaNaNaNaNaNaNaNaNaNaNaNaNaNaNaNaNaNaNaNaNaNaNaNaNaNaNaNaNaNaNaNaNaNaNaNaNaNaNaNaNaNaNaNaNaNaNaNaNaNaNaNaNa(iMatrix
MatrixElement
p914
(dp915
g10
I92
sg11
I91
sg12
F-1.3333333333333348
sba(iMatrix
MatrixElement
p916
(dp917
g10
I92
sg11
I92
sg12
F4.166666666666666
sba(iMatrix
MatrixElement
p918
(dp919
g10
I92
sg11
I93
sg12
F-1.33333333333333
sbaNaNaNaNaNaNaNaNaNaNaNaNaNaNaNaNaNaNaNaNaNaNaNaNaNaNaNaNaNaNaNaNaNa(iMatrix
MatrixElement
p920
(dp921
g10
I92
sg11
I127
sg12
F-0.7500000000000023
sbaNaNaNaNaNaNaNaNaNaNaNaNaNaNaNaNaNaa(lp922
NaNaNaNaNaNaNaNaNaNaNaNaNaNaNaNaNaNaNaNaNaNaNaNa(iMatrix
MatrixElement
p923
(dp924
g10
I93
sg11
I25
sg12
F-0.7499999999999981
sbaNaNaNaNaNaNaNaNaNaNaNaNaNaNaNaNaNaNaNaNaNaNaNaNaNaNaNaNaNaNaNaNaNaNaNaNaNaNaNaNaNaNaNaNaNaNaNaNaNaNaNaNaNaNaNaNaNaNaNaNaNaNaNaNaNaNa(iMatrix
MatrixElement
p925
(dp926
g10
I93
sg11
I92
sg12
F-1.33333333333333
sba(iMatrix
MatrixElement
p927
(dp928
g10
I93
sg11
I93
sg12
F4.166666666666664
sba(iMatrix
MatrixElement
p929
(dp930
g10
I93
sg11
I94
sg12
F-1.3333333333333346
sbaNaNaNaNaNaNaNaNaNaNaNaNaNaNaNaNaNaNaNaNaNaNaNaNaNaNaNaNaNaNaNaNaNaNaNaNaNaNa(iMatrix
MatrixElement
p931
(dp932
g10
I93
sg11
I133
sg12
F-0.7500000000000019
sbaNaNaNaNaNaNaNaNaNaNaNaa(lp933
NaNaNaNaNaNaNaNaNaNaNaNaNaNaNaNaNaNaNaNaNaNaNaNaNaNa(iMatrix
MatrixElement
p934
(dp935
g10
I94
sg11
I27
sg12
F-0.7500000000000001
sbaNaNaNaNaNaNaNaNaNaNaNaNaNaNaNaNaNaNaNaNaNaNaNaNaNaNaNaNaNaNaNaNaNaNaNaNaNaNaNaNaNaNaNaNaNaNaNaNaNaNaNaNaNaNaNaNaNaNaNaNaNaNaNaNaNa(iMatrix
MatrixElement
p936
(dp937
g10
I94
sg11
I93
sg12
F-1.3333333333333346
sba(iMatrix
MatrixElement
p938
(dp939
g10
I94
sg11
I94
sg12
F4.166666666666672
sbaNaNaNaNaNaNaNaNaNaNaNaNaNaNaNaNaNaNaNaNaNaNaNaNaNaNaNaNaNaNaNaNaNaNaNaNaNaNaNaNa(iMatrix
MatrixElement
p940
(dp941
g10
I94
sg11
I135
sg12
F-0.7500000000000031
sbaNaNaNaNaNaNaNaNaNaa(lp942
NaNaNaNaNaNaNaNaNaNaNaNaNaNaNaNaNaNaNaNaNaNaNaNaNaNaNaNa(iMatrix
MatrixElement
p943
(dp944
g10
I95
sg11
I29
sg12
F-0.7500000000000087
sbaNaNaNaNaNaNaNaNaNaNaNaNaNaNaNaNaNaNaNaNaNaNaNaNaNaNaNaNaNaNaNaNaNaNaNaNaNaNaNaNaNaNaNaNaNaNaNaNaNaNaNaNaNaNaNaNaNaNaNaNaNaNaNaNaNa(iMatrix
MatrixElement
p945
(dp946
g10
I95
sg11
I95
sg12
F4.166666666666693
sba(iMatrix
MatrixElement
p947
(dp948
g10
I95
sg11
I96
sg12
F-1.3333333333333357
sbaNaNaNaNaNaNaNaNaNaNaNaNaNaNaNaNaNaNaNaNaNaNaNaNaNaNaNaNaNaNaNaNaNaNaNaNaNaNaNaNa(iMatrix
MatrixElement
p949
(dp950
g10
I95
sg11
I137
sg12
F-0.7499999999999958
sbaNaNaNaNaNaNaNaa(lp951
NaNaNaNaNaNaNaNaNaNaNaNaNaNaNaNaNaNaNaNaNaNaNaNaNaNaNaNaNaNa(iMatrix
MatrixElement
p952
(dp953
g10
I96
sg11
I31
sg12
F-0.750000000000006
sbaNaNaNaNaNaNaNaNaNaNaNaNaNaNaNaNaNaNaNaNaNaNaNaNaNaNaNaNaNaNaNaNaNaNaNaNaNaNaNaNaNaNaNaNaNaNaNaNaNaNaNaNaNaNaNaNaNaNaNaNaNaNaNa(iMatrix
MatrixElement
p954
(dp955
g10
I96
sg11
I95
sg12
F-1.3333333333333357
sba(iMatrix
MatrixElement
p956
(dp957
g10
I96
sg11
I96
sg12
F4.166666666666632
sba(iMatrix
MatrixElement
p958
(dp959
g10
I96
sg11
I97
sg12
F-1.3333333333333084
sbaNaNaNaNaNaNaNaNaNaNaNaNaNaNaNaNaNaNaNaNaNaNaNaNaNaNaNaNaNaNaNaNaNaNaNaNaNaNaNaNaNa(iMatrix
MatrixElement
p960
(dp961
g10
I96
sg11
I139
sg12
F-0.7499999999999822
sbaNaNaNaNaNaa(lp962
NaNaNaNaNaNaNaNaNaNaNaNaNaNaNaNaNaNaNaNaNaNaNaNaNaNaNaNaNaNaNaNa(iMatrix
MatrixElement
p963
(dp964
g10
I97
sg11
I33
sg12
F-0.7499999999999838
sbaNaNaNaNaNaNaNaNaNaNaNaNaNaNaNaNaNaNaNaNaNaNaNaNaNaNaNaNaNaNaNaNaNaNaNaNaNaNaNaNaNaNaNaNaNaNaNaNaNaNaNaNaNaNaNaNaNaNaNaNaNaNa(iMatrix
MatrixElement
p965
(dp966
g10
I97
sg11
I96
sg12
F-1.3333333333333084
sba(iMatrix
MatrixElement
p967
(dp968
g10
I97
sg11
I97
sg12
F4.166666666666643
sbaNaNaNaNa(iMatrix
MatrixElement
p969
(dp970
g10
I97
sg11
I102
sg12
F-1.3333333333333492
sbaNaNaNaNaNaNaNaNaNaNaNaNaNaNaNaNaNaNaNaNaNaNaNaNaNaNaNaNaNaNaNaNaNaNaNaNaNaNa(iMatrix
MatrixElement
p971
(dp972
g10
I97
sg11
I141
sg12
F-0.7500000000000018
sbaNaNaNaa(lp973
NaNaNaNaNaNaNaNaNaNaNaNaNaNaNaNaNaNaNaNaNaNaNaNaNaNaNaNaNaNaNaNaNaNaNaNaNaNaNaNaNaNaNaNaNaNaNaNaNaNaNaNaNaNaNaNaNaNaNaNaNaNaNaNaNaNaNaNaNaNaNaNaNaNaNaNaNaNaNaNa(iMatrix
MatrixElement
p974
(dp975
g10
I98
sg11
I81
sg12
F-0.7499999999999983
sbaNaNaNaNaNaNaNaNaNaNaNaNaNaNaNaNa(iMatrix
MatrixElement
p976
(dp977
g10
I98
sg11
I98
sg12
F4.350000000000013
sba(iMatrix
MatrixElement
p978
(dp979
g10
I98
sg11
I99
sg12
F-1.5000000000000053
sbaNaNaNaNaNaNaNaNaNaNa(iMatrix
MatrixElement
p980
(dp981
g10
I98
sg11
I110
sg12
F-0.6000000000000033
sbaNaNaNaNaNaNaNaNaNaNaNaNaNaNaNaNaNaNaNaNaNaNaNaNaNaNaNaNaNaNaNaNaNaNaa(lp982
NaNaNaNaNaNaNaNaNaNaNaNaNaNaNaNaNaNaNaNaNaNaNaNaNaNaNaNaNaNaNaNaNaNaNaNaNaNaNaNaNaNaNaNaNaNaNaNaNaNaNaNaNaNaNaNaNaNaNaNaNaNaNaNaNaNaNaNaNaNaNaNaNaNaNaNaNaNaNaNaNa(iMatrix
MatrixElement
p983
(dp984
g10
I99
sg11
I82
sg12
F-0.75
sbaNaNaNaNaNaNaNaNaNaNaNaNaNaNaNa(iMatrix
MatrixElement
p985
(dp986
g10
I99
sg11
I98
sg12
F-1.5000000000000053
sba(iMatrix
MatrixElement
p987
(dp988
g10
I99
sg11
I99
sg12
F4.350000000000012
sba(iMatrix
MatrixElement
p989
(dp990
g10
I99
sg11
I100
sg12
F-1.5000000000000089
sbaNaNaNaNaNaNaNaNaNaNa(iMatrix
MatrixElement
p991
(dp992
g10
I99
sg11
I111
sg12
F-0.5999999999999979
sbaNaNaNaNaNaNaNaNaNaNaNaNaNaNaNaNaNaNaNaNaNaNaNaNaNaNaNaNaNaNaNaNaNaa(lp993
NaNaNaNaNaNaNaNaNaNaNaNaNaNaNaNaNaNaNaNaNaNaNaNaNaNaNaNaNaNaNaNaNaNaNaNaNaNaNaNaNaNaNaNaNaNaNaNaNaNaNaNaNaNaNaNaNaNaNaNaNaNaNaNaNaNaNaNaNaNaNaNaNaNaNaNaNaNaNaNaNaNa(iMatrix
MatrixElement
p994
(dp995
g10
I100
sg11
I83
sg12
F-0.7500000000000094
sbaNaNaNaNaNaNaNaNaNaNaNaNaNaNaNa(iMatrix
MatrixElement
p996
(dp997
g10
I100
sg11
I99
sg12
F-1.5000000000000089
sba(iMatrix
MatrixElement
p998
(dp999
g10
I100
sg11
I100
sg12
F4.350000000000012
sba(iMatrix
MatrixElement
p1000
(dp1001
g10
I100
sg11
I101
sg12
F-1.4999999999999978
sbaNaNaNaNaNaNaNaNaNaNa(iMatrix
MatrixElement
p1002
(dp1003
g10
I100
sg11
I112
sg12
F-0.5999999999999956
sbaNaNaNaNaNaNaNaNaNaNaNaNaNaNaNaNaNaNaNaNaNaNaNaNaNaNaNaNaNaNaNaNaa(lp1004
NaNaNaNaNaNaNaNaNaNaNaNaNaNaNaNaNaNaNaNaNaNaNaNaNaNaNaNaNaNaNaNaNaNaNaNaNaNaNaNaNaNaNaNaNaNaNaNaNaNaNaNaNaNaNaNaNaNaNaNaNaNaNaNaNaNaNaNaNaNaNaNaNaNaNaNaNaNaNaNaNaNaNa(iMatrix
MatrixElement
p1005
(dp1006
g10
I101
sg11
I84
sg12
F-0.7500000000000078
sbaNaNaNaNaNaNaNaNaNaNaNaNaNaNaNa(iMatrix
MatrixElement
p1007
(dp1008
g10
I101
sg11
I100
sg12
F-1.4999999999999978
sba(iMatrix
MatrixElement
p1009
(dp1010
g10
I101
sg11
I101
sg12
F4.3499999999999845
sbaNaNaNaNaNaNaNaNaNaNaNa(iMatrix
MatrixElement
p1011
(dp1012
g10
I101
sg11
I113
sg12
F-0.5999999999999979
sbaNaNaNaNaNaNaNaNaNaNaNaNaNaNaNaNaNaNaNaNaNaNaNaNaNaNaNaNaNaNaNaa(lp1013
NaNaNaNaNaNaNaNaNaNaNaNaNaNaNaNaNaNaNaNaNaNaNaNaNaNaNaNaNaNaNaNaNa(iMatrix
MatrixElement
p1014
(dp1015
g10
I102
sg11
I34
sg12
F-0.7500000000000009
sbaNaNaNaNaNaNaNaNaNaNaNaNaNaNaNaNaNaNaNaNaNaNaNaNaNaNaNaNaNaNaNaNaNaNaNaNaNaNaNaNaNaNaNaNaNaNaNaNaNaNaNaNaNaNaNaNaNaNaNaNaNaNa(iMatrix
MatrixElement
p1016
(dp1017
g10
I102
sg11
I97
sg12
F-1.3333333333333492
sbaNaNaNaNa(iMatrix
MatrixElement
p1018
(dp1019
g10
I102
sg11
I102
sg12
F4.166666666666667
sba(iMatrix
MatrixElement
p1020
(dp1021
g10
I102
sg11
I103
sg12
F-1.3333333333333233
sbaNaNaNaNaNaNaNaNaNaNaNaNaNaNaNaNaNaNaNaNaNaNaNaNaNaNaNaNaNaNaNaNaNaNaNaNaNaNaNaNa(iMatrix
MatrixElement
p1022
(dp1023
g10
I102
sg11
I144
sg12
F-0.7499999999999931
sbaa(lp1024
NaNaNaNaNaNaNaNaNaNaNaNaNaNaNaNaNaNaNaNaNaNaNaNaNaNaNaNaNaNaNaNaNaNa(iMatrix
MatrixElement
p1025
(dp1026
g10
I103
sg11
I35
sg12
F-0.7916562500000048
sbaNaNaNaNaNaNaNaNaNaNaNaNaNaNaNaNaNaNaNaNaNaNaNaNaNaNaNaNaNaNaNaNaNaNaNaNaNaNaNaNaNaNaNaNaNaNaNaNaNaNaNaNaNaNaNaNaNaNaNaNaNaNaNaNaNaNa(iMatrix
MatrixElement
p1027
(dp1028
g10
I103
sg11
I102
sg12
F-1.3333333333333233
sba(iMatrix
MatrixElement
p1029
(dp1030
g10
I103
sg11
I103
sg12
F4.116675834083346
sbaNaNaNaNa(iMatrix
MatrixElement
p1031
(dp1032
g10
I103
sg11
I108
sg12
F-1.2000300007500138
sbaNaNaNaNaNaNaNaNaNaNaNaNaNaNaNaNaNaNaNaNaNaNaNaNaNaNaNaNaNaNaNaNaNaNa(iMatrix
MatrixElement
p1033
(dp1034
g10
I103
sg11
I143
sg12
F-0.791656250000004
sbaNaa(lp1035
NaNaNaNaNaNaNaNaNaNaNaNaNaNaNaNaNaNaNaNaNaNaNaNaNaNaNaNaNaNaNaNaNaNaNaNaNaNaNaNaNaNaNaNaNaNaNaNaNaNaNaNaNaNaNaNaNaNaNaNaNaNaNaNaNaNaNaNaNaNaNaNaNaNaNaNaNaNaNaNaNaNaNaNaNaNa(iMatrix
MatrixElement
p1036
(dp1037
g10
I104
sg11
I87
sg12
F-0.5999999999999992
sbaNaNaNaNaNaNaNaNaNaNaNaNaNaNaNaNa(iMatrix
MatrixElement
p1038
(dp1039
g10
I104
sg11
I104
sg12
F4.533333333333337
sba(iMatrix
MatrixElement
p1040
(dp1041
g10
I104
sg11
I105
sg12
F-1.6666666666666683
sbaNaNaNaNaNaNaNaNaNaNa(iMatrix
MatrixElement
p1042
(dp1043
g10
I104
sg11
I116
sg12
F-0.6000000000000014
sbaNaNaNaNaNaNaNaNaNaNaNaNaNaNaNaNaNaNaNaNaNaNaNaNaNaNaNaNaa(lp1044
NaNaNaNaNaNaNaNaNaNaNaNaNaNaNaNaNaNaNaNaNaNaNaNaNaNaNaNaNaNaNaNaNaNaNaNaNaNaNaNaNaNaNaNaNaNaNaNaNaNaNaNaNaNaNaNaNaNaNaNaNaNaNaNaNaNaNaNaNaNaNaNaNaNaNaNaNaNaNaNaNaNaNaNaNaNaNa(iMatrix
MatrixElement
p1045
(dp1046
g10
I105
sg11
I88
sg12
F-0.6
sbaNaNaNaNaNaNaNaNaNaNaNaNaNaNaNa(iMatrix
MatrixElement
p1047
(dp1048
g10
I105
sg11
I104
sg12
F-1.6666666666666683
sba(iMatrix
MatrixElement
p1049
(dp1050
g10
I105
sg11
I105
sg12
F4.5333333333333385
sba(iMatrix
MatrixElement
p1051
(dp1052
g10
I105
sg11
I106
sg12
F-1.666666666666669
sbaNaNaNaNaNaNaNaNaNaNa(iMatrix
MatrixElement
p1053
(dp1054
g10
I105
sg11
I117
sg12
F-0.6000000000000012
sbaNaNaNaNaNaNaNaNaNaNaNaNaNaNaNaNaNaNaNaNaNaNaNaNaNaNaNaa(lp1055
NaNaNaNaNaNaNaNaNaNaNaNaNaNaNaNaNaNaNaNaNaNaNaNaNaNaNaNaNaNaNaNaNaNaNaNaNaNaNaNaNaNaNaNaNaNaNaNaNaNaNaNaNaNaNaNaNaNaNaNaNaNaNaNaNaNaNaNaNaNaNaNaNaNaNaNaNaNaNaNaNaNaNaNaNaNaNaNa(iMatrix
MatrixElement
p1056
(dp1057
g10
I106
sg11
I89
sg12
F-0.6000000000000001
sbaNaNaNaNaNaNaNaNaNaNaNaNaNaNaNa(iMatrix
MatrixElement
p1058
(dp1059
g10
I106
sg11
I105
sg12
F-1.666666666666669
sba(iMatrix
MatrixElement
p1060
(dp1061
g10
I106
sg11
I106
sg12
F4.533333333333341
sba(iMatrix
MatrixElement
p1062
(dp1063
g10
I106
sg11
I107
sg12
F-1.6666666666666698
sbaNaNaNaNaNaNaNaNaNaNa(iMatrix
MatrixElement
p1064
(dp1065
g10
I106
sg11
I118
sg12
F-0.600000000000002
sbaNaNaNaNaNaNaNaNaNaNaNaNaNaNaNaNaNaNaNaNaNaNaNaNaNaNaa(lp1066
NaNaNaNaNaNaNaNaNaNaNaNaNaNaNaNaNaNaNaNaNaNaNaNaNaNaNaNaNaNaNaNaNaNaNaNaNaNaNaNaNaNaNaNaNaNaNaNaNaNaNaNaNaNaNaNaNaNaNaNaNaNaNaNaNaNaNaNaNaNaNaNaNaNaNaNaNaNaNaNaNaNaNaNaNaNaNaNaNa(iMatrix
MatrixElement
p1067
(dp1068
g10
I107
sg11
I90
sg12
F-0.6
sbaNaNaNaNaNaNaNaNaNaNaNaNaNaNaNa(iMatrix
MatrixElement
p1069
(dp1070
g10
I107
sg11
I106
sg12
F-1.6666666666666698
sba(iMatrix
MatrixElement
p1071
(dp1072
g10
I107
sg11
I107
sg12
F4.533333333333335
sbaNaNaNaNaNaNaNaNaNaNaNa(iMatrix
MatrixElement
p1073
(dp1074
g10
I107
sg11
I119
sg12
F-0.5999999999999999
sbaNaNaNaNaNaNaNaNaNaNaNaNaNaNaNaNaNaNaNaNaNaNaNaNaNaa(lp1075
NaNaNaNaNaNaNaNaNaNaNaNaNaNaNaNaNaNaNaNaNaNaNaNaNaNaNaNaNaNaNaNaNaNaNaNaNaNaNaNaNaNaNaNaNaNaNaNaNaNa(iMatrix
MatrixElement
p1076
(dp1077
g10
I108
sg11
I51
sg12
F-0.8333437500000009
sbaNaNaNaNaNaNaNaNaNaNaNaNaNaNaNaNaNaNaNaNaNaNaNaNaNaNaNaNaNaNaNaNaNaNaNaNaNaNaNaNaNaNaNaNaNaNaNaNaNaNaNa(iMatrix
MatrixElement
p1078
(dp1079
g10
I108
sg11
I103
sg12
F-1.2000300007500138
sbaNaNaNaNa(iMatrix
MatrixElement
p1080
(dp1081
g10
I108
sg11
I108
sg12
F4.066657503749883
sba(iMatrix
MatrixElement
p1082
(dp1083
g10
I108
sg11
I109
sg12
F-1.1999400029998557
sbaNaNaNaNaNaNaNaNaNaNaNaNaNaNaNaNaNaNaNaNaNaNaNaNaNaNaNaNaNaNaNaNa(iMatrix
MatrixElement
p1084
(dp1085
g10
I108
sg11
I142
sg12
F-0.8333437500000128
sbaNaNaa(lp1086
NaNaNaNaNaNaNaNaNaNaNaNaNaNaNaNaNaNaNaNaNaNaNaNaNaNaNaNaNaNaNaNaNaNaNaNaNaNaNaNaNaNaNaNaNaNaNaNaNaNaNa(iMatrix
MatrixElement
p1087
(dp1088
g10
I109
sg11
I52
sg12
F-0.833343749999994
sbaNaNaNaNaNaNaNaNaNaNaNaNaNaNaNaNaNaNaNaNaNaNaNaNaNaNaNaNaNaNaNaNaNaNaNaNaNaNaNaNaNaNaNaNaNaNaNaNaNaNaNaNaNaNaNa(iMatrix
MatrixElement
p1089
(dp1090
g10
I109
sg11
I108
sg12
F-1.1999400029998557
sba(iMatrix
MatrixElement
p1091
(dp1092
g10
I109
sg11
I109
sg12
F4.066657503749856
sbaNaNaNaNa(iMatrix
MatrixElement
p1093
(dp1094
g10
I109
sg11
I114
sg12
F-1.2000300007500058
sbaNaNaNaNaNaNaNaNaNaNaNaNaNaNaNaNaNaNaNaNaNaNaNaNaNa(iMatrix
MatrixElement
p1095
(dp1096
g10
I109
sg11
I140
sg12
F-0.8333437500000005
sbaNaNaNaNaa(lp1097
NaNaNaNaNaNaNaNaNaNaNaNaNaNaNaNaNaNaNaNaNaNaNaNaNaNaNaNaNaNaNaNaNaNaNaNaNaNaNaNaNaNaNaNaNaNaNaNaNaNaNaNaNaNaNaNaNaNaNaNaNaNaNaNaNaNaNaNaNaNaNaNaNaNaNaNaNaNaNaNaNaNaNaNaNaNaNaNaNaNaNaNaNaNaNaNaNa(iMatrix
MatrixElement
p1098
(dp1099
g10
I110
sg11
I98
sg12
F-0.6000000000000033
sbaNaNaNaNaNaNaNaNaNaNaNa(iMatrix
MatrixElement
p1100
(dp1101
g10
I110
sg11
I110
sg12
F4.5333333333333385
sba(iMatrix
MatrixElement
p1102
(dp1103
g10
I110
sg11
I111
sg12
F-1.6666666666666643
sbaNaNaNaNaNaNaNaNaNaNa(iMatrix
MatrixElement
p1104
(dp1105
g10
I110
sg11
I122
sg12
F-0.6000000000000035
sbaNaNaNaNaNaNaNaNaNaNaNaNaNaNaNaNaNaNaNaNaNaNaa(lp1106
NaNaNaNaNaNaNaNaNaNaNaNaNaNaNaNaNaNaNaNaNaNaNaNaNaNaNaNaNaNaNaNaNaNaNaNaNaNaNaNaNaNaNaNaNaNaNaNaNaNaNaNaNaNaNaNaNaNaNaNaNaNaNaNaNaNaNaNaNaNaNaNaNaNaNaNaNaNaNaNaNaNaNaNaNaNaNaNaNaNaNaNaNaNaNaNaNaNa(iMatrix
MatrixElement
p1107
(dp1108
g10
I111
sg11
I99
sg12
F-0.5999999999999979
sbaNaNaNaNaNaNaNaNaNaNa(iMatrix
MatrixElement
p1109
(dp1110
g10
I111
sg11
I110
sg12
F-1.6666666666666643
sba(iMatrix
MatrixElement
p1111
(dp1112
g10
I111
sg11
I111
sg12
F4.533333333333338
sba(iMatrix
MatrixElement
p1113
(dp1114
g10
I111
sg11
I112
sg12
F-1.666666666666669
sbaNaNaNaNaNaNaNaNaNaNa(iMatrix
MatrixElement
p1115
(dp1116
g10
I111
sg11
I123
sg12
F-0.6000000000000063
sbaNaNaNaNaNaNaNaNaNaNaNaNaNaNaNaNaNaNaNaNaNaa(lp1117
NaNaNaNaNaNaNaNaNaNaNaNaNaNaNaNaNaNaNaNaNaNaNaNaNaNaNaNaNaNaNaNaNaNaNaNaNaNaNaNaNaNaNaNaNaNaNaNaNaNaNaNaNaNaNaNaNaNaNaNaNaNaNaNaNaNaNaNaNaNaNaNaNaNaNaNaNaNaNaNaNaNaNaNaNaNaNaNaNaNaNaNaNaNaNaNaNaNaNa(iMatrix
MatrixElement
p1118
(dp1119
g10
I112
sg11
I100
sg12
F-0.5999999999999956
sbaNaNaNaNaNaNaNaNaNaNa(iMatrix
MatrixElement
p1120
(dp1121
g10
I112
sg11
I111
sg12
F-1.666666666666669
sba(iMatrix
MatrixElement
p1122
(dp1123
g10
I112
sg11
I112
sg12
F4.533333333333344
sba(iMatrix
MatrixElement
p1124
(dp1125
g10
I112
sg11
I113
sg12
F-1.666666666666676
sbaNaNaNaNaNaNaNaNaNaNa(iMatrix
MatrixElement
p1126
(dp1127
g10
I112
sg11
I124
sg12
F-0.600000000000003
sbaNaNaNaNaNaNaNaNaNaNaNaNaNaNaNaNaNaNaNaNaa(lp1128
NaNaNaNaNaNaNaNaNaNaNaNaNaNaNaNaNaNaNaNaNaNaNaNaNaNaNaNaNaNaNaNaNaNaNaNaNaNaNaNaNaNaNaNaNaNaNaNaNaNaNaNaNaNaNaNaNaNaNaNaNaNaNaNaNaNaNaNaNaNaNaNaNaNaNaNaNaNaNaNaNaNaNaNaNaNaNaNaNaNaNaNaNaNaNaNaNaNaNaNa(iMatrix
MatrixElement
p1129
(dp1130
g10
I113
sg11
I101
sg12
F-0.5999999999999979
sbaNaNaNaNaNaNaNaNaNaNa(iMatrix
MatrixElement
p1131
(dp1132
g10
I113
sg11
I112
sg12
F-1.666666666666676
sba(iMatrix
MatrixElement
p1133
(dp1134
g10
I113
sg11
I113
sg12
F4.533333333333317
sbaNaNaNaNaNaNaNaNaNaNaNa(iMatrix
MatrixElement
p1135
(dp1136
g10
I113
sg11
I125
sg12
F-0.5999999999999941
sbaNaNaNaNaNaNaNaNaNaNaNaNaNaNaNaNaNaNaNaa(lp1137
NaNaNaNaNaNaNaNaNaNaNaNaNaNaNaNaNaNaNaNaNaNaNaNaNaNaNaNaNaNaNaNaNaNaNaNaNaNaNaNaNaNaNaNaNaNaNaNaNaNaNaNaNaNaNaNaNaNaNaNaNaNaNaNaNaNaNa(iMatrix
MatrixElement
p1138
(dp1139
g10
I114
sg11
I68
sg12
F-0.833312499999991
sbaNaNaNaNaNaNaNaNaNaNaNaNaNaNaNaNaNaNaNaNaNaNaNaNaNaNaNaNaNaNaNaNaNaNaNaNaNaNaNaNa(iMatrix
MatrixElement
p1140
(dp1141
g10
I114
sg11
I109
sg12
F-1.2000300007500058
sbaNaNaNaNa(iMatrix
MatrixElement
p1142
(dp1143
g10
I114
sg11
I114
sg12
F4.066685001500003
sba(iMatrix
MatrixElement
p1144
(dp1145
g10
I114
sg11
I115
sg12
F-1.2000300007500089
sbaNaNaNaNaNaNaNaNaNaNaNaNaNaNaNaNaNaNaNaNaNaNa(iMatrix
MatrixElement
p1146
(dp1147
g10
I114
sg11
I138
sg12
F-0.8333124999999976
sbaNaNaNaNaNaNaa(lp1148
NaNaNaNaNaNaNaNaNaNaNaNaNaNaNaNaNaNaNaNaNaNaNaNaNaNaNaNaNaNaNaNaNaNaNaNaNaNaNaNaNaNaNaNaNaNaNaNaNaNaNaNaNaNaNaNaNaNaNaNaNaNaNaNaNaNaNaNa(iMatrix
MatrixElement
p1149
(dp1150
g10
I115
sg11
I69
sg12
F-0.8333437499999903
sbaNaNaNaNaNaNaNaNaNaNaNaNaNaNaNaNaNaNaNaNaNaNaNaNaNaNaNaNaNaNaNaNaNaNaNaNaNaNaNaNaNaNaNaNa(iMatrix
MatrixElement
p1151
(dp1152
g10
I115
sg11
I114
sg12
F-1.2000300007500089
sba(iMatrix
MatrixElement
p1153
(dp1154
g10
I115
sg11
I115
sg12
F4.066657503749868
sbaNaNaNaNa(iMatrix
MatrixElement
p1155
(dp1156
g10
I115
sg11
I120
sg12
F-1.1999400029998624
sbaNaNaNaNaNaNaNaNaNaNaNaNaNaNaNa(iMatrix
MatrixElement
p1157
(dp1158
g10
I115
sg11
I136
sg12
F-0.833343750000006
sbaNaNaNaNaNaNaNaNaa(lp1159
NaNaNaNaNaNaNaNaNaNaNaNaNaNaNaNaNaNaNaNaNaNaNaNaNaNaNaNaNaNaNaNaNaNaNaNaNaNaNaNaNaNaNaNaNaNaNaNaNaNaNaNaNaNaNaNaNaNaNaNaNaNaNaNaNaNaNaNaNaNaNaNaNaNaNaNaNaNaNaNaNaNaNaNaNaNaNaNaNaNaNaNaNaNaNaNaNaNaNaNaNaNaNa(iMatrix
MatrixElement
p1160
(dp1161
g10
I116
sg11
I104
sg12
F-0.6000000000000014
sbaNaNaNaNaNaNaNaNaNaNaNa(iMatrix
MatrixElement
p1162
(dp1163
g10
I116
sg11
I116
sg12
F4.349999999999997
sba(iMatrix
MatrixElement
p1164
(dp1165
g10
I116
sg11
I117
sg12
F-1.4999999999999984
sbaNaNaNaNaNaNaNaNaNaNa(iMatrix
MatrixElement
p1166
(dp1167
g10
I116
sg11
I128
sg12
F-0.7499999999999971
sbaNaNaNaNaNaNaNaNaNaNaNaNaNaNaNaNaa(lp1168
NaNaNaNaNaNaNaNaNaNaNaNaNaNaNaNaNaNaNaNaNaNaNaNaNaNaNaNaNaNaNaNaNaNaNaNaNaNaNaNaNaNaNaNaNaNaNaNaNaNaNaNaNaNaNaNaNaNaNaNaNaNaNaNaNaNaNaNaNaNaNaNaNaNaNaNaNaNaNaNaNaNaNaNaNaNaNaNaNaNaNaNaNaNaNaNaNaNaNaNaNaNaNaNa(iMatrix
MatrixElement
p1169
(dp1170
g10
I117
sg11
I105
sg12
F-0.6000000000000012
sbaNaNaNaNaNaNaNaNaNaNa(iMatrix
MatrixElement
p1171
(dp1172
g10
I117
sg11
I116
sg12
F-1.4999999999999984
sba(iMatrix
MatrixElement
p1173
(dp1174
g10
I117
sg11
I117
sg12
F4.349999999999994
sba(iMatrix
MatrixElement
p1175
(dp1176
g10
I117
sg11
I118
sg12
F-1.499999999999998
sbaNaNaNaNaNaNaNaNaNaNa(iMatrix
MatrixElement
p1177
(dp1178
g10
I117
sg11
I129
sg12
F-0.7499999999999969
sbaNaNaNaNaNaNaNaNaNaNaNaNaNaNaNaa(lp1179
NaNaNaNaNaNaNaNaNaNaNaNaNaNaNaNaNaNaNaNaNaNaNaNaNaNaNaNaNaNaNaNaNaNaNaNaNaNaNaNaNaNaNaNaNaNaNaNaNaNaNaNaNaNaNaNaNaNaNaNaNaNaNaNaNaNaNaNaNaNaNaNaNaNaNaNaNaNaNaNaNaNaNaNaNaNaNaNaNaNaNaNaNaNaNaNaNaNaNaNaNaNaNaNaNa(iMatrix
MatrixElement
p1180
(dp1181
g10
I118
sg11
I106
sg12
F-0.600000000000002
sbaNaNaNaNaNaNaNaNaNaNa(iMatrix
MatrixElement
p1182
(dp1183
g10
I118
sg11
I117
sg12
F-1.499999999999998
sba(iMatrix
MatrixElement
p1184
(dp1185
g10
I118
sg11
I118
sg12
F4.349999999999995
sba(iMatrix
MatrixElement
p1186
(dp1187
g10
I118
sg11
I119
sg12
F-1.4999999999999976
sbaNaNaNaNaNaNaNaNaNaNa(iMatrix
MatrixElement
p1188
(dp1189
g10
I118
sg11
I130
sg12
F-0.7499999999999973
sbaNaNaNaNaNaNaNaNaNaNaNaNaNaNaa(lp1190
NaNaNaNaNaNaNaNaNaNaNaNaNaNaNaNaNaNaNaNaNaNaNaNaNaNaNaNaNaNaNaNaNaNaNaNaNaNaNaNaNaNaNaNaNaNaNaNaNaNaNaNaNaNaNaNaNaNaNaNaNaNaNaNaNaNaNaNaNaNaNaNaNaNaNaNaNaNaNaNaNaNaNaNaNaNaNaNaNaNaNaNaNaNaNaNaNaNaNaNaNaNaNaNaNaNa(iMatrix
MatrixElement
p1191
(dp1192
g10
I119
sg11
I107
sg12
F-0.5999999999999999
sbaNaNaNaNaNaNaNaNaNaNa(iMatrix
MatrixElement
p1193
(dp1194
g10
I119
sg11
I118
sg12
F-1.4999999999999976
sba(iMatrix
MatrixElement
p1195
(dp1196
g10
I119
sg11
I119
sg12
F4.349999999999984
sbaNaNaNaNaNaNaNaNaNaNaNa(iMatrix
MatrixElement
p1197
(dp1198
g10
I119
sg11
I131
sg12
F-0.7499999999999964
sbaNaNaNaNaNaNaNaNaNaNaNaNaNaa(lp1199
NaNaNaNaNaNaNaNaNaNaNaNaNaNaNaNaNaNaNaNaNaNaNaNaNaNaNaNaNaNaNaNaNaNaNaNaNaNaNaNaNaNaNaNaNaNaNaNaNaNaNaNaNaNaNaNaNaNaNaNaNaNaNaNaNaNaNaNaNaNaNaNaNaNaNaNaNaNaNaNaNaNaNaNa(iMatrix
MatrixElement
p1200
(dp1201
g10
I120
sg11
I85
sg12
F-0.833343750000006
sbaNaNaNaNaNaNaNaNaNaNaNaNaNaNaNaNaNaNaNaNaNaNaNaNaNaNaNaNaNa(iMatrix
MatrixElement
p1202
(dp1203
g10
I120
sg11
I115
sg12
F-1.1999400029998624
sbaNaNaNaNa(iMatrix
MatrixElement
p1204
(dp1205
g10
I120
sg11
I120
sg12
F4.06665750374989
sba(iMatrix
MatrixElement
p1206
(dp1207
g10
I120
sg11
I121
sg12
F-1.2000300007500209
sbaNaNaNaNaNaNaNaNaNaNaNaNa(iMatrix
MatrixElement
p1208
(dp1209
g10
I120
sg11
I134
sg12
F-0.8333437500000003
sbaNaNaNaNaNaNaNaNaNaNaa(lp1210
NaNaNaNaNaNaNaNaNaNaNaNaNaNaNaNaNaNaNaNaNaNaNaNaNaNaNaNaNaNaNaNaNaNaNaNaNaNaNaNaNaNaNaNaNaNaNaNaNaNaNaNaNaNaNaNaNaNaNaNaNaNaNaNaNaNaNaNaNaNaNaNaNaNaNaNaNaNaNaNaNaNaNaNaNa(iMatrix
MatrixElement
p1211
(dp1212
g10
I121
sg11
I86
sg12
F-0.7916562499999998
sbaNaNaNaNaNaNaNaNaNaNaNaNaNaNaNaNaNaNaNaNaNaNaNaNaNaNaNaNaNaNaNaNaNa(iMatrix
MatrixElement
p1213
(dp1214
g10
I121
sg11
I120
sg12
F-1.2000300007500209
sba(iMatrix
MatrixElement
p1215
(dp1216
g10
I121
sg11
I121
sg12
F4.116675834083356
sbaNaNaNaNa(iMatrix
MatrixElement
p1217
(dp1218
g10
I121
sg11
I126
sg12
F-1.3333333333333357
sbaNaNaNaNaNa(iMatrix
MatrixElement
p1219
(dp1220
g10
I121
sg11
I132
sg12
F-0.7916562499999991
sbaNaNaNaNaNaNaNaNaNaNaNaNaa(lp1221
NaNaNaNaNaNaNaNaNaNaNaNaNaNaNaNaNaNaNaNaNaNaNaNaNaNaNaNaNaNaNaNaNaNaNaNaNaNaNaNaNaNaNaNaNaNaNaNaNaNaNaNaNaNaNaNaNaNaNaNaNaNaNaNaNaNaNaNaNaNaNaNaNaNaNaNaNaNaNaNaNaNaNaNaNaNaNaNaNaNaNaNaNaNaNaNaNaNaNaNaNaNaNaNaNaNaNaNaNa(iMatrix
MatrixElement
p1222
(dp1223
g10
I122
sg11
I110
sg12
F-0.6000000000000035
sbaNaNaNaNaNaNaNaNaNaNaNa(iMatrix
MatrixElement
p1224
(dp1225
g10
I122
sg11
I122
sg12
F4.350000000000079
sba(iMatrix
MatrixElement
p1226
(dp1227
g10
I122
sg11
I123
sg12
F-1.5000000000000213
sbaNaNaNaNaNaNaNaNaNaNaNaNaNaNaNaNaNaNaNaNa(iMatrix
MatrixElement
p1228
(dp1229
g10
I122
sg11
I144
sg12
F-0.7500000000000203
sbaa(lp1230
NaNaNaNaNaNaNaNaNaNaNaNaNaNaNaNaNaNaNaNaNaNaNaNaNaNaNaNaNaNaNaNaNaNaNaNaNaNaNaNaNaNaNaNaNaNaNaNaNaNaNaNaNaNaNaNaNaNaNaNaNaNaNaNaNaNaNaNaNaNaNaNaNaNaNaNaNaNaNaNaNaNaNaNaNaNaNaNaNaNaNaNaNaNaNaNaNaNaNaNaNaNaNaNaNaNaNaNaNaNa(iMatrix
MatrixElement
p1231
(dp1232
g10
I123
sg11
I111
sg12
F-0.6000000000000063
sbaNaNaNaNaNaNaNaNaNaNa(iMatrix
MatrixElement
p1233
(dp1234
g10
I123
sg11
I122
sg12
F-1.5000000000000213
sba(iMatrix
MatrixElement
p1235
(dp1236
g10
I123
sg11
I123
sg12
F4.350000000000048
sba(iMatrix
MatrixElement
p1237
(dp1238
g10
I123
sg11
I124
sg12
F-1.5000000000000167
sbaNaNaNaNaNaNaNaNaNaNaNaNaNaNaNaNa(iMatrix
MatrixElement
p1239
(dp1240
g10
I123
sg11
I141
sg12
F-0.7500000000000033
sbaNaNaNaa(lp1241
NaNaNaNaNaNaNaNaNaNaNaNaNaNaNaNaNaNaNaNaNaNaNaNaNaNaNaNaNaNaNaNaNaNaNaNaNaNaNaNaNaNaNaNaNaNaNaNaNaNaNaNaNaNaNaNaNaNaNaNaNaNaNaNaNaNaNaNaNaNaNaNaNaNaNaNaNaNaNaNaNaNaNaNaNaNaNaNaNaNaNaNaNaNaNaNaNaNaNaNaNaNaNaNaNaNaNaNaNaNaNa(iMatrix
MatrixElement
p1242
(dp1243
g10
I124
sg11
I112
sg12
F-0.600000000000003
sbaNaNaNaNaNaNaNaNaNaNa(iMatrix
MatrixElement
p1244
(dp1245
g10
I124
sg11
I123
sg12
F-1.5000000000000167
sba(iMatrix
MatrixElement
p1246
(dp1247
g10
I124
sg11
I124
sg12
F4.35
sba(iMatrix
MatrixElement
p1248
(dp1249
g10
I124
sg11
I125
sg12
F-1.4999999999999818
sbaNaNaNaNaNaNaNaNaNaNaNaNaNa(iMatrix
MatrixElement
p1250
(dp1251
g10
I124
sg11
I139
sg12
F-0.7499999999999982
sbaNaNaNaNaNaa(lp1252
NaNaNaNaNaNaNaNaNaNaNaNaNaNaNaNaNaNaNaNaNaNaNaNaNaNaNaNaNaNaNaNaNaNaNaNaNaNaNaNaNaNaNaNaNaNaNaNaNaNaNaNaNaNaNaNaNaNaNaNaNaNaNaNaNaNaNaNaNaNaNaNaNaNaNaNaNaNaNaNaNaNaNaNaNaNaNaNaNaNaNaNaNaNaNaNaNaNaNaNaNaNaNaNaNaNaNaNaNaNaNaNa(iMatrix
MatrixElement
p1253
(dp1254
g10
I125
sg11
I113
sg12
F-0.5999999999999941
sbaNaNaNaNaNaNaNaNaNaNa(iMatrix
MatrixElement
p1255
(dp1256
g10
I125
sg11
I124
sg12
F-1.4999999999999818
sba(iMatrix
MatrixElement
p1257
(dp1258
g10
I125
sg11
I125
sg12
F4.35000000000001
sbaNaNaNaNaNaNaNaNaNaNaNa(iMatrix
MatrixElement
p1259
(dp1260
g10
I125
sg11
I137
sg12
F-0.7500000000000102
sbaNaNaNaNaNaNaNaa(lp1261
NaNaNaNaNaNaNaNaNaNaNaNaNaNaNaNaNaNaNaNaNaNaNaNaNaNaNaNaNaNaNaNaNaNaNaNaNaNaNaNaNaNaNaNaNaNaNaNaNaNaNaNaNaNaNaNaNaNaNaNaNaNaNaNaNaNaNaNaNaNaNaNaNaNaNaNaNaNaNaNaNaNaNaNaNaNaNaNaNaNa(iMatrix
MatrixElement
p1262
(dp1263
g10
I126
sg11
I91
sg12
F-0.7500000000000007
sbaNaNaNaNaNaNaNaNaNaNaNaNaNaNaNaNaNaNaNaNaNaNaNaNaNaNaNaNaNa(iMatrix
MatrixElement
p1264
(dp1265
g10
I126
sg11
I121
sg12
F-1.3333333333333357
sbaNaNaNaNa(iMatrix
MatrixElement
p1266
(dp1267
g10
I126
sg11
I126
sg12
F4.1666666666666705
sba(iMatrix
MatrixElement
p1268
(dp1269
g10
I126
sg11
I127
sg12
F-1.3333333333333353
sbaNaNaNa(iMatrix
MatrixElement
p1270
(dp1271
g10
I126
sg11
I131
sg12
F-0.7499999999999993
sbaNaNaNaNaNaNaNaNaNaNaNaNaNaa(lp1272
NaNaNaNaNaNaNaNaNaNaNaNaNaNaNaNaNaNaNaNaNaNaNaNaNaNaNaNaNaNaNaNaNaNaNaNaNaNaNaNaNaNaNaNaNaNaNaNaNaNaNaNaNaNaNaNaNaNaNaNaNaNaNaNaNaNaNaNaNaNaNaNaNaNaNaNaNaNaNaNaNaNaNaNaNaNaNaNaNaNaNa(iMatrix
MatrixElement
p1273
(dp1274
g10
I127
sg11
I92
sg12
F-0.7500000000000023
sbaNaNaNaNaNaNaNaNaNaNaNaNaNaNaNaNaNaNaNaNaNaNaNaNaNaNaNaNaNaNaNaNaNa(iMatrix
MatrixElement
p1275
(dp1276
g10
I127
sg11
I126
sg12
F-1.3333333333333353
sba(iMatrix
MatrixElement
p1277
(dp1278
g10
I127
sg11
I127
sg12
F4.166666666666678
sbaNaNa(iMatrix
MatrixElement
p1279
(dp1280
g10
I127
sg11
I130
sg12
F-0.7500000000000011
sbaNaNa(iMatrix
MatrixElement
p1281
(dp1282
g10
I127
sg11
I133
sg12
F-1.3333333333333388
sbaNaNaNaNaNaNaNaNaNaNaNaa(lp1283
NaNaNaNaNaNaNaNaNaNaNaNaNaNaNaNaNaNaNaNaNaNaNaNaNaNaNaNaNaNaNaNaNaNaNaNaNaNaNaNaNaNaNaNaNaNaNaNaNaNaNaNaNaNaNaNaNaNaNaNaNaNaNaNaNaNaNaNaNaNaNaNaNaNaNaNaNaNaNaNaNaNaNaNaNaNaNaNaNaNaNaNaNaNaNaNaNaNaNaNaNaNaNaNaNaNaNaNaNaNaNaNaNaNaNa(iMatrix
MatrixElement
p1284
(dp1285
g10
I128
sg11
I116
sg12
F-0.7499999999999971
sbaNaNaNaNaNaNaNaNaNaNaNa(iMatrix
MatrixElement
p1286
(dp1287
g10
I128
sg11
I128
sg12
F4.166666666666661
sba(iMatrix
MatrixElement
p1288
(dp1289
g10
I128
sg11
I129
sg12
F-1.3333333333333317
sbaNaNaNaNaNa(iMatrix
MatrixElement
p1290
(dp1291
g10
I128
sg11
I135
sg12
F-0.7500000000000001
sbaNaNaNaNaNaNaNaNaNaa(lp1292
NaNaNaNaNaNaNaNaNaNaNaNaNaNaNaNaNaNaNaNaNaNaNaNaNaNaNaNaNaNaNaNaNaNaNaNaNaNaNaNaNaNaNaNaNaNaNaNaNaNaNaNaNaNaNaNaNaNaNaNaNaNaNaNaNaNaNaNaNaNaNaNaNaNaNaNaNaNaNaNaNaNaNaNaNaNaNaNaNaNaNaNaNaNaNaNaNaNaNaNaNaNaNaNaNaNaNaNaNaNaNaNaNaNaNaNa(iMatrix
MatrixElement
p1293
(dp1294
g10
I129
sg11
I117
sg12
F-0.7499999999999969
sbaNaNaNaNaNaNaNaNaNaNa(iMatrix
MatrixElement
p1295
(dp1296
g10
I129
sg11
I128
sg12
F-1.3333333333333317
sba(iMatrix
MatrixElement
p1297
(dp1298
g10
I129
sg11
I129
sg12
F4.166666666666666
sba(iMatrix
MatrixElement
p1299
(dp1300
g10
I129
sg11
I130
sg12
F-1.3333333333333357
sbaNaNa(iMatrix
MatrixElement
p1301
(dp1302
g10
I129
sg11
I133
sg12
F-0.7500000000000016
sbaNaNaNaNaNaNaNaNaNaNaNaa(lp1303
NaNaNaNaNaNaNaNaNaNaNaNaNaNaNaNaNaNaNaNaNaNaNaNaNaNaNaNaNaNaNaNaNaNaNaNaNaNaNaNaNaNaNaNaNaNaNaNaNaNaNaNaNaNaNaNaNaNaNaNaNaNaNaNaNaNaNaNaNaNaNaNaNaNaNaNaNaNaNaNaNaNaNaNaNaNaNaNaNaNaNaNaNaNaNaNaNaNaNaNaNaNaNaNaNaNaNaNaNaNaNaNaNaNaNaNaNa(iMatrix
MatrixElement
p1304
(dp1305
g10
I130
sg11
I118
sg12
F-0.7499999999999973
sbaNaNaNaNaNaNaNaNa(iMatrix
MatrixElement
p1306
(dp1307
g10
I130
sg11
I127
sg12
F-0.7500000000000011
sbaNa(iMatrix
MatrixElement
p1308
(dp1309
g10
I130
sg11
I129
sg12
F-1.3333333333333357
sba(iMatrix
MatrixElement
p1310
(dp1311
g10
I130
sg11
I130
sg12
F4.166666666666664
sba(iMatrix
MatrixElement
p1312
(dp1313
g10
I130
sg11
I131
sg12
F-1.3333333333333306
sbaNaNaNaNaNaNaNaNaNaNaNaNaNaa(lp1314
NaNaNaNaNaNaNaNaNaNaNaNaNaNaNaNaNaNaNaNaNaNaNaNaNaNaNaNaNaNaNaNaNaNaNaNaNaNaNaNaNaNaNaNaNaNaNaNaNaNaNaNaNaNaNaNaNaNaNaNaNaNaNaNaNaNaNaNaNaNaNaNaNaNaNaNaNaNaNaNaNaNaNaNaNaNaNaNaNaNaNaNaNaNaNaNaNaNaNaNaNaNaNaNaNaNaNaNaNaNaNaNaNaNaNaNaNaNa(iMatrix
MatrixElement
p1315
(dp1316
g10
I131
sg11
I119
sg12
F-0.7499999999999964
sbaNaNaNaNaNaNa(iMatrix
MatrixElement
p1317
(dp1318
g10
I131
sg11
I126
sg12
F-0.7499999999999993
sbaNaNaNa(iMatrix
MatrixElement
p1319
(dp1320
g10
I131
sg11
I130
sg12
F-1.3333333333333306
sba(iMatrix
MatrixElement
p1321
(dp1322
g10
I131
sg11
I131
sg12
F4.166666666666661
sba(iMatrix
MatrixElement
p1323
(dp1324
g10
I131
sg11
I132
sg12
F-1.3333333333333344
sbaNaNaNaNaNaNaNaNaNaNaNaNaa(lp1325
NaNaNaNaNaNaNaNaNaNaNaNaNaNaNaNaNaNaNaNaNaNaNaNaNaNaNaNaNaNaNaNaNaNaNaNaNaNaNaNaNaNaNaNaNaNaNaNaNaNaNaNaNaNaNaNaNaNaNaNaNaNaNaNaNaNaNaNaNaNaNaNaNaNaNaNaNaNaNaNaNaNaNaNaNaNaNaNaNaNaNaNaNaNaNaNaNaNaNaNaNaNaNaNaNaNaNaNaNaNaNaNaNaNaNaNaNaNaNaNa(iMatrix
MatrixElement
p1326
(dp1327
g10
I132
sg11
I121
sg12
F-0.7916562499999991
sbaNaNaNaNaNaNaNaNaNa(iMatrix
MatrixElement
p1328
(dp1329
g10
I132
sg11
I131
sg12
F-1.3333333333333344
sba(iMatrix
MatrixElement
p1330
(dp1331
g10
I132
sg11
I132
sg12
F4.116675834083349
sbaNa(iMatrix
MatrixElement
p1332
(dp1333
g10
I132
sg11
I134
sg12
F-1.200030000750016
sbaNaNaNaNaNaNaNaNaNaNaa(lp1334
NaNaNaNaNaNaNaNaNaNaNaNaNaNaNaNaNaNaNaNaNaNaNaNaNaNaNaNaNaNaNaNaNaNaNaNaNaNaNaNaNaNaNaNaNaNaNaNaNaNaNaNaNaNaNaNaNaNaNaNaNaNaNaNaNaNaNaNaNaNaNaNaNaNaNaNaNaNaNaNaNaNaNaNaNaNaNaNaNaNaNaNa(iMatrix
MatrixElement
p1335
(dp1336
g10
I133
sg11
I93
sg12
F-0.7500000000000019
sbaNaNaNaNaNaNaNaNaNaNaNaNaNaNaNaNaNaNaNaNaNaNaNaNaNaNaNaNaNaNaNaNaNa(iMatrix
MatrixElement
p1337
(dp1338
g10
I133
sg11
I127
sg12
F-1.3333333333333388
sbaNa(iMatrix
MatrixElement
p1339
(dp1340
g10
I133
sg11
I129
sg12
F-0.7500000000000016
sbaNaNaNa(iMatrix
MatrixElement
p1341
(dp1342
g10
I133
sg11
I133
sg12
F4.166666666666679
sbaNa(iMatrix
MatrixElement
p1343
(dp1344
g10
I133
sg11
I135
sg12
F-1.333333333333338
sbaNaNaNaNaNaNaNaNaNaa(lp1345
NaNaNaNaNaNaNaNaNaNaNaNaNaNaNaNaNaNaNaNaNaNaNaNaNaNaNaNaNaNaNaNaNaNaNaNaNaNaNaNaNaNaNaNaNaNaNaNaNaNaNaNaNaNaNaNaNaNaNaNaNaNaNaNaNaNaNaNaNaNaNaNaNaNaNaNaNaNaNaNaNaNaNaNaNaNaNaNaNaNaNaNaNaNaNaNaNaNaNaNaNaNaNaNaNaNaNaNaNaNaNaNaNaNaNaNaNaNaNa(iMatrix
MatrixElement
p1346
(dp1347
g10
I134
sg11
I120
sg12
F-0.8333437500000003
sbaNaNaNaNaNaNaNaNaNaNaNa(iMatrix
MatrixElement
p1348
(dp1349
g10
I134
sg11
I132
sg12
F-1.200030000750016
sbaNa(iMatrix
MatrixElement
p1350
(dp1351
g10
I134
sg11
I134
sg12
F4.066657503749877
sbaNa(iMatrix
MatrixElement
p1352
(dp1353
g10
I134
sg11
I136
sg12
F-1.199940002999858
sbaNaNaNaNaNaNaNaNaa(lp1354
NaNaNaNaNaNaNaNaNaNaNaNaNaNaNaNaNaNaNaNaNaNaNaNaNaNaNaNaNaNaNaNaNaNaNaNaNaNaNaNaNaNaNaNaNaNaNaNaNaNaNaNaNaNaNaNaNaNaNaNaNaNaNaNaNaNaNaNaNaNaNaNaNaNaNaNaNaNaNaNaNaNaNaNaNaNaNaNaNaNaNaNaNa(iMatrix
MatrixElement
p1355
(dp1356
g10
I135
sg11
I94
sg12
F-0.7500000000000031
sbaNaNaNaNaNaNaNaNaNaNaNaNaNaNaNaNaNaNaNaNaNaNaNaNaNaNaNaNaNaNaNaNaNa(iMatrix
MatrixElement
p1357
(dp1358
g10
I135
sg11
I128
sg12
F-0.7500000000000001
sbaNaNaNaNa(iMatrix
MatrixElement
p1359
(dp1360
g10
I135
sg11
I133
sg12
F-1.333333333333338
sbaNa(iMatrix
MatrixElement
p1361
(dp1362
g10
I135
sg11
I135
sg12
F4.166666666666676
sbaNaNaNaNaNaNaNaNaNaa(lp1363
NaNaNaNaNaNaNaNaNaNaNaNaNaNaNaNaNaNaNaNaNaNaNaNaNaNaNaNaNaNaNaNaNaNaNaNaNaNaNaNaNaNaNaNaNaNaNaNaNaNaNaNaNaNaNaNaNaNaNaNaNaNaNaNaNaNaNaNaNaNaNaNaNaNaNaNaNaNaNaNaNaNaNaNaNaNaNaNaNaNaNaNaNaNaNaNaNaNaNaNaNaNaNaNaNaNaNaNaNaNaNaNaNaNa(iMatrix
MatrixElement
p1364
(dp1365
g10
I136
sg11
I115
sg12
F-0.833343750000006
sbaNaNaNaNaNaNaNaNaNaNaNaNaNaNaNaNaNaNa(iMatrix
MatrixElement
p1366
(dp1367
g10
I136
sg11
I134
sg12
F-1.199940002999858
sbaNa(iMatrix
MatrixElement
p1368
(dp1369
g10
I136
sg11
I136
sg12
F4.06665750374989
sbaNa(iMatrix
MatrixElement
p1370
(dp1371
g10
I136
sg11
I138
sg12
F-1.2000300007500186
sbaNaNaNaNaNaNaa(lp1372
NaNaNaNaNaNaNaNaNaNaNaNaNaNaNaNaNaNaNaNaNaNaNaNaNaNaNaNaNaNaNaNaNaNaNaNaNaNaNaNaNaNaNaNaNaNaNaNaNaNaNaNaNaNaNaNaNaNaNaNaNaNaNaNaNaNaNaNaNaNaNaNaNaNaNaNaNaNaNaNaNaNaNaNaNaNaNaNaNaNaNaNaNaNa(iMatrix
MatrixElement
p1373
(dp1374
g10
I137
sg11
I95
sg12
F-0.7499999999999958
sbaNaNaNaNaNaNaNaNaNaNaNaNaNaNaNaNaNaNaNaNaNaNaNaNaNaNaNaNaNa(iMatrix
MatrixElement
p1375
(dp1376
g10
I137
sg11
I125
sg12
F-0.7500000000000102
sbaNaNaNaNaNaNaNaNaNaNaNa(iMatrix
MatrixElement
p1377
(dp1378
g10
I137
sg11
I137
sg12
F4.166666666666648
sbaNa(iMatrix
MatrixElement
p1379
(dp1380
g10
I137
sg11
I139
sg12
F-1.333333333333313
sbaNaNaNaNaNaa(lp1381
NaNaNaNaNaNaNaNaNaNaNaNaNaNaNaNaNaNaNaNaNaNaNaNaNaNaNaNaNaNaNaNaNaNaNaNaNaNaNaNaNaNaNaNaNaNaNaNaNaNaNaNaNaNaNaNaNaNaNaNaNaNaNaNaNaNaNaNaNaNaNaNaNaNaNaNaNaNaNaNaNaNaNaNaNaNaNaNaNaNaNaNaNaNaNaNaNaNaNaNaNaNaNaNaNaNaNaNaNaNaNaNaNa(iMatrix
MatrixElement
p1382
(dp1383
g10
I138
sg11
I114
sg12
F-0.8333124999999976
sbaNaNaNaNaNaNaNaNaNaNaNaNaNaNaNaNaNaNaNaNaNa(iMatrix
MatrixElement
p1384
(dp1385
g10
I138
sg11
I136
sg12
F-1.2000300007500186
sbaNa(iMatrix
MatrixElement
p1386
(dp1387
g10
I138
sg11
I138
sg12
F4.066685001500037
sbaNa(iMatrix
MatrixElement
p1388
(dp1389
g10
I138
sg11
I140
sg12
F-1.2000300007500155
sbaNaNaNaNaa(lp1390
NaNaNaNaNaNaNaNaNaNaNaNaNaNaNaNaNaNaNaNaNaNaNaNaNaNaNaNaNaNaNaNaNaNaNaNaNaNaNaNaNaNaNaNaNaNaNaNaNaNaNaNaNaNaNaNaNaNaNaNaNaNaNaNaNaNaNaNaNaNaNaNaNaNaNaNaNaNaNaNaNaNaNaNaNaNaNaNaNaNaNaNaNaNaNa(iMatrix
MatrixElement
p1391
(dp1392
g10
I139
sg11
I96
sg12
F-0.7499999999999822
sbaNaNaNaNaNaNaNaNaNaNaNaNaNaNaNaNaNaNaNaNaNaNaNaNaNaNaNa(iMatrix
MatrixElement
p1393
(dp1394
g10
I139
sg11
I124
sg12
F-0.7499999999999982
sbaNaNaNaNaNaNaNaNaNaNaNaNa(iMatrix
MatrixElement
p1395
(dp1396
g10
I139
sg11
I137
sg12
F-1.333333333333313
sbaNa(iMatrix
MatrixElement
p1397
(dp1398
g10
I139
sg11
I139
sg12
F4.166666666666615
sbaNa(iMatrix
MatrixElement
p1399
(dp1400
g10
I139
sg11
I141
sg12
F-1.3333333333333204
sbaNaNaNaa(lp1401
NaNaNaNaNaNaNaNaNaNaNaNaNaNaNaNaNaNaNaNaNaNaNaNaNaNaNaNaNaNaNaNaNaNaNaNaNaNaNaNaNaNaNaNaNaNaNaNaNaNaNaNaNaNaNaNaNaNaNaNaNaNaNaNaNaNaNaNaNaNaNaNaNaNaNaNaNaNaNaNaNaNaNaNaNaNaNaNaNaNaNaNaNaNaNaNaNaNaNaNaNaNaNaNaNaNaNaNa(iMatrix
MatrixElement
p1402
(dp1403
g10
I140
sg11
I109
sg12
F-0.8333437500000005
sbaNaNaNaNaNaNaNaNaNaNaNaNaNaNaNaNaNaNaNaNaNaNaNaNaNaNaNaNa(iMatrix
MatrixElement
p1404
(dp1405
g10
I140
sg11
I138
sg12
F-1.2000300007500155
sbaNa(iMatrix
MatrixElement
p1406
(dp1407
g10
I140
sg11
I140
sg12
F4.0666575037498625
sbaNa(iMatrix
MatrixElement
p1408
(dp1409
g10
I140
sg11
I142
sg12
F-1.1999400029998486
sbaNaNaa(lp1410
NaNaNaNaNaNaNaNaNaNaNaNaNaNaNaNaNaNaNaNaNaNaNaNaNaNaNaNaNaNaNaNaNaNaNaNaNaNaNaNaNaNaNaNaNaNaNaNaNaNaNaNaNaNaNaNaNaNaNaNaNaNaNaNaNaNaNaNaNaNaNaNaNaNaNaNaNaNaNaNaNaNaNaNaNaNaNaNaNaNaNaNaNaNaNaNa(iMatrix
MatrixElement
p1411
(dp1412
g10
I141
sg11
I97
sg12
F-0.7500000000000018
sbaNaNaNaNaNaNaNaNaNaNaNaNaNaNaNaNaNaNaNaNaNaNaNaNaNa(iMatrix
MatrixElement
p1413
(dp1414
g10
I141
sg11
I123
sg12
F-0.7500000000000033
sbaNaNaNaNaNaNaNaNaNaNaNaNaNaNaNa(iMatrix
MatrixElement
p1415
(dp1416
g10
I141
sg11
I139
sg12
F-1.3333333333333204
sbaNa(iMatrix
MatrixElement
p1417
(dp1418
g10
I141
sg11
I141
sg12
F4.166666666666657
sbaNaNa(iMatrix
MatrixElement
p1419
(dp1420
g10
I141
sg11
I144
sg12
F-1.3333333333333324
sbaa(lp1421
NaNaNaNaNaNaNaNaNaNaNaNaNaNaNaNaNaNaNaNaNaNaNaNaNaNaNaNaNaNaNaNaNaNaNaNaNaNaNaNaNaNaNaNaNaNaNaNaNaNaNaNaNaNaNaNaNaNaNaNaNaNaNaNaNaNaNaNaNaNaNaNaNaNaNaNaNaNaNaNaNaNaNaNaNaNaNaNaNaNaNaNaNaNaNaNaNaNaNaNaNaNaNaNaNaNaNa(iMatrix
MatrixElement
p1422
(dp1423
g10
I142
sg11
I108
sg12
F-0.8333437500000128
sbaNaNaNaNaNaNaNaNaNaNaNaNaNaNaNaNaNaNaNaNaNaNaNaNaNaNaNaNaNaNaNa(iMatrix
MatrixElement
p1424
(dp1425
g10
I142
sg11
I140
sg12
F-1.1999400029998486
sbaNa(iMatrix
MatrixElement
p1426
(dp1427
g10
I142
sg11
I142
sg12
F4.0666575037498705
sba(iMatrix
MatrixElement
p1428
(dp1429
g10
I142
sg11
I143
sg12
F-1.2000300007500186
sbaNaa(lp1430
NaNaNaNaNaNaNaNaNaNaNaNaNaNaNaNaNaNaNaNaNaNaNaNaNaNaNaNaNaNaNaNaNaNaNaNaNaNaNaNaNaNaNaNaNaNaNaNaNaNaNaNaNaNaNaNaNaNaNaNaNaNaNaNaNaNaNaNaNaNaNaNaNaNaNaNaNaNaNaNaNaNaNaNaNaNaNaNaNaNaNaNaNaNaNaNaNaNaNaNaNaNa(iMatrix
MatrixElement
p1431
(dp1432
g10
I143
sg11
I103
sg12
F-0.791656250000004
sbaNaNaNaNaNaNaNaNaNaNaNaNaNaNaNaNaNaNaNaNaNaNaNaNaNaNaNaNaNaNaNaNaNaNaNaNaNaNa(iMatrix
MatrixElement
p1433
(dp1434
g10
I143
sg11
I142
sg12
F-1.2000300007500186
sba(iMatrix
MatrixElement
p1435
(dp1436
g10
I143
sg11
I143
sg12
F4.116675834083395
sba(iMatrix
MatrixElement
p1437
(dp1438
g10
I143
sg11
I144
sg12
F-1.3333333333333657
sbaa(lp1439
NaNaNaNaNaNaNaNaNaNaNaNaNaNaNaNaNaNaNaNaNaNaNaNaNaNaNaNaNaNaNaNaNaNaNaNaNaNaNaNaNaNaNaNaNaNaNaNaNaNaNaNaNaNaNaNaNaNaNaNaNaNaNaNaNaNaNaNaNaNaNaNaNaNaNaNaNaNaNaNaNaNaNaNaNaNaNaNaNaNaNaNaNaNaNaNaNaNaNaNaNa(iMatrix
MatrixElement
p1440
(dp1441
g10
I144
sg11
I102
sg12
F-0.7499999999999931
sbaNaNaNaNaNaNaNaNaNaNaNaNaNaNaNaNaNaNaNa(iMatrix
MatrixElement
p1442
(dp1443
g10
I144
sg11
I122
sg12
F-0.7500000000000203
sbaNaNaNaNaNaNaNaNaNaNaNaNaNaNaNaNaNaNa(iMatrix
MatrixElement
p1444
(dp1445
g10
I144
sg11
I141
sg12
F-1.3333333333333324
sbaNa(iMatrix
MatrixElement
p1446
(dp1447
g10
I144
sg11
I143
sg12
F-1.3333333333333657
sba(iMatrix
MatrixElement
p1448
(dp1449
g10
I144
sg11
I144
sg12
F4.166666666666711
sbaasS'columns'
p1450
I144
sba(iMatrix
Matrix
p1451
(dp1452
g3
I144
sg4
(lp1453
(lp1454
a(lp1455
Naa(lp1456
Naa(lp1457
Naa(lp1458
Naa(lp1459
Naa(lp1460
Naa(lp1461
Naa(lp1462
Naa(lp1463
Naa(lp1464
Naa(lp1465
Naa(lp1466
Naa(lp1467
Naa(lp1468
Naa(lp1469
Naa(lp1470
Naa(lp1471
Naa(lp1472
Naa(lp1473
Naa(lp1474
Naa(lp1475
Naa(lp1476
Naa(lp1477
Naa(lp1478
Naa(lp1479
Naa(lp1480
Naa(lp1481
Naa(lp1482
Naa(lp1483
Naa(lp1484
Naa(lp1485
Naa(lp1486
Naa(lp1487
Naa(lp1488
Naa(lp1489
Naa(lp1490
Naa(lp1491
Naa(lp1492
Naa(lp1493
Naa(lp1494
Naa(lp1495
Naa(lp1496
Naa(lp1497
Naa(lp1498
Naa(lp1499
Naa(lp1500
Naa(lp1501
Naa(lp1502
Naa(lp1503
Naa(lp1504
Naa(lp1505
Naa(lp1506
Naa(lp1507
Naa(lp1508
Naa(lp1509
Naa(lp1510
Naa(lp1511
Naa(lp1512
Naa(lp1513
Naa(lp1514
Naa(lp1515
Naa(lp1516
Naa(lp1517
Naa(lp1518
Naa(lp1519
Naa(lp1520
Naa(lp1521
Naa(lp1522
Naa(lp1523
Naa(lp1524
Naa(lp1525
Naa(lp1526
Naa(lp1527
Naa(lp1528
(iMatrix
MatrixElement
p1529
(dp1530
g10
I74
sg11
I1
sg12
F7.916562500000026
sbaa(lp1531
(iMatrix
MatrixElement
p1532
(dp1533
g10
I75
sg11
I1
sg12
F8.333437500000011
sbaa(lp1534
(iMatrix
MatrixElement
p1535
(dp1536
g10
I76
sg11
I1
sg12
F8.333437500000029
sbaa(lp1537
(iMatrix
MatrixElement
p1538
(dp1539
g10
I77
sg11
I1
sg12
F8.333124999999988
sbaa(lp1540
(iMatrix
MatrixElement
p1541
(dp1542
g10
I78
sg11
I1
sg12
F8.333437499999954
sbaa(lp1543
(iMatrix
MatrixElement
p1544
(dp1545
g10
I79
sg11
I1
sg12
F8.333437500000004
sbaa(lp1546
(iMatrix
MatrixElement
p1547
(dp1548
g10
I80
sg11
I1
sg12
F7.916562499999977
sbaa(lp1549
Naa(lp1550
Naa(lp1551
Naa(lp1552
Naa(lp1553
Naa(lp1554
Naa(lp1555
Naa(lp1556
Naa(lp1557
Naa(lp1558
(iMatrix
MatrixElement
p1559
(dp1560
g10
I90
sg11
I1
sg12
F15.000000000000027
sbaa(lp1561
Naa(lp1562
Naa(lp1563
Naa(lp1564
Naa(lp1565
Naa(lp1566
Naa(lp1567
Naa(lp1568
(iMatrix
MatrixElement
p1569
(dp1570
g10
I98
sg11
I1
sg12
F15.000000000000062
sbaa(lp1571
Naa(lp1572
Naa(lp1573
Naa(lp1574
Naa(lp1575
Naa(lp1576
Naa(lp1577
Naa(lp1578
Naa(lp1579
(iMatrix
MatrixElement
p1580
(dp1581
g10
I107
sg11
I1
sg12
F16.666666666666647
sbaa(lp1582
Naa(lp1583
Naa(lp1584
(iMatrix
MatrixElement
p1585
(dp1586
g10
I110
sg11
I1
sg12
F16.666666666666675
sbaa(lp1587
Naa(lp1588
Naa(lp1589
Naa(lp1590
Naa(lp1591
Naa(lp1592
Naa(lp1593
Naa(lp1594
Naa(lp1595
(iMatrix
MatrixElement
p1596
(dp1597
g10
I119
sg11
I1
sg12
F14.999999999999908
sbaa(lp1598
Naa(lp1599
Naa(lp1600
(iMatrix
MatrixElement
p1601
(dp1602
g10
I122
sg11
I1
sg12
F15.00000000000033
sbaa(lp1603
Naa(lp1604
Naa(lp1605
Naa(lp1606
Naa(lp1607
Naa(lp1608
Naa(lp1609
Naa(lp1610
Naa(lp1611
Naa(lp1612
(iMatrix
MatrixElement
p1613
(dp1614
g10
I132
sg11
I1
sg12
F7.916562499999999
sbaa(lp1615
Naa(lp1616
(iMatrix
MatrixElement
p1617
(dp1618
g10
I134
sg11
I1
sg12
F8.333437500000016
sbaa(lp1619
Naa(lp1620
(iMatrix
MatrixElement
p1621
(dp1622
g10
I136
sg11
I1
sg12
F8.333437500000073
sbaa(lp1623
Naa(lp1624
(iMatrix
MatrixElement
p1625
(dp1626
g10
I138
sg11
I1
sg12
F8.333125000000047
sbaa(lp1627
Naa(lp1628
(iMatrix
MatrixElement
p1629
(dp1630
g10
I140
sg11
I1
sg12
F8.333437499999974
sbaa(lp1631
Naa(lp1632
(iMatrix
MatrixElement
p1633
(dp1634
g10
I142
sg11
I1
sg12
F8.333437499999906
sbaa(lp1635
(iMatrix
MatrixElement
p1636
(dp1637
g10
I143
sg11
I1
sg12
F7.916562500000065
sbaa(lp1638
Naasg1450
I1
sba(dp1639
I1
(iMeshStructure
Node
p1640
(dp1641
S'y'
p1642
F0.0
sS'x'
p1643
F0.0
sS'number'
p1644
I1
sS'voltage'
p1645
F0.0
sbsI2
(iMeshStructure
Node
p1646
(dp1647
g1642
F0.0
sg1643
F0.012
sg1644
I2
sg1645
F0.0
sbsI3
(iMeshStructure
Node
p1648
(dp1649
g1642
F0.0
sg1643
F0.024
sg1644
I3
sg1645
F0.0
sbsI4
(iMeshStructure
Node
p1650
(dp1651
g1642
F0.0
sg1643
F0.036
sg1644
I4
sg1645
F0.0
sbsI5
(iMeshStructure
Node
p1652
(dp1653
g1642
F0.0
sg1643
F0.048
sg1644
I5
sg1645
F0.0
sbsI6
(iMeshStructure
Node
p1654
(dp1655
g1642
F0.0
sg1643
F0.06
sg1644
I6
sg1645
F0.0
sbsI7
(iMeshStructure
Node
p1656
(dp1657
g1642
F0.0
sg1643
F0.073333
sg1644
I7
sg1645
F0.0
sbsI8
(iMeshStructure
Node
p1658
(dp1659
g1642
F0.0
sg1643
F0.086667
sg1644
I8
sg1645
F0.0
sbsI9
(iMeshStructure
Node
p1660
(dp1661
g1642
F0.0
sg1643
F0.1
sg1644
I9
sg1645
F0.0
sbsI10
(iMeshStructure
Node
p1662
(dp1663
g1642
F0.0
sg1643
F0.113333
sg1644
I10
sg1645
F0.0
sbsI11
(iMeshStructure
Node
p1664
(dp1665
g1642
F0.0
sg1643
F0.126667
sg1644
I11
sg1645
F0.0
sbsI12
(iMeshStructure
Node
p1666
(dp1667
g1642
F0.0
sg1643
F0.14
sg1644
I12
sg1645
F0.0
sbsI13
(iMeshStructure
Node
p1668
(dp1669
g1642
F0.0
sg1643
F0.152
sg1644
I13
sg1645
F0.0
sbsI14
(iMeshStructure
Node
p1670
(dp1671
g1642
F0.0
sg1643
F0.164
sg1644
I14
sg1645
F0.0
sbsI15
(iMeshStructure
Node
p1672
(dp1673
g1642
F0.0
sg1643
F0.176
sg1644
I15
sg1645
F0.0
sbsI16
(iMeshStructure
Node
p1674
(dp1675
g1642
F0.0
sg1643
F0.188
sg1644
I16
sg1645
F0.0
sbsI17
(iMeshStructure
Node
p1676
(dp1677
g1642
F0.0
sg1643
F0.2
sg1644
I17
sg1645
F0.0
sbsI18
(iMeshStructure
Node
p1678
(dp1679
g1642
F0.016
sg1643
F0.0
sg1644
I18
sg1645
F0.0
sbsI19
(iMeshStructure
Node
p1680
(dp1681
g1642
F0.016
sg1643
F0.012
sg1644
I19
sg1645
F0.0
sbsI20
(iMeshStructure
Node
p1682
(dp1683
g1642
F0.016
sg1643
F0.024
sg1644
I20
sg1645
F0.0
sbsI21
(iMeshStructure
Node
p1684
(dp1685
g1642
F0.016
sg1643
F0.036
sg1644
I21
sg1645
F0.0
sbsI22
(iMeshStructure
Node
p1686
(dp1687
g1642
F0.016
sg1643
F0.048
sg1644
I22
sg1645
F0.0
sbsI23
(iMeshStructure
Node
p1688
(dp1689
g1642
F0.016
sg1643
F0.06
sg1644
I23
sg1645
F0.0
sbsI24
(iMeshStructure
Node
p1690
(dp1691
g1642
F0.016
sg1643
F0.073333
sg1644
I24
sg1645
F0.0
sbsI25
(iMeshStructure
Node
p1692
(dp1693
g1642
F0.016
sg1643
F0.086667
sg1644
I25
sg1645
F0.0
sbsI26
(iMeshStructure
Node
p1694
(dp1695
g1642
F0.016
sg1643
F0.1
sg1644
I26
sg1645
F0.0
sbsI27
(iMeshStructure
Node
p1696
(dp1697
g1642
F0.016
sg1643
F0.113333
sg1644
I27
sg1645
F0.0
sbsI28
(iMeshStructure
Node
p1698
(dp1699
g1642
F0.016
sg1643
F0.126667
sg1644
I28
sg1645
F0.0
sbsI29
(iMeshStructure
Node
p1700
(dp1701
g1642
F0.016
sg1643
F0.14
sg1644
I29
sg1645
F0.0
sbsI30
(iMeshStructure
Node
p1702
(dp1703
g1642
F0.016
sg1643
F0.152
sg1644
I30
sg1645
F0.0
sbsI31
(iMeshStructure
Node
p1704
(dp1705
g1642
F0.016
sg1643
F0.164
sg1644
I31
sg1645
F0.0
sbsI32
(iMeshStructure
Node
p1706
(dp1707
g1642
F0.016
sg1643
F0.176
sg1644
I32
sg1645
F0.0
sbsI33
(iMeshStructure
Node
p1708
(dp1709
g1642
F0.016
sg1643
F0.188
sg1644
I33
sg1645
F0.0
sbsI34
(iMeshStructure
Node
p1710
(dp1711
g1642
F0.016
sg1643
F0.2
sg1644
I34
sg1645
F0.0
sbsI35
(iMeshStructure
Node
p1712
(dp1713
g1642
F0.032
sg1643
F0.0
sg1644
I35
sg1645
F0.0
sbsI36
(iMeshStructure
Node
p1714
(dp1715
g1642
F0.032
sg1643
F0.012
sg1644
I36
sg1645
F0.0
sbsI37
(iMeshStructure
Node
p1716
(dp1717
g1642
F0.032
sg1643
F0.024
sg1644
I37
sg1645
F0.0
sbsI38
(iMeshStructure
Node
p1718
(dp1719
g1642
F0.032
sg1643
F0.036
sg1644
I38
sg1645
F0.0
sbsI39
(iMeshStructure
Node
p1720
(dp1721
g1642
F0.032
sg1643
F0.048
sg1644
I39
sg1645
F0.0
sbsI40
(iMeshStructure
Node
p1722
(dp1723
g1642
F0.032
sg1643
F0.06
sg1644
I40
sg1645
F0.0
sbsI41
(iMeshStructure
Node
p1724
(dp1725
g1642
F0.032
sg1643
F0.073333
sg1644
I41
sg1645
F0.0
sbsI42
(iMeshStructure
Node
p1726
(dp1727
g1642
F0.032
sg1643
F0.086667
sg1644
I42
sg1645
F0.0
sbsI43
(iMeshStructure
Node
p1728
(dp1729
g1642
F0.032
sg1643
F0.1
sg1644
I43
sg1645
F0.0
sbsI44
(iMeshStructure
Node
p1730
(dp1731
g1642
F0.032
sg1643
F0.113333
sg1644
I44
sg1645
F0.0
sbsI45
(iMeshStructure
Node
p1732
(dp1733
g1642
F0.032
sg1643
F0.126667
sg1644
I45
sg1645
F0.0
sbsI46
(iMeshStructure
Node
p1734
(dp1735
g1642
F0.032
sg1643
F0.14
sg1644
I46
sg1645
F0.0
sbsI47
(iMeshStructure
Node
p1736
(dp1737
g1642
F0.032
sg1643
F0.152
sg1644
I47
sg1645
F0.0
sbsI48
(iMeshStructure
Node
p1738
(dp1739
g1642
F0.032
sg1643
F0.164
sg1644
I48
sg1645
F0.0
sbsI49
(iMeshStructure
Node
p1740
(dp1741
g1642
F0.032
sg1643
F0.176
sg1644
I49
sg1645
F0.0
sbsI50
(iMeshStructure
Node
p1742
(dp1743
g1642
F0.032
sg1643
F0.188
sg1644
I50
sg1645
F0.0
sbsI51
(iMeshStructure
Node
p1744
(dp1745
g1642
F0.032
sg1643
F0.2
sg1644
I51
sg1645
F0.0
sbsI52
(iMeshStructure
Node
p1746
(dp1747
g1642
F0.048
sg1643
F0.0
sg1644
I52
sg1645
F0.0
sbsI53
(iMeshStructure
Node
p1748
(dp1749
g1642
F0.048
sg1643
F0.012
sg1644
I53
sg1645
F0.0
sbsI54
(iMeshStructure
Node
p1750
(dp1751
g1642
F0.048
sg1643
F0.024
sg1644
I54
sg1645
F0.0
sbsI55
(iMeshStructure
Node
p1752
(dp1753
g1642
F0.048
sg1643
F0.036
sg1644
I55
sg1645
F0.0
sbsI56
(iMeshStructure
Node
p1754
(dp1755
g1642
F0.048
sg1643
F0.048
sg1644
I56
sg1645
F0.0
sbsI57
(iMeshStructure
Node
p1756
(dp1757
g1642
F0.048
sg1643
F0.06
sg1644
I57
sg1645
F0.0
sbsI58
(iMeshStructure
Node
p1758
(dp1759
g1642
F0.048
sg1643
F0.073333
sg1644
I58
sg1645
F0.0
sbsI59
(iMeshStructure
Node
p1760
(dp1761
g1642
F0.048
sg1643
F0.086667
sg1644
I59
sg1645
F0.0
sbsI60
(iMeshStructure
Node
p1762
(dp1763
g1642
F0.048
sg1643
F0.1
sg1644
I60
sg1645
F0.0
sbsI61
(iMeshStructure
Node
p1764
(dp1765
g1642
F0.048
sg1643
F0.113333
sg1644
I61
sg1645
F0.0
sbsI62
(iMeshStructure
Node
p1766
(dp1767
g1642
F0.048
sg1643
F0.126667
sg1644
I62
sg1645
F0.0
sbsI63
(iMeshStructure
Node
p1768
(dp1769
g1642
F0.048
sg1643
F0.14
sg1644
I63
sg1645
F0.0
sbsI64
(iMeshStructure
Node
p1770
(dp1771
g1642
F0.048
sg1643
F0.152
sg1644
I64
sg1645
F0.0
sbsI65
(iMeshStructure
Node
p1772
(dp1773
g1642
F0.048
sg1643
F0.164
sg1644
I65
sg1645
F0.0
sbsI66
(iMeshStructure
Node
p1774
(dp1775
g1642
F0.048
sg1643
F0.176
sg1644
I66
sg1645
F0.0
sbsI67
(iMeshStructure
Node
p1776
(dp1777
g1642
F0.048
sg1643
F0.188
sg1644
I67
sg1645
F0.0
sbsI68
(iMeshStructure
Node
p1778
(dp1779
g1642
F0.048
sg1643
F0.2
sg1644
I68
sg1645
F0.0
sbsI69
(iMeshStructure
Node
p1780
(dp1781
g1642
F0.064
sg1643
F0.0
sg1644
I69
sg1645
F0.0
sbsI70
(iMeshStructure
Node
p1782
(dp1783
g1642
F0.064
sg1643
F0.012
sg1644
I70
sg1645
F0.0
sbsI71
(iMeshStructure
Node
p1784
(dp1785
g1642
F0.064
sg1643
F0.024
sg1644
I71
sg1645
F0.0
sbsI72
(iMeshStructure
Node
p1786
(dp1787
g1642
F0.064
sg1643
F0.036
sg1644
I72
sg1645
F0.0
sbsI73
(iMeshStructure
Node
p1788
(dp1789
g1642
F0.064
sg1643
F0.048
sg1644
I73
sg1645
F0.0
sbsI74
(iMeshStructure
Node
p1790
(dp1791
g1642
F0.064
sg1643
F0.06
sg1644
I74
sg1645
F0.0
sbsI75
(iMeshStructure
Node
p1792
(dp1793
g1642
F0.064
sg1643
F0.073333
sg1644
I75
sg1645
F0.0
sbsI76
(iMeshStructure
Node
p1794
(dp1795
g1642
F0.064
sg1643
F0.086667
sg1644
I76
sg1645
F0.0
sbsI77
(iMeshStructure
Node
p1796
(dp1797
g1642
F0.064
sg1643
F0.1
sg1644
I77
sg1645
F0.0
sbsI78
(iMeshStructure
Node
p1798
(dp1799
g1642
F0.064
sg1643
F0.113333
sg1644
I78
sg1645
F0.0
sbsI79
(iMeshStructure
Node
p1800
(dp1801
g1642
F0.064
sg1643
F0.126667
sg1644
I79
sg1645
F0.0
sbsI80
(iMeshStructure
Node
p1802
(dp1803
g1642
F0.064
sg1643
F0.14
sg1644
I80
sg1645
F0.0
sbsI81
(iMeshStructure
Node
p1804
(dp1805
g1642
F0.064
sg1643
F0.152
sg1644
I81
sg1645
F0.0
sbsI82
(iMeshStructure
Node
p1806
(dp1807
g1642
F0.064
sg1643
F0.164
sg1644
I82
sg1645
F0.0
sbsI83
(iMeshStructure
Node
p1808
(dp1809
g1642
F0.064
sg1643
F0.176
sg1644
I83
sg1645
F0.0
sbsI84
(iMeshStructure
Node
p1810
(dp1811
g1642
F0.064
sg1643
F0.188
sg1644
I84
sg1645
F0.0
sbsI85
(iMeshStructure
Node
p1812
(dp1813
g1642
F0.064
sg1643
F0.2
sg1644
I85
sg1645
F0.0
sbsI86
(iMeshStructure
Node
p1814
(dp1815
g1642
F0.08
sg1643
F0.0
sg1644
I86
sg1645
F0.0
sbsI87
(iMeshStructure
Node
p1816
(dp1817
g1642
F0.08
sg1643
F0.012
sg1644
I87
sg1645
F0.0
sbsI88
(iMeshStructure
Node
p1818
(dp1819
g1642
F0.08
sg1643
F0.024
sg1644
I88
sg1645
F0.0
sbsI89
(iMeshStructure
Node
p1820
(dp1821
g1642
F0.08
sg1643
F0.036
sg1644
I89
sg1645
F0.0
sbsI90
(iMeshStructure
Node
p1822
(dp1823
g1642
F0.08
sg1643
F0.048
sg1644
I90
sg1645
F0.0
sbsI91
(iMeshStructure
Node
p1824
(dp1825
g1642
F0.08
sg1643
F0.06
sg1644
I91
sg1645
F10.0
sbsI92
(iMeshStructure
Node
p1826
(dp1827
g1642
F0.08
sg1643
F0.073333
sg1644
I92
sg1645
F10.0
sbsI93
(iMeshStructure
Node
p1828
(dp1829
g1642
F0.08
sg1643
F0.086667
sg1644
I93
sg1645
F10.0
sbsI94
(iMeshStructure
Node
p1830
(dp1831
g1642
F0.08
sg1643
F0.1
sg1644
I94
sg1645
F10.0
sbsI95
(iMeshStructure
Node
p1832
(dp1833
g1642
F0.08
sg1643
F0.113333
sg1644
I95
sg1645
F10.0
sbsI96
(iMeshStructure
Node
p1834
(dp1835
g1642
F0.08
sg1643
F0.126667
sg1644
I96
sg1645
F10.0
sbsI97
(iMeshStructure
Node
p1836
(dp1837
g1642
F0.08
sg1643
F0.14
sg1644
I97
sg1645
F10.0
sbsI98
(iMeshStructure
Node
p1838
(dp1839
g1642
F0.08
sg1643
F0.152
sg1644
I98
sg1645
F0.0
sbsI99
(iMeshStructure
Node
p1840
(dp1841
g1642
F0.08
sg1643
F0.164
sg1644
I99
sg1645
F0.0
sbsI100
(iMeshStructure
Node
p1842
(dp1843
g1642
F0.08
sg1643
F0.176
sg1644
I100
sg1645
F0.0
sbsI101
(iMeshStructure
Node
p1844
(dp1845
g1642
F0.08
sg1643
F0.188
sg1644
I101
sg1645
F0.0
sbsI102
(iMeshStructure
Node
p1846
(dp1847
g1642
F0.08
sg1643
F0.2
sg1644
I102
sg1645
F0.0
sbsI103
(iMeshStructure
Node
p1848
(dp1849
g1642
F0.1
sg1643
F0.0
sg1644
I103
sg1645
F0.0
sbsI104
(iMeshStructure
Node
p1850
(dp1851
g1642
F0.1
sg1643
F0.012
sg1644
I104
sg1645
F0.0
sbsI105
(iMeshStructure
Node
p1852
(dp1853
g1642
F0.1
sg1643
F0.024
sg1644
I105
sg1645
F0.0
sbsI106
(iMeshStructure
Node
p1854
(dp1855
g1642
F0.1
sg1643
F0.036
sg1644
I106
sg1645
F0.0
sbsI107
(iMeshStructure
Node
p1856
(dp1857
g1642
F0.1
sg1643
F0.048
sg1644
I107
sg1645
F0.0
sbsI108
(iMeshStructure
Node
p1858
(dp1859
g1642
F0.1
sg1643
F0.06
sg1644
I108
sg1645
F10.0
sbsI109
(iMeshStructure
Node
p1860
(dp1861
g1642
F0.1
sg1643
F0.14
sg1644
I109
sg1645
F10.0
sbsI110
(iMeshStructure
Node
p1862
(dp1863
g1642
F0.1
sg1643
F0.152
sg1644
I110
sg1645
F0.0
sbsI111
(iMeshStructure
Node
p1864
(dp1865
g1642
F0.1
sg1643
F0.164
sg1644
I111
sg1645
F0.0
sbsI112
(iMeshStructure
Node
p1866
(dp1867
g1642
F0.1
sg1643
F0.176
sg1644
I112
sg1645
F0.0
sbsI113
(iMeshStructure
Node
p1868
(dp1869
g1642
F0.1
sg1643
F0.188
sg1644
I113
sg1645
F0.0
sbsI114
(iMeshStructure
Node
p1870
(dp1871
g1642
F0.1
sg1643
F0.2
sg1644
I114
sg1645
F0.0
sbsI115
(iMeshStructure
Node
p1872
(dp1873
g1642
F0.12
sg1643
F0.0
sg1644
I115
sg1645
F0.0
sbsI116
(iMeshStructure
Node
p1874
(dp1875
g1642
F0.12
sg1643
F0.012
sg1644
I116
sg1645
F0.0
sbsI117
(iMeshStructure
Node
p1876
(dp1877
g1642
F0.12
sg1643
F0.024
sg1644
I117
sg1645
F0.0
sbsI118
(iMeshStructure
Node
p1878
(dp1879
g1642
F0.12
sg1643
F0.036
sg1644
I118
sg1645
F0.0
sbsI119
(iMeshStructure
Node
p1880
(dp1881
g1642
F0.12
sg1643
F0.048
sg1644
I119
sg1645
F0.0
sbsI120
(iMeshStructure
Node
p1882
(dp1883
g1642
F0.12
sg1643
F0.06
sg1644
I120
sg1645
F10.0
sbsI121
(iMeshStructure
Node
p1884
(dp1885
g1642
F0.12
sg1643
F0.073333
sg1644
I121
sg1645
F10.0
sbsI122
(iMeshStructure
Node
p1886
(dp1887
g1642
F0.12
sg1643
F0.086667
sg1644
I122
sg1645
F10.0
sbsI123
(iMeshStructure
Node
p1888
(dp1889
g1642
F0.12
sg1643
F0.1
sg1644
I123
sg1645
F10.0
sbsI124
(iMeshStructure
Node
p1890
(dp1891
g1642
F0.12
sg1643
F0.113333
sg1644
I124
sg1645
F10.0
sbsI125
(iMeshStructure
Node
p1892
(dp1893
g1642
F0.12
sg1643
F0.126667
sg1644
I125
sg1645
F10.0
sbsI126
(iMeshStructure
Node
p1894
(dp1895
g1642
F0.12
sg1643
F0.14
sg1644
I126
sg1645
F10.0
sbsI127
(iMeshStructure
Node
p1896
(dp1897
g1642
F0.12
sg1643
F0.152
sg1644
I127
sg1645
F0.0
sbsI128
(iMeshStructure
Node
p1898
(dp1899
g1642
F0.12
sg1643
F0.164
sg1644
I128
sg1645
F0.0
sbsI129
(iMeshStructure
Node
p1900
(dp1901
g1642
F0.12
sg1643
F0.176
sg1644
I129
sg1645
F0.0
sbsI130
(iMeshStructure
Node
p1902
(dp1903
g1642
F0.12
sg1643
F0.188
sg1644
I130
sg1645
F0.0
sbsI131
(iMeshStructure
Node
p1904
(dp1905
g1642
F0.12
sg1643
F0.2
sg1644
I131
sg1645
F0.0
sbsI132
(iMeshStructure
Node
p1906
(dp1907
g1642
F0.136
sg1643
F0.0
sg1644
I132
sg1645
F0.0
sbsI133
(iMeshStructure
Node
p1908
(dp1909
g1642
F0.136
sg1643
F0.012
sg1644
I133
sg1645
F0.0
sbsI134
(iMeshStructure
Node
p1910
(dp1911
g1642
F0.136
sg1643
F0.024
sg1644
I134
sg1645
F0.0
sbsI135
(iMeshStructure
Node
p1912
(dp1913
g1642
F0.136
sg1643
F0.036
sg1644
I135
sg1645
F0.0
sbsI136
(iMeshStructure
Node
p1914
(dp1915
g1642
F0.136
sg1643
F0.048
sg1644
I136
sg1645
F0.0
sbsI137
(iMeshStructure
Node
p1916
(dp1917
g1642
F0.136
sg1643
F0.06
sg1644
I137
sg1645
F0.0
sbsI138
(iMeshStructure
Node
p1918
(dp1919
g1642
F0.136
sg1643
F0.073333
sg1644
I138
sg1645
F0.0
sbsI139
(iMeshStructure
Node
p1920
(dp1921
g1642
F0.136
sg1643
F0.086667
sg1644
I139
sg1645
F0.0
sbsI140
(iMeshStructure
Node
p1922
(dp1923
g1642
F0.136
sg1643
F0.1
sg1644
I140
sg1645
F0.0
sbsI141
(iMeshStructure
Node
p1924
(dp1925
g1642
F0.136
sg1643
F0.113333
sg1644
I141
sg1645
F0.0
sbsI142
(iMeshStructure
Node
p1926
(dp1927
g1642
F0.136
sg1643
F0.126667
sg1644
I142
sg1645
F0.0
sbsI143
(iMeshStructure
Node
p1928
(dp1929
g1642
F0.136
sg1643
F0.14
sg1644
I143
sg1645
F0.0
sbsI144
(iMeshStructure
Node
p1930
(dp1931
g1642
F0.136
sg1643
F0.152
sg1644
I144
sg1645
F0.0
sbsI145
(iMeshStructure
Node
p1932
(dp1933
g1642
F0.136
sg1643
F0.164
sg1644
I145
sg1645
F0.0
sbsI146
(iMeshStructure
Node
p1934
(dp1935
g1642
F0.136
sg1643
F0.176
sg1644
I146
sg1645
F0.0
sbsI147
(iMeshStructure
Node
p1936
(dp1937
g1642
F0.136
sg1643
F0.188
sg1644
I147
sg1645
F0.0
sbsI148
(iMeshStructure
Node
p1938
(dp1939
g1642
F0.136
sg1643
F0.2
sg1644
I148
sg1645
F0.0
sbsI149
(iMeshStructure
Node
p1940
(dp1941
g1642
F0.152
sg1643
F0.0
sg1644
I149
sg1645
F0.0
sbsI150
(iMeshStructure
Node
p1942
(dp1943
g1642
F0.152
sg1643
F0.012
sg1644
I150
sg1645
F0.0
sbsI151
(iMeshStructure
Node
p1944
(dp1945
g1642
F0.152
sg1643
F0.024
sg1644
I151
sg1645
F0.0
sbsI152
(iMeshStructure
Node
p1946
(dp1947
g1642
F0.152
sg1643
F0.036
sg1644
I152
sg1645
F0.0
sbsI153
(iMeshStructure
Node
p1948
(dp1949
g1642
F0.152
sg1643
F0.048
sg1644
I153
sg1645
F0.0
sbsI154
(iMeshStructure
Node
p1950
(dp1951
g1642
F0.152
sg1643
F0.06
sg1644
I154
sg1645
F0.0
sbsI155
(iMeshStructure
Node
p1952
(dp1953
g1642
F0.152
sg1643
F0.073333
sg1644
I155
sg1645
F0.0
sbsI156
(iMeshStructure
Node
p1954
(dp1955
g1642
F0.152
sg1643
F0.086667
sg1644
I156
sg1645
F0.0
sbsI157
(iMeshStructure
Node
p1956
(dp1957
g1642
F0.152
sg1643
F0.1
sg1644
I157
sg1645
F0.0
sbsI158
(iMeshStructure
Node
p1958
(dp1959
g1642
F0.152
sg1643
F0.113333
sg1644
I158
sg1645
F0.0
sbsI159
(iMeshStructure
Node
p1960
(dp1961
g1642
F0.152
sg1643
F0.126667
sg1644
I159
sg1645
F0.0
sbsI160
(iMeshStructure
Node
p1962
(dp1963
g1642
F0.152
sg1643
F0.14
sg1644
I160
sg1645
F0.0
sbsI161
(iMeshStructure
Node
p1964
(dp1965
g1642
F0.152
sg1643
F0.152
sg1644
I161
sg1645
F0.0
sbsI162
(iMeshStructure
Node
p1966
(dp1967
g1642
F0.152
sg1643
F0.164
sg1644
I162
sg1645
F0.0
sbsI163
(iMeshStructure
Node
p1968
(dp1969
g1642
F0.152
sg1643
F0.176
sg1644
I163
sg1645
F0.0
sbsI164
(iMeshStructure
Node
p1970
(dp1971
g1642
F0.152
sg1643
F0.188
sg1644
I164
sg1645
F0.0
sbsI165
(iMeshStructure
Node
p1972
(dp1973
g1642
F0.152
sg1643
F0.2
sg1644
I165
sg1645
F0.0
sbsI166
(iMeshStructure
Node
p1974
(dp1975
g1642
F0.168
sg1643
F0.0
sg1644
I166
sg1645
F0.0
sbsI167
(iMeshStructure
Node
p1976
(dp1977
g1642
F0.168
sg1643
F0.012
sg1644
I167
sg1645
F0.0
sbsI168
(iMeshStructure
Node
p1978
(dp1979
g1642
F0.168
sg1643
F0.024
sg1644
I168
sg1645
F0.0
sbsI169
(iMeshStructure
Node
p1980
(dp1981
g1642
F0.168
sg1643
F0.036
sg1644
I169
sg1645
F0.0
sbsI170
(iMeshStructure
Node
p1982
(dp1983
g1642
F0.168
sg1643
F0.048
sg1644
I170
sg1645
F0.0
sbsI171
(iMeshStructure
Node
p1984
(dp1985
g1642
F0.168
sg1643
F0.06
sg1644
I171
sg1645
F0.0
sbsI172
(iMeshStructure
Node
p1986
(dp1987
g1642
F0.168
sg1643
F0.073333
sg1644
I172
sg1645
F0.0
sbsI173
(iMeshStructure
Node
p1988
(dp1989
g1642
F0.168
sg1643
F0.086667
sg1644
I173
sg1645
F0.0
sbsI174
(iMeshStructure
Node
p1990
(dp1991
g1642
F0.168
sg1643
F0.1
sg1644
I174
sg1645
F0.0
sbsI175
(iMeshStructure
Node
p1992
(dp1993
g1642
F0.168
sg1643
F0.113333
sg1644
I175
sg1645
F0.0
sbsI176
(iMeshStructure
Node
p1994
(dp1995
g1642
F0.168
sg1643
F0.126667
sg1644
I176
sg1645
F0.0
sbsI177
(iMeshStructure
Node
p1996
(dp1997
g1642
F0.168
sg1643
F0.14
sg1644
I177
sg1645
F0.0
sbsI178
(iMeshStructure
Node
p1998
(dp1999
g1642
F0.168
sg1643
F0.152
sg1644
I178
sg1645
F0.0
sbsI179
(iMeshStructure
Node
p2000
(dp2001
g1642
F0.168
sg1643
F0.164
sg1644
I179
sg1645
F0.0
sbsI180
(iMeshStructure
Node
p2002
(dp2003
g1642
F0.168
sg1643
F0.176
sg1644
I180
sg1645
F0.0
sbsI181
(iMeshStructure
Node
p2004
(dp2005
g1642
F0.168
sg1643
F0.188
sg1644
I181
sg1645
F0.0
sbsI182
(iMeshStructure
Node
p2006
(dp2007
g1642
F0.168
sg1643
F0.2
sg1644
I182
sg1645
F0.0
sbsI183
(iMeshStructure
Node
p2008
(dp2009
g1642
F0.184
sg1643
F0.0
sg1644
I183
sg1645
F0.0
sbsI184
(iMeshStructure
Node
p2010
(dp2011
g1642
F0.184
sg1643
F0.012
sg1644
I184
sg1645
F0.0
sbsI185
(iMeshStructure
Node
p2012
(dp2013
g1642
F0.184
sg1643
F0.024
sg1644
I185
sg1645
F0.0
sbsI186
(iMeshStructure
Node
p2014
(dp2015
g1642
F0.184
sg1643
F0.036
sg1644
I186
sg1645
F0.0
sbsI187
(iMeshStructure
Node
p2016
(dp2017
g1642
F0.184
sg1643
F0.048
sg1644
I187
sg1645
F0.0
sbsI188
(iMeshStructure
Node
p2018
(dp2019
g1642
F0.184
sg1643
F0.06
sg1644
I188
sg1645
F0.0
sbsI189
(iMeshStructure
Node
p2020
(dp2021
g1642
F0.184
sg1643
F0.073333
sg1644
I189
sg1645
F0.0
sbsI190
(iMeshStructure
Node
p2022
(dp2023
g1642
F0.184
sg1643
F0.086667
sg1644
I190
sg1645
F0.0
sbsI191
(iMeshStructure
Node
p2024
(dp2025
g1642
F0.184
sg1643
F0.1
sg1644
I191
sg1645
F0.0
sbsI192
(iMeshStructure
Node
p2026
(dp2027
g1642
F0.184
sg1643
F0.113333
sg1644
I192
sg1645
F0.0
sbsI193
(iMeshStructure
Node
p2028
(dp2029
g1642
F0.184
sg1643
F0.126667
sg1644
I193
sg1645
F0.0
sbsI194
(iMeshStructure
Node
p2030
(dp2031
g1642
F0.184
sg1643
F0.14
sg1644
I194
sg1645
F0.0
sbsI195
(iMeshStructure
Node
p2032
(dp2033
g1642
F0.184
sg1643
F0.152
sg1644
I195
sg1645
F0.0
sbsI196
(iMeshStructure
Node
p2034
(dp2035
g1642
F0.184
sg1643
F0.164
sg1644
I196
sg1645
F0.0
sbsI197
(iMeshStructure
Node
p2036
(dp2037
g1642
F0.184
sg1643
F0.176
sg1644
I197
sg1645
F0.0
sbsI198
(iMeshStructure
Node
p2038
(dp2039
g1642
F0.184
sg1643
F0.188
sg1644
I198
sg1645
F0.0
sbsI199
(iMeshStructure
Node
p2040
(dp2041
g1642
F0.184
sg1643
F0.2
sg1644
I199
sg1645
F0.0
sbsI200
(iMeshStructure
Node
p2042
(dp2043
g1642
F0.2
sg1643
F0.0
sg1644
I200
sg1645
F0.0
sbsI201
(iMeshStructure
Node
p2044
(dp2045
g1642
F0.2
sg1643
F0.012
sg1644
I201
sg1645
F0.0
sbsI202
(iMeshStructure
Node
p2046
(dp2047
g1642
F0.2
sg1643
F0.024
sg1644
I202
sg1645
F0.0
sbsI203
(iMeshStructure
Node
p2048
(dp2049
g1642
F0.2
sg1643
F0.036
sg1644
I203
sg1645
F0.0
sbsI204
(iMeshStructure
Node
p2050
(dp2051
g1642
F0.2
sg1643
F0.048
sg1644
I204
sg1645
F0.0
sbsI205
(iMeshStructure
Node
p2052
(dp2053
g1642
F0.2
sg1643
F0.06
sg1644
I205
sg1645
F0.0
sbsI206
(iMeshStructure
Node
p2054
(dp2055
g1642
F0.2
sg1643
F0.073333
sg1644
I206
sg1645
F0.0
sbsI207
(iMeshStructure
Node
p2056
(dp2057
g1642
F0.2
sg1643
F0.086667
sg1644
I207
sg1645
F0.0
sbsI208
(iMeshStructure
Node
p2058
(dp2059
g1642
F0.2
sg1643
F0.1
sg1644
I208
sg1645
F0.0
sbsI209
(iMeshStructure
Node
p2060
(dp2061
g1642
F0.2
sg1643
F0.113333
sg1644
I209
sg1645
F0.0
sbsI210
(iMeshStructure
Node
p2062
(dp2063
g1642
F0.2
sg1643
F0.126667
sg1644
I210
sg1645
F0.0
sbsI211
(iMeshStructure
Node
p2064
(dp2065
g1642
F0.2
sg1643
F0.14
sg1644
I211
sg1645
F0.0
sbsI212
(iMeshStructure
Node
p2066
(dp2067
g1642
F0.2
sg1643
F0.152
sg1644
I212
sg1645
F0.0
sbsI213
(iMeshStructure
Node
p2068
(dp2069
g1642
F0.2
sg1643
F0.164
sg1644
I213
sg1645
F0.0
sbsI214
(iMeshStructure
Node
p2070
(dp2071
g1642
F0.2
sg1643
F0.176
sg1644
I214
sg1645
F0.0
sbsI215
(iMeshStructure
Node
p2072
(dp2073
g1642
F0.2
sg1643
F0.188
sg1644
I215
sg1645
F0.0
sbsI216
(iMeshStructure
Node
p2074
(dp2075
g1642
F0.2
sg1643
F0.2
sg1644
I216
sg1645
F0.0
sbsa(lp2076
I1
aI2
aI3
aI4
aI5
aI6
aI7
aI8
aI9
aI10
aI11
aI12
aI13
aI14
aI15
aI16
aI17
aI18
aI34
aI35
aI51
aI52
aI68
aI69
aI85
aI86
aI91
aI92
aI93
aI94
aI95
aI96
aI97
aI102
aI103
aI108
aI109
aI114
aI115
aI120
aI121
aI122
aI123
aI124
aI125
aI126
aI131
aI132
aI148
aI149
aI165
aI166
aI182
aI183
aI199
aI200
aI201
aI202
aI203
aI204
aI205
aI206
aI207
aI208
aI209
aI210
aI211
aI212
aI213
aI214
aI215
aI216
aa(lp2077
I198
aI197
aI196
aI19
aI195
aI20
aI194
aI21
aI193
aI22
aI192
aI23
aI191
aI24
aI190
aI25
aI189
aI26
aI188
aI27
aI187
aI28
aI186
aI29
aI185
aI30
aI184
aI31
aI181
aI32
aI180
aI33
aI179
aI178
aI177
aI36
aI37
aI38
aI39
aI40
aI41
aI42
aI43
aI44
aI45
aI46
aI47
aI48
aI49
aI50
aI176
aI175
aI53
aI54
aI55
aI56
aI57
aI58
aI59
aI60
aI61
aI62
aI63
aI64
aI65
aI66
aI67
aI174
aI173
aI70
aI71
aI72
aI73
aI74
aI75
aI76
aI77
aI78
aI79
aI80
aI81
aI82
aI83
aI84
aI172
aI171
aI87
aI88
aI89
aI90
aI170
aI169
aI168
aI167
aI164
aI163
aI162
aI98
aI99
aI100
aI101
aI161
aI160
aI104
aI105
aI106
aI107
aI159
aI158
aI110
aI111
aI112
aI113
aI157
aI156
aI116
aI117
aI118
aI119
aI155
aI154
aI127
aI128
aI129
aI130
aI153
aI152
aI133
aI134
aI135
aI136
aI137
aI151
aI138
aI150
aI139
aI147
aI140
aI146
aI141
aI145
aI142
aI143
aI144
aI125
aI124
aI123
aI148
aI149
aI122
aI121
aI132
aI131
aI126
aI120
aI115
aI114
aI109
aI108
aI103
aI102
aI97
aI96
aI95
aI165
aI166
aI94
aI93
aI92
aI91
aI86
aI85
aI69
aI68
aI52
aI51
aI35
aI34
aI17
aI16
aI15
aI182
aI183
aI14
aI13
aI12
aI11
aI10
aI9
aI8
aI7
aI6
aI5
aI4
aI3
aI18
aI2
aI1
aI199
aI200
aI201
aI202
aI203
aI204
aI205
aI206
aI207
aI208
aI209
aI210
aI211
aI212
aI213
aI214
aI215
aI216
aa.