(lp0
(iMatrix
Matrix
p1
(dp2
S'rows'
p3
I44
sS'elements'
p4
(dp5
S'10,31'
p6
(iMatrix
MatrixElement
p7
(dp8
S'i'
p9
I10
sS'j'
p10
I31
sS'value'
p11
I0
sbsS'10,30'
p12
(iMatrix
MatrixElement
p13
(dp14
g9
I10
sg10
I30
sg11
I0
sbsS'10,33'
p15
(iMatrix
MatrixElement
p16
(dp17
g9
I10
sg10
I33
sg11
I0
sbsS'10,32'
p18
(iMatrix
MatrixElement
p19
(dp20
g9
I10
sg10
I32
sg11
I0
sbsS'10,35'
p21
(iMatrix
MatrixElement
p22
(dp23
g9
I10
sg10
I35
sg11
I0
sbsS'10,34'
p24
(iMatrix
MatrixElement
p25
(dp26
g9
I10
sg10
I34
sg11
I0
sbsS'1,8'
p27
(iMatrix
MatrixElement
p28
(dp29
g9
I1
sg10
I8
sg11
I0
sbsS'1,9'
p30
(iMatrix
MatrixElement
p31
(dp32
g9
I1
sg10
I9
sg11
I0
sbsS'1,6'
p33
(iMatrix
MatrixElement
p34
(dp35
g9
I1
sg10
I6
sg11
I0
sbsS'1,7'
p36
(iMatrix
MatrixElement
p37
(dp38
g9
I1
sg10
I7
sg11
I0
sbsS'1,4'
p39
(iMatrix
MatrixElement
p40
(dp41
g9
I1
sg10
I4
sg11
I0
sbsS'1,5'
p42
(iMatrix
MatrixElement
p43
(dp44
g9
I1
sg10
I5
sg11
I0
sbsS'1,2'
p45
(iMatrix
MatrixElement
p46
(dp47
g9
I1
sg10
I2
sg11
F-1.3333250000000154
sbsS'1,3'
p48
(iMatrix
MatrixElement
p49
(dp50
g9
I1
sg10
I3
sg11
I0
sbsS'1,1'
p51
(iMatrix
MatrixElement
p52
(dp53
g9
I1
sg10
I1
sg11
F4.16665937558595
sbsS'38,9'
p54
(iMatrix
MatrixElement
p55
(dp56
g9
I38
sg10
I9
sg11
I0
sbsS'38,8'
p57
(iMatrix
MatrixElement
p58
(dp59
g9
I38
sg10
I8
sg11
I0
sbsS'38,1'
p60
(iMatrix
MatrixElement
p61
(dp62
g9
I38
sg10
I1
sg11
I0
sbsS'38,3'
p63
(iMatrix
MatrixElement
p64
(dp65
g9
I38
sg10
I3
sg11
I0
sbsS'38,2'
p66
(iMatrix
MatrixElement
p67
(dp68
g9
I38
sg10
I2
sg11
I0
sbsS'38,5'
p69
(iMatrix
MatrixElement
p70
(dp71
g9
I38
sg10
I5
sg11
I0
sbsS'38,4'
p72
(iMatrix
MatrixElement
p73
(dp74
g9
I38
sg10
I4
sg11
I0
sbsS'38,7'
p75
(iMatrix
MatrixElement
p76
(dp77
g9
I38
sg10
I7
sg11
I0
sbsS'38,6'
p78
(iMatrix
MatrixElement
p79
(dp80
g9
I38
sg10
I6
sg11
I0
sbsS'10,37'
p81
(iMatrix
MatrixElement
p82
(dp83
g9
I10
sg10
I37
sg11
I0
sbsS'10,36'
p84
(iMatrix
MatrixElement
p85
(dp86
g9
I10
sg10
I36
sg11
I0
sbsS'15,14'
p87
(iMatrix
MatrixElement
p88
(dp89
g9
I15
sg10
I14
sg11
I0
sbsS'15,15'
p90
(iMatrix
MatrixElement
p91
(dp92
g9
I15
sg10
I15
sg11
F4.16665937558595
sbsS'15,16'
p93
(iMatrix
MatrixElement
p94
(dp95
g9
I15
sg10
I16
sg11
I0
sbsS'15,17'
p96
(iMatrix
MatrixElement
p97
(dp98
g9
I15
sg10
I17
sg11
I0
sbsS'15,10'
p99
(iMatrix
MatrixElement
p100
(dp101
g9
I15
sg10
I10
sg11
I0
sbsS'15,11'
p102
(iMatrix
MatrixElement
p103
(dp104
g9
I15
sg10
I11
sg11
I0
sbsS'15,12'
p105
(iMatrix
MatrixElement
p106
(dp107
g9
I15
sg10
I12
sg11
I0
sbsS'15,13'
p108
(iMatrix
MatrixElement
p109
(dp110
g9
I15
sg10
I13
sg11
F-1.3333250000000012
sbsS'15,18'
p111
(iMatrix
MatrixElement
p112
(dp113
g9
I15
sg10
I18
sg11
I0
sbsS'15,19'
p114
(iMatrix
MatrixElement
p115
(dp116
g9
I15
sg10
I19
sg11
I0
sbsS'9,36'
p117
(iMatrix
MatrixElement
p118
(dp119
g9
I9
sg10
I36
sg11
I0
sbsS'9,37'
p120
(iMatrix
MatrixElement
p121
(dp122
g9
I9
sg10
I37
sg11
I0
sbsS'9,34'
p123
(iMatrix
MatrixElement
p124
(dp125
g9
I9
sg10
I34
sg11
I0
sbsS'9,35'
p126
(iMatrix
MatrixElement
p127
(dp128
g9
I9
sg10
I35
sg11
I0
sbsS'40,8'
p129
(iMatrix
MatrixElement
p130
(dp131
g9
I40
sg10
I8
sg11
I0
sbsS'40,9'
p132
(iMatrix
MatrixElement
p133
(dp134
g9
I40
sg10
I9
sg11
I0
sbsS'9,30'
p135
(iMatrix
MatrixElement
p136
(dp137
g9
I9
sg10
I30
sg11
I0
sbsS'9,31'
p138
(iMatrix
MatrixElement
p139
(dp140
g9
I9
sg10
I31
sg11
I0
sbsS'40,4'
p141
(iMatrix
MatrixElement
p142
(dp143
g9
I40
sg10
I4
sg11
I0
sbsS'40,5'
p144
(iMatrix
MatrixElement
p145
(dp146
g9
I40
sg10
I5
sg11
I0
sbsS'40,6'
p147
(iMatrix
MatrixElement
p148
(dp149
g9
I40
sg10
I6
sg11
I0
sbsS'40,7'
p150
(iMatrix
MatrixElement
p151
(dp152
g9
I40
sg10
I7
sg11
I0
sbsS'40,1'
p153
(iMatrix
MatrixElement
p154
(dp155
g9
I40
sg10
I1
sg11
I0
sbsS'40,2'
p156
(iMatrix
MatrixElement
p157
(dp158
g9
I40
sg10
I2
sg11
I0
sbsS'40,3'
p159
(iMatrix
MatrixElement
p160
(dp161
g9
I40
sg10
I3
sg11
I0
sbsS'34,15'
p162
(iMatrix
MatrixElement
p163
(dp164
g9
I34
sg10
I15
sg11
I0
sbsS'34,14'
p165
(iMatrix
MatrixElement
p166
(dp167
g9
I34
sg10
I14
sg11
I0
sbsS'34,17'
p168
(iMatrix
MatrixElement
p169
(dp170
g9
I34
sg10
I17
sg11
I0
sbsS'34,16'
p171
(iMatrix
MatrixElement
p172
(dp173
g9
I34
sg10
I16
sg11
I0
sbsS'34,11'
p174
(iMatrix
MatrixElement
p175
(dp176
g9
I34
sg10
I11
sg11
F-0.7500187504687601
sbsS'34,10'
p177
(iMatrix
MatrixElement
p178
(dp179
g9
I34
sg10
I10
sg11
I0
sbsS'34,13'
p180
(iMatrix
MatrixElement
p181
(dp182
g9
I34
sg10
I13
sg11
I0
sbsS'34,12'
p183
(iMatrix
MatrixElement
p184
(dp185
g9
I34
sg10
I12
sg11
I0
sbsS'34,19'
p186
(iMatrix
MatrixElement
p187
(dp188
g9
I34
sg10
I19
sg11
I0
sbsS'34,18'
p189
(iMatrix
MatrixElement
p190
(dp191
g9
I34
sg10
I18
sg11
I0
sbsS'11,18'
p192
(iMatrix
MatrixElement
p193
(dp194
g9
I11
sg10
I18
sg11
I0
sbsS'11,19'
p195
(iMatrix
MatrixElement
p196
(dp197
g9
I11
sg10
I19
sg11
I0
sbsS'11,10'
p198
(iMatrix
MatrixElement
p199
(dp200
g9
I11
sg10
I10
sg11
I0
sbsS'11,11'
p201
(iMatrix
MatrixElement
p202
(dp203
g9
I11
sg10
I11
sg11
F4.166659375585954
sbsS'11,12'
p204
(iMatrix
MatrixElement
p205
(dp206
g9
I11
sg10
I12
sg11
I0
sbsS'11,13'
p207
(iMatrix
MatrixElement
p208
(dp209
g9
I11
sg10
I13
sg11
F-1.333325
sbsS'11,14'
p210
(iMatrix
MatrixElement
p211
(dp212
g9
I11
sg10
I14
sg11
I0
sbsS'11,15'
p213
(iMatrix
MatrixElement
p214
(dp215
g9
I11
sg10
I15
sg11
I0
sbsS'11,16'
p216
(iMatrix
MatrixElement
p217
(dp218
g9
I11
sg10
I16
sg11
I0
sbsS'11,17'
p219
(iMatrix
MatrixElement
p220
(dp221
g9
I11
sg10
I17
sg11
I0
sbsS'5,38'
p222
(iMatrix
MatrixElement
p223
(dp224
g9
I5
sg10
I38
sg11
I0
sbsS'5,39'
p225
(iMatrix
MatrixElement
p226
(dp227
g9
I5
sg10
I39
sg11
I0
sbsS'5,32'
p228
(iMatrix
MatrixElement
p229
(dp230
g9
I5
sg10
I32
sg11
I0
sbsS'5,33'
p231
(iMatrix
MatrixElement
p232
(dp233
g9
I5
sg10
I33
sg11
I0
sbsS'5,30'
p234
(iMatrix
MatrixElement
p235
(dp236
g9
I5
sg10
I30
sg11
I0
sbsS'5,31'
p237
(iMatrix
MatrixElement
p238
(dp239
g9
I5
sg10
I31
sg11
I0
sbsS'5,36'
p240
(iMatrix
MatrixElement
p241
(dp242
g9
I5
sg10
I36
sg11
I0
sbsS'5,37'
p243
(iMatrix
MatrixElement
p244
(dp245
g9
I5
sg10
I37
sg11
I0
sbsS'5,34'
p246
(iMatrix
MatrixElement
p247
(dp248
g9
I5
sg10
I34
sg11
I0
sbsS'5,35'
p249
(iMatrix
MatrixElement
p250
(dp251
g9
I5
sg10
I35
sg11
I0
sbsS'35,29'
p252
(iMatrix
MatrixElement
p253
(dp254
g9
I35
sg10
I29
sg11
I0
sbsS'35,28'
p255
(iMatrix
MatrixElement
p256
(dp257
g9
I35
sg10
I28
sg11
I0
sbsS'35,23'
p258
(iMatrix
MatrixElement
p259
(dp260
g9
I35
sg10
I23
sg11
I0
sbsS'35,22'
p261
(iMatrix
MatrixElement
p262
(dp263
g9
I35
sg10
I22
sg11
I0
sbsS'35,21'
p264
(iMatrix
MatrixElement
p265
(dp266
g9
I35
sg10
I21
sg11
I0
sbsS'35,20'
p267
(iMatrix
MatrixElement
p268
(dp269
g9
I35
sg10
I20
sg11
I0
sbsS'35,27'
p270
(iMatrix
MatrixElement
p271
(dp272
g9
I35
sg10
I27
sg11
I0
sbsS'35,26'
p273
(iMatrix
MatrixElement
p274
(dp275
g9
I35
sg10
I26
sg11
I0
sbsS'35,25'
p276
(iMatrix
MatrixElement
p277
(dp278
g9
I35
sg10
I25
sg11
I0
sbsS'35,24'
p279
(iMatrix
MatrixElement
p280
(dp281
g9
I35
sg10
I24
sg11
F-0.7499906251171865
sbsS'31,38'
p282
(iMatrix
MatrixElement
p283
(dp284
g9
I31
sg10
I38
sg11
I0
sbsS'31,39'
p285
(iMatrix
MatrixElement
p286
(dp287
g9
I31
sg10
I39
sg11
I0
sbsS'31,30'
p288
(iMatrix
MatrixElement
p289
(dp290
g9
I31
sg10
I30
sg11
F-1.3333249999999979
sbsS'31,31'
p291
(iMatrix
MatrixElement
p292
(dp293
g9
I31
sg10
I31
sg11
F4.166659375585949
sbsS'31,32'
p294
(iMatrix
MatrixElement
p295
(dp296
g9
I31
sg10
I32
sg11
F-1.3333250000000043
sbsS'31,33'
p297
(iMatrix
MatrixElement
p298
(dp299
g9
I31
sg10
I33
sg11
I0
sbsS'31,34'
p300
(iMatrix
MatrixElement
p301
(dp302
g9
I31
sg10
I34
sg11
I0
sbsS'31,35'
p303
(iMatrix
MatrixElement
p304
(dp305
g9
I31
sg10
I35
sg11
I0
sbsS'31,36'
p306
(iMatrix
MatrixElement
p307
(dp308
g9
I31
sg10
I36
sg11
I0
sbsS'31,37'
p309
(iMatrix
MatrixElement
p310
(dp311
g9
I31
sg10
I37
sg11
I0
sbsS'34,5'
p312
(iMatrix
MatrixElement
p313
(dp314
g9
I34
sg10
I5
sg11
I0
sbsS'34,4'
p315
(iMatrix
MatrixElement
p316
(dp317
g9
I34
sg10
I4
sg11
I0
sbsS'34,7'
p318
(iMatrix
MatrixElement
p319
(dp320
g9
I34
sg10
I7
sg11
I0
sbsS'34,6'
p321
(iMatrix
MatrixElement
p322
(dp323
g9
I34
sg10
I6
sg11
I0
sbsS'34,1'
p324
(iMatrix
MatrixElement
p325
(dp326
g9
I34
sg10
I1
sg11
I0
sbsS'34,3'
p327
(iMatrix
MatrixElement
p328
(dp329
g9
I34
sg10
I3
sg11
I0
sbsS'34,2'
p330
(iMatrix
MatrixElement
p331
(dp332
g9
I34
sg10
I2
sg11
I0
sbsS'34,9'
p333
(iMatrix
MatrixElement
p334
(dp335
g9
I34
sg10
I9
sg11
I0
sbsS'34,8'
p336
(iMatrix
MatrixElement
p337
(dp338
g9
I34
sg10
I8
sg11
I0
sbsS'20,38'
p339
(iMatrix
MatrixElement
p340
(dp341
g9
I20
sg10
I38
sg11
I0
sbsS'20,39'
p342
(iMatrix
MatrixElement
p343
(dp344
g9
I20
sg10
I39
sg11
I0
sbsS'20,36'
p345
(iMatrix
MatrixElement
p346
(dp347
g9
I20
sg10
I36
sg11
I0
sbsS'20,37'
p348
(iMatrix
MatrixElement
p349
(dp350
g9
I20
sg10
I37
sg11
I0
sbsS'20,34'
p351
(iMatrix
MatrixElement
p352
(dp353
g9
I20
sg10
I34
sg11
I0
sbsS'20,35'
p354
(iMatrix
MatrixElement
p355
(dp356
g9
I20
sg10
I35
sg11
I0
sbsS'20,32'
p357
(iMatrix
MatrixElement
p358
(dp359
g9
I20
sg10
I32
sg11
F-0.7500187504687632
sbsS'20,33'
p360
(iMatrix
MatrixElement
p361
(dp362
g9
I20
sg10
I33
sg11
I0
sbsS'20,30'
p363
(iMatrix
MatrixElement
p364
(dp365
g9
I20
sg10
I30
sg11
I0
sbsS'20,31'
p366
(iMatrix
MatrixElement
p367
(dp368
g9
I20
sg10
I31
sg11
I0
sbsS'9,32'
p369
(iMatrix
MatrixElement
p370
(dp371
g9
I9
sg10
I32
sg11
I0
sbsS'9,33'
p372
(iMatrix
MatrixElement
p373
(dp374
g9
I9
sg10
I33
sg11
F-0.7500187504687638
sbsS'28,36'
p375
(iMatrix
MatrixElement
p376
(dp377
g9
I28
sg10
I36
sg11
I0
sbsS'28,37'
p378
(iMatrix
MatrixElement
p379
(dp380
g9
I28
sg10
I37
sg11
I0
sbsS'28,34'
p381
(iMatrix
MatrixElement
p382
(dp383
g9
I28
sg10
I34
sg11
I0
sbsS'28,35'
p384
(iMatrix
MatrixElement
p385
(dp386
g9
I28
sg10
I35
sg11
I0
sbsS'28,32'
p387
(iMatrix
MatrixElement
p388
(dp389
g9
I28
sg10
I32
sg11
I0
sbsS'28,33'
p390
(iMatrix
MatrixElement
p391
(dp392
g9
I28
sg10
I33
sg11
I0
sbsS'28,30'
p393
(iMatrix
MatrixElement
p394
(dp395
g9
I28
sg10
I30
sg11
I0
sbsS'28,31'
p396
(iMatrix
MatrixElement
p397
(dp398
g9
I28
sg10
I31
sg11
I0
sbsS'28,38'
p399
(iMatrix
MatrixElement
p400
(dp401
g9
I28
sg10
I38
sg11
I0
sbsS'28,39'
p402
(iMatrix
MatrixElement
p403
(dp404
g9
I28
sg10
I39
sg11
I0
sbsS'1,29'
p405
(iMatrix
MatrixElement
p406
(dp407
g9
I1
sg10
I29
sg11
I0
sbsS'1,28'
p408
(iMatrix
MatrixElement
p409
(dp410
g9
I1
sg10
I28
sg11
I0
sbsS'9,38'
p411
(iMatrix
MatrixElement
p412
(dp413
g9
I9
sg10
I38
sg11
I0
sbsS'1,21'
p414
(iMatrix
MatrixElement
p415
(dp416
g9
I1
sg10
I21
sg11
I0
sbsS'1,20'
p417
(iMatrix
MatrixElement
p418
(dp419
g9
I1
sg10
I20
sg11
I0
sbsS'1,23'
p420
(iMatrix
MatrixElement
p421
(dp422
g9
I1
sg10
I23
sg11
I0
sbsS'1,22'
p423
(iMatrix
MatrixElement
p424
(dp425
g9
I1
sg10
I22
sg11
I0
sbsS'1,25'
p426
(iMatrix
MatrixElement
p427
(dp428
g9
I1
sg10
I25
sg11
I0
sbsS'1,24'
p429
(iMatrix
MatrixElement
p430
(dp431
g9
I1
sg10
I24
sg11
I0
sbsS'1,27'
p432
(iMatrix
MatrixElement
p433
(dp434
g9
I1
sg10
I27
sg11
I0
sbsS'1,26'
p435
(iMatrix
MatrixElement
p436
(dp437
g9
I1
sg10
I26
sg11
I0
sbsS'18,39'
p438
(iMatrix
MatrixElement
p439
(dp440
g9
I18
sg10
I39
sg11
I0
sbsS'18,38'
p441
(iMatrix
MatrixElement
p442
(dp443
g9
I18
sg10
I38
sg11
I0
sbsS'18,31'
p444
(iMatrix
MatrixElement
p445
(dp446
g9
I18
sg10
I31
sg11
F-0.7500187504687597
sbsS'18,30'
p447
(iMatrix
MatrixElement
p448
(dp449
g9
I18
sg10
I30
sg11
I0
sbsS'18,33'
p450
(iMatrix
MatrixElement
p451
(dp452
g9
I18
sg10
I33
sg11
I0
sbsS'18,32'
p453
(iMatrix
MatrixElement
p454
(dp455
g9
I18
sg10
I32
sg11
I0
sbsS'18,35'
p456
(iMatrix
MatrixElement
p457
(dp458
g9
I18
sg10
I35
sg11
I0
sbsS'18,34'
p459
(iMatrix
MatrixElement
p460
(dp461
g9
I18
sg10
I34
sg11
I0
sbsS'18,37'
p462
(iMatrix
MatrixElement
p463
(dp464
g9
I18
sg10
I37
sg11
I0
sbsS'18,36'
p465
(iMatrix
MatrixElement
p466
(dp467
g9
I18
sg10
I36
sg11
I0
sbsS'14,28'
p468
(iMatrix
MatrixElement
p469
(dp470
g9
I14
sg10
I28
sg11
I0
sbsS'14,29'
p471
(iMatrix
MatrixElement
p472
(dp473
g9
I14
sg10
I29
sg11
F-0.7500187504687617
sbsS'14,26'
p474
(iMatrix
MatrixElement
p475
(dp476
g9
I14
sg10
I26
sg11
I0
sbsS'14,27'
p477
(iMatrix
MatrixElement
p478
(dp479
g9
I14
sg10
I27
sg11
I0
sbsS'14,24'
p480
(iMatrix
MatrixElement
p481
(dp482
g9
I14
sg10
I24
sg11
I0
sbsS'14,25'
p483
(iMatrix
MatrixElement
p484
(dp485
g9
I14
sg10
I25
sg11
I0
sbsS'14,22'
p486
(iMatrix
MatrixElement
p487
(dp488
g9
I14
sg10
I22
sg11
I0
sbsS'14,23'
p489
(iMatrix
MatrixElement
p490
(dp491
g9
I14
sg10
I23
sg11
I0
sbsS'14,20'
p492
(iMatrix
MatrixElement
p493
(dp494
g9
I14
sg10
I20
sg11
I0
sbsS'14,21'
p495
(iMatrix
MatrixElement
p496
(dp497
g9
I14
sg10
I21
sg11
I0
sbsS'24,32'
p498
(iMatrix
MatrixElement
p499
(dp500
g9
I24
sg10
I32
sg11
I0
sbsS'24,33'
p501
(iMatrix
MatrixElement
p502
(dp503
g9
I24
sg10
I33
sg11
I0
sbsS'24,30'
p504
(iMatrix
MatrixElement
p505
(dp506
g9
I24
sg10
I30
sg11
I0
sbsS'24,31'
p507
(iMatrix
MatrixElement
p508
(dp509
g9
I24
sg10
I31
sg11
I0
sbsS'24,36'
p510
(iMatrix
MatrixElement
p511
(dp512
g9
I24
sg10
I36
sg11
I0
sbsS'24,37'
p513
(iMatrix
MatrixElement
p514
(dp515
g9
I24
sg10
I37
sg11
I0
sbsS'24,34'
p516
(iMatrix
MatrixElement
p517
(dp518
g9
I24
sg10
I34
sg11
I0
sbsS'24,35'
p519
(iMatrix
MatrixElement
p520
(dp521
g9
I24
sg10
I35
sg11
F-0.7499906251171865
sbsS'24,38'
p522
(iMatrix
MatrixElement
p523
(dp524
g9
I24
sg10
I38
sg11
I0
sbsS'24,39'
p525
(iMatrix
MatrixElement
p526
(dp527
g9
I24
sg10
I39
sg11
I0
sbsS'24,41'
p528
(iMatrix
MatrixElement
p529
(dp530
g9
I24
sg10
I41
sg11
I0
sbsS'10,22'
p531
(iMatrix
MatrixElement
p532
(dp533
g9
I10
sg10
I22
sg11
I0
sbsS'10,23'
p534
(iMatrix
MatrixElement
p535
(dp536
g9
I10
sg10
I23
sg11
I0
sbsS'10,20'
p537
(iMatrix
MatrixElement
p538
(dp539
g9
I10
sg10
I20
sg11
I0
sbsS'10,21'
p540
(iMatrix
MatrixElement
p541
(dp542
g9
I10
sg10
I21
sg11
I0
sbsS'10,26'
p543
(iMatrix
MatrixElement
p544
(dp545
g9
I10
sg10
I26
sg11
I0
sbsS'10,27'
p546
(iMatrix
MatrixElement
p547
(dp548
g9
I10
sg10
I27
sg11
F-0.7500187504687614
sbsS'10,24'
p549
(iMatrix
MatrixElement
p550
(dp551
g9
I10
sg10
I24
sg11
I0
sbsS'10,25'
p552
(iMatrix
MatrixElement
p553
(dp554
g9
I10
sg10
I25
sg11
I0
sbsS'10,28'
p555
(iMatrix
MatrixElement
p556
(dp557
g9
I10
sg10
I28
sg11
I0
sbsS'10,29'
p558
(iMatrix
MatrixElement
p559
(dp560
g9
I10
sg10
I29
sg11
I0
sbsS'24,44'
p561
(iMatrix
MatrixElement
p562
(dp563
g9
I24
sg10
I44
sg11
I0
sbsS'43,40'
p564
(iMatrix
MatrixElement
p565
(dp566
g9
I43
sg10
I40
sg11
I0
sbsS'43,41'
p567
(iMatrix
MatrixElement
p568
(dp569
g9
I43
sg10
I41
sg11
I0
sbsS'43,42'
p570
(iMatrix
MatrixElement
p571
(dp572
g9
I43
sg10
I42
sg11
F-1.6666750000000037
sbsS'43,43'
p573
(iMatrix
MatrixElement
p574
(dp575
g9
I43
sg10
I43
sg11
F4.583340625117191
sbsS'43,44'
p576
(iMatrix
MatrixElement
p577
(dp578
g9
I43
sg10
I44
sg11
I0
sbsS'9,21'
p579
(iMatrix
MatrixElement
p580
(dp581
g9
I9
sg10
I21
sg11
I0
sbsS'9,20'
p582
(iMatrix
MatrixElement
p583
(dp584
g9
I9
sg10
I20
sg11
I0
sbsS'9,23'
p585
(iMatrix
MatrixElement
p586
(dp587
g9
I9
sg10
I23
sg11
I0
sbsS'9,22'
p588
(iMatrix
MatrixElement
p589
(dp590
g9
I9
sg10
I22
sg11
I0
sbsS'9,25'
p591
(iMatrix
MatrixElement
p592
(dp593
g9
I9
sg10
I25
sg11
I0
sbsS'9,24'
p594
(iMatrix
MatrixElement
p595
(dp596
g9
I9
sg10
I24
sg11
I0
sbsS'9,27'
p597
(iMatrix
MatrixElement
p598
(dp599
g9
I9
sg10
I27
sg11
I0
sbsS'9,26'
p600
(iMatrix
MatrixElement
p601
(dp602
g9
I9
sg10
I26
sg11
I0
sbsS'9,29'
p603
(iMatrix
MatrixElement
p604
(dp605
g9
I9
sg10
I29
sg11
I0
sbsS'9,28'
p606
(iMatrix
MatrixElement
p607
(dp608
g9
I9
sg10
I28
sg11
I0
sbsS'39,1'
p609
(iMatrix
MatrixElement
p610
(dp611
g9
I39
sg10
I1
sg11
I0
sbsS'39,2'
p612
(iMatrix
MatrixElement
p613
(dp614
g9
I39
sg10
I2
sg11
I0
sbsS'39,3'
p615
(iMatrix
MatrixElement
p616
(dp617
g9
I39
sg10
I3
sg11
I0
sbsS'39,4'
p618
(iMatrix
MatrixElement
p619
(dp620
g9
I39
sg10
I4
sg11
I0
sbsS'39,5'
p621
(iMatrix
MatrixElement
p622
(dp623
g9
I39
sg10
I5
sg11
I0
sbsS'39,6'
p624
(iMatrix
MatrixElement
p625
(dp626
g9
I39
sg10
I6
sg11
I0
sbsS'39,7'
p627
(iMatrix
MatrixElement
p628
(dp629
g9
I39
sg10
I7
sg11
I0
sbsS'39,8'
p630
(iMatrix
MatrixElement
p631
(dp632
g9
I39
sg10
I8
sg11
I0
sbsS'39,9'
p633
(iMatrix
MatrixElement
p634
(dp635
g9
I39
sg10
I9
sg11
I0
sbsS'21,9'
p636
(iMatrix
MatrixElement
p637
(dp638
g9
I21
sg10
I9
sg11
I0
sbsS'21,8'
p639
(iMatrix
MatrixElement
p640
(dp641
g9
I21
sg10
I8
sg11
I0
sbsS'21,7'
p642
(iMatrix
MatrixElement
p643
(dp644
g9
I21
sg10
I7
sg11
I0
sbsS'21,6'
p645
(iMatrix
MatrixElement
p646
(dp647
g9
I21
sg10
I6
sg11
I0
sbsS'21,5'
p648
(iMatrix
MatrixElement
p649
(dp650
g9
I21
sg10
I5
sg11
I0
sbsS'21,4'
p651
(iMatrix
MatrixElement
p652
(dp653
g9
I21
sg10
I4
sg11
I0
sbsS'21,3'
p654
(iMatrix
MatrixElement
p655
(dp656
g9
I21
sg10
I3
sg11
F-0.7500187504687645
sbsS'21,2'
p657
(iMatrix
MatrixElement
p658
(dp659
g9
I21
sg10
I2
sg11
I0
sbsS'21,1'
p660
(iMatrix
MatrixElement
p661
(dp662
g9
I21
sg10
I1
sg11
I0
sbsS'41,33'
p663
(iMatrix
MatrixElement
p664
(dp665
g9
I41
sg10
I33
sg11
I0
sbsS'41,32'
p666
(iMatrix
MatrixElement
p667
(dp668
g9
I41
sg10
I32
sg11
I0
sbsS'41,31'
p669
(iMatrix
MatrixElement
p670
(dp671
g9
I41
sg10
I31
sg11
I0
sbsS'30,37'
p672
(iMatrix
MatrixElement
p673
(dp674
g9
I30
sg10
I37
sg11
I0
sbsS'30,36'
p675
(iMatrix
MatrixElement
p676
(dp677
g9
I30
sg10
I36
sg11
I0
sbsS'30,35'
p678
(iMatrix
MatrixElement
p679
(dp680
g9
I30
sg10
I35
sg11
I0
sbsS'30,34'
p681
(iMatrix
MatrixElement
p682
(dp683
g9
I30
sg10
I34
sg11
I0
sbsS'30,33'
p684
(iMatrix
MatrixElement
p685
(dp686
g9
I30
sg10
I33
sg11
I0
sbsS'30,32'
p687
(iMatrix
MatrixElement
p688
(dp689
g9
I30
sg10
I32
sg11
I0
sbsS'30,31'
p690
(iMatrix
MatrixElement
p691
(dp692
g9
I30
sg10
I31
sg11
F-1.3333249999999979
sbsS'30,30'
p693
(iMatrix
MatrixElement
p694
(dp695
g9
I30
sg10
I30
sg11
F4.166659375585942
sbsS'41,37'
p696
(iMatrix
MatrixElement
p697
(dp698
g9
I41
sg10
I37
sg11
F-0.749990625117186
sbsS'30,39'
p699
(iMatrix
MatrixElement
p700
(dp701
g9
I30
sg10
I39
sg11
I0
sbsS'41,36'
p702
(iMatrix
MatrixElement
p703
(dp704
g9
I41
sg10
I36
sg11
F-0.4999999999999998
sbsS'41,35'
p705
(iMatrix
MatrixElement
p706
(dp707
g9
I41
sg10
I35
sg11
I0
sbsS'41,34'
p708
(iMatrix
MatrixElement
p709
(dp710
g9
I41
sg10
I34
sg11
I0
sbsS'38,43'
p711
(iMatrix
MatrixElement
p712
(dp713
g9
I38
sg10
I43
sg11
I0
sbsS'41,39'
p714
(iMatrix
MatrixElement
p715
(dp716
g9
I41
sg10
I39
sg11
I0
sbsS'41,38'
p717
(iMatrix
MatrixElement
p718
(dp719
g9
I41
sg10
I38
sg11
I0
sbsS'26,18'
p720
(iMatrix
MatrixElement
p721
(dp722
g9
I26
sg10
I18
sg11
I0
sbsS'44,12'
p723
(iMatrix
MatrixElement
p724
(dp725
g9
I44
sg10
I12
sg11
I0
sbsS'44,13'
p726
(iMatrix
MatrixElement
p727
(dp728
g9
I44
sg10
I13
sg11
I0
sbsS'44,10'
p729
(iMatrix
MatrixElement
p730
(dp731
g9
I44
sg10
I10
sg11
I0
sbsS'44,11'
p732
(iMatrix
MatrixElement
p733
(dp734
g9
I44
sg10
I11
sg11
I0
sbsS'44,16'
p735
(iMatrix
MatrixElement
p736
(dp737
g9
I44
sg10
I16
sg11
I0
sbsS'44,17'
p738
(iMatrix
MatrixElement
p739
(dp740
g9
I44
sg10
I17
sg11
I0
sbsS'44,14'
p741
(iMatrix
MatrixElement
p742
(dp743
g9
I44
sg10
I14
sg11
I0
sbsS'44,15'
p744
(iMatrix
MatrixElement
p745
(dp746
g9
I44
sg10
I15
sg11
I0
sbsS'44,18'
p747
(iMatrix
MatrixElement
p748
(dp749
g9
I44
sg10
I18
sg11
I0
sbsS'44,19'
p750
(iMatrix
MatrixElement
p751
(dp752
g9
I44
sg10
I19
sg11
I0
sbsS'36,19'
p753
(iMatrix
MatrixElement
p754
(dp755
g9
I36
sg10
I19
sg11
I0
sbsS'36,18'
p756
(iMatrix
MatrixElement
p757
(dp758
g9
I36
sg10
I18
sg11
I0
sbsS'27,9'
p759
(iMatrix
MatrixElement
p760
(dp761
g9
I27
sg10
I9
sg11
I0
sbsS'27,8'
p762
(iMatrix
MatrixElement
p763
(dp764
g9
I27
sg10
I8
sg11
I0
sbsS'35,36'
p765
(iMatrix
MatrixElement
p766
(dp767
g9
I35
sg10
I36
sg11
F-1.6666750000000006
sbsS'35,37'
p768
(iMatrix
MatrixElement
p769
(dp770
g9
I35
sg10
I37
sg11
I0
sbsS'35,30'
p771
(iMatrix
MatrixElement
p772
(dp773
g9
I35
sg10
I30
sg11
I0
sbsS'35,31'
p774
(iMatrix
MatrixElement
p775
(dp776
g9
I35
sg10
I31
sg11
I0
sbsS'35,32'
p777
(iMatrix
MatrixElement
p778
(dp779
g9
I35
sg10
I32
sg11
I0
sbsS'35,33'
p780
(iMatrix
MatrixElement
p781
(dp782
g9
I35
sg10
I33
sg11
I0
sbsS'27,1'
p783
(iMatrix
MatrixElement
p784
(dp785
g9
I27
sg10
I1
sg11
I0
sbsS'27,3'
p786
(iMatrix
MatrixElement
p787
(dp788
g9
I27
sg10
I3
sg11
I0
sbsS'27,2'
p789
(iMatrix
MatrixElement
p790
(dp791
g9
I27
sg10
I2
sg11
I0
sbsS'27,5'
p792
(iMatrix
MatrixElement
p793
(dp794
g9
I27
sg10
I5
sg11
I0
sbsS'27,4'
p795
(iMatrix
MatrixElement
p796
(dp797
g9
I27
sg10
I4
sg11
I0
sbsS'27,7'
p798
(iMatrix
MatrixElement
p799
(dp800
g9
I27
sg10
I7
sg11
I0
sbsS'27,6'
p801
(iMatrix
MatrixElement
p802
(dp803
g9
I27
sg10
I6
sg11
I0
sbsS'5,25'
p804
(iMatrix
MatrixElement
p805
(dp806
g9
I5
sg10
I25
sg11
I0
sbsS'5,24'
p807
(iMatrix
MatrixElement
p808
(dp809
g9
I5
sg10
I24
sg11
I0
sbsS'5,27'
p810
(iMatrix
MatrixElement
p811
(dp812
g9
I5
sg10
I27
sg11
I0
sbsS'5,26'
p813
(iMatrix
MatrixElement
p814
(dp815
g9
I5
sg10
I26
sg11
I0
sbsS'23,9'
p816
(iMatrix
MatrixElement
p817
(dp818
g9
I23
sg10
I9
sg11
I0
sbsS'23,8'
p819
(iMatrix
MatrixElement
p820
(dp821
g9
I23
sg10
I8
sg11
I0
sbsS'5,23'
p822
(iMatrix
MatrixElement
p823
(dp824
g9
I5
sg10
I23
sg11
I0
sbsS'5,22'
p825
(iMatrix
MatrixElement
p826
(dp827
g9
I5
sg10
I22
sg11
F-0.7500187504687597
sbsS'23,5'
p828
(iMatrix
MatrixElement
p829
(dp830
g9
I23
sg10
I5
sg11
I0
sbsS'23,4'
p831
(iMatrix
MatrixElement
p832
(dp833
g9
I23
sg10
I4
sg11
I0
sbsS'23,7'
p834
(iMatrix
MatrixElement
p835
(dp836
g9
I23
sg10
I7
sg11
F-0.7500187504687599
sbsS'23,6'
p837
(iMatrix
MatrixElement
p838
(dp839
g9
I23
sg10
I6
sg11
I0
sbsS'23,1'
p840
(iMatrix
MatrixElement
p841
(dp842
g9
I23
sg10
I1
sg11
I0
sbsS'5,28'
p843
(iMatrix
MatrixElement
p844
(dp845
g9
I5
sg10
I28
sg11
I0
sbsS'23,3'
p846
(iMatrix
MatrixElement
p847
(dp848
g9
I23
sg10
I3
sg11
I0
sbsS'23,2'
p849
(iMatrix
MatrixElement
p850
(dp851
g9
I23
sg10
I2
sg11
I0
sbsS'23,42'
p852
(iMatrix
MatrixElement
p853
(dp854
g9
I23
sg10
I42
sg11
I0
sbsS'23,43'
p855
(iMatrix
MatrixElement
p856
(dp857
g9
I23
sg10
I43
sg11
I0
sbsS'23,40'
p858
(iMatrix
MatrixElement
p859
(dp860
g9
I23
sg10
I40
sg11
I0
sbsS'23,41'
p861
(iMatrix
MatrixElement
p862
(dp863
g9
I23
sg10
I41
sg11
I0
sbsS'35,8'
p864
(iMatrix
MatrixElement
p865
(dp866
g9
I35
sg10
I8
sg11
I0
sbsS'35,9'
p867
(iMatrix
MatrixElement
p868
(dp869
g9
I35
sg10
I9
sg11
I0
sbsS'23,44'
p870
(iMatrix
MatrixElement
p871
(dp872
g9
I23
sg10
I44
sg11
I0
sbsS'35,4'
p873
(iMatrix
MatrixElement
p874
(dp875
g9
I35
sg10
I4
sg11
I0
sbsS'35,5'
p876
(iMatrix
MatrixElement
p877
(dp878
g9
I35
sg10
I5
sg11
I0
sbsS'35,6'
p879
(iMatrix
MatrixElement
p880
(dp881
g9
I35
sg10
I6
sg11
I0
sbsS'35,7'
p882
(iMatrix
MatrixElement
p883
(dp884
g9
I35
sg10
I7
sg11
I0
sbsS'35,1'
p885
(iMatrix
MatrixElement
p886
(dp887
g9
I35
sg10
I1
sg11
I0
sbsS'35,2'
p888
(iMatrix
MatrixElement
p889
(dp890
g9
I35
sg10
I2
sg11
I0
sbsS'35,3'
p891
(iMatrix
MatrixElement
p892
(dp893
g9
I35
sg10
I3
sg11
I0
sbsS'9,6'
p894
(iMatrix
MatrixElement
p895
(dp896
g9
I9
sg10
I6
sg11
I0
sbsS'9,7'
p897
(iMatrix
MatrixElement
p898
(dp899
g9
I9
sg10
I7
sg11
F-1.3333249999999999
sbsS'9,4'
p900
(iMatrix
MatrixElement
p901
(dp902
g9
I9
sg10
I4
sg11
I0
sbsS'9,5'
p903
(iMatrix
MatrixElement
p904
(dp905
g9
I9
sg10
I5
sg11
I0
sbsS'9,2'
p906
(iMatrix
MatrixElement
p907
(dp908
g9
I9
sg10
I2
sg11
I0
sbsS'9,3'
p909
(iMatrix
MatrixElement
p910
(dp911
g9
I9
sg10
I3
sg11
I0
sbsS'9,1'
p912
(iMatrix
MatrixElement
p913
(dp914
g9
I9
sg10
I1
sg11
I0
sbsS'33,38'
p915
(iMatrix
MatrixElement
p916
(dp917
g9
I33
sg10
I38
sg11
I0
sbsS'9,8'
p918
(iMatrix
MatrixElement
p919
(dp920
g9
I9
sg10
I8
sg11
I0
sbsS'9,9'
p921
(iMatrix
MatrixElement
p922
(dp923
g9
I9
sg10
I9
sg11
F4.166659375585955
sbsS'33,29'
p924
(iMatrix
MatrixElement
p925
(dp926
g9
I33
sg10
I29
sg11
I0
sbsS'33,28'
p927
(iMatrix
MatrixElement
p928
(dp929
g9
I33
sg10
I28
sg11
I0
sbsS'33,39'
p930
(iMatrix
MatrixElement
p931
(dp932
g9
I33
sg10
I39
sg11
I0
sbsS'33,21'
p933
(iMatrix
MatrixElement
p934
(dp935
g9
I33
sg10
I21
sg11
I0
sbsS'33,20'
p936
(iMatrix
MatrixElement
p937
(dp938
g9
I33
sg10
I20
sg11
I0
sbsS'33,23'
p939
(iMatrix
MatrixElement
p940
(dp941
g9
I33
sg10
I23
sg11
F-1.3333250000000025
sbsS'33,22'
p942
(iMatrix
MatrixElement
p943
(dp944
g9
I33
sg10
I22
sg11
I0
sbsS'33,25'
p945
(iMatrix
MatrixElement
p946
(dp947
g9
I33
sg10
I25
sg11
I0
sbsS'33,24'
p948
(iMatrix
MatrixElement
p949
(dp950
g9
I33
sg10
I24
sg11
I0
sbsS'33,27'
p951
(iMatrix
MatrixElement
p952
(dp953
g9
I33
sg10
I27
sg11
I0
sbsS'33,26'
p954
(iMatrix
MatrixElement
p955
(dp956
g9
I33
sg10
I26
sg11
I0
sbsS'22,2'
p957
(iMatrix
MatrixElement
p958
(dp959
g9
I22
sg10
I2
sg11
I0
sbsS'14,8'
p960
(iMatrix
MatrixElement
p961
(dp962
g9
I14
sg10
I8
sg11
I0
sbsS'32,28'
p963
(iMatrix
MatrixElement
p964
(dp965
g9
I32
sg10
I28
sg11
I0
sbsS'33,32'
p966
(iMatrix
MatrixElement
p967
(dp968
g9
I33
sg10
I32
sg11
I0
sbsS'32,29'
p969
(iMatrix
MatrixElement
p970
(dp971
g9
I32
sg10
I29
sg11
I0
sbsS'33,33'
p972
(iMatrix
MatrixElement
p973
(dp974
g9
I33
sg10
I33
sg11
F4.166659375585946
sbsS'33,30'
p975
(iMatrix
MatrixElement
p976
(dp977
g9
I33
sg10
I30
sg11
I0
sbsS'14,4'
p978
(iMatrix
MatrixElement
p979
(dp980
g9
I14
sg10
I4
sg11
I0
sbsS'38,39'
p981
(iMatrix
MatrixElement
p982
(dp983
g9
I38
sg10
I39
sg11
I0
sbsS'38,38'
p984
(iMatrix
MatrixElement
p985
(dp986
g9
I38
sg10
I38
sg11
F4.166659375585944
sbsS'38,37'
p987
(iMatrix
MatrixElement
p988
(dp989
g9
I38
sg10
I37
sg11
F-1.333324999999998
sbsS'22,8'
p990
(iMatrix
MatrixElement
p991
(dp992
g9
I22
sg10
I8
sg11
I0
sbsS'38,35'
p993
(iMatrix
MatrixElement
p994
(dp995
g9
I38
sg10
I35
sg11
I0
sbsS'38,34'
p996
(iMatrix
MatrixElement
p997
(dp998
g9
I38
sg10
I34
sg11
I0
sbsS'38,33'
p999
(iMatrix
MatrixElement
p1000
(dp1001
g9
I38
sg10
I33
sg11
I0
sbsS'38,32'
p1002
(iMatrix
MatrixElement
p1003
(dp1004
g9
I38
sg10
I32
sg11
I0
sbsS'38,31'
p1005
(iMatrix
MatrixElement
p1006
(dp1007
g9
I38
sg10
I31
sg11
I0
sbsS'14,2'
p1008
(iMatrix
MatrixElement
p1009
(dp1010
g9
I14
sg10
I2
sg11
I0
sbsS'17,41'
p1011
(iMatrix
MatrixElement
p1012
(dp1013
g9
I17
sg10
I41
sg11
I0
sbsS'33,34'
p1014
(iMatrix
MatrixElement
p1015
(dp1016
g9
I33
sg10
I34
sg11
F-1.3333249999999952
sbsS'17,40'
p1017
(iMatrix
MatrixElement
p1018
(dp1019
g9
I17
sg10
I40
sg11
I0
sbsS'17,43'
p1020
(iMatrix
MatrixElement
p1021
(dp1022
g9
I17
sg10
I43
sg11
I0
sbsS'25,44'
p1023
(iMatrix
MatrixElement
p1024
(dp1025
g9
I25
sg10
I44
sg11
I0
sbsS'17,42'
p1026
(iMatrix
MatrixElement
p1027
(dp1028
g9
I17
sg10
I42
sg11
I0
sbsS'25,40'
p1029
(iMatrix
MatrixElement
p1030
(dp1031
g9
I25
sg10
I40
sg11
I0
sbsS'25,41'
p1032
(iMatrix
MatrixElement
p1033
(dp1034
g9
I25
sg10
I41
sg11
I0
sbsS'25,42'
p1035
(iMatrix
MatrixElement
p1036
(dp1037
g9
I25
sg10
I42
sg11
I0
sbsS'25,43'
p1038
(iMatrix
MatrixElement
p1039
(dp1040
g9
I25
sg10
I43
sg11
I0
sbsS'32,26'
p1041
(iMatrix
MatrixElement
p1042
(dp1043
g9
I32
sg10
I26
sg11
I0
sbsS'32,27'
p1044
(iMatrix
MatrixElement
p1045
(dp1046
g9
I32
sg10
I27
sg11
I0
sbsS'18,28'
p1047
(iMatrix
MatrixElement
p1048
(dp1049
g9
I18
sg10
I28
sg11
I0
sbsS'18,29'
p1050
(iMatrix
MatrixElement
p1051
(dp1052
g9
I18
sg10
I29
sg11
I0
sbsS'18,22'
p1053
(iMatrix
MatrixElement
p1054
(dp1055
g9
I18
sg10
I22
sg11
I0
sbsS'18,23'
p1056
(iMatrix
MatrixElement
p1057
(dp1058
g9
I18
sg10
I23
sg11
I0
sbsS'18,20'
p1059
(iMatrix
MatrixElement
p1060
(dp1061
g9
I18
sg10
I20
sg11
F-1.3333249999999992
sbsS'18,21'
p1062
(iMatrix
MatrixElement
p1063
(dp1064
g9
I18
sg10
I21
sg11
I0
sbsS'18,26'
p1065
(iMatrix
MatrixElement
p1066
(dp1067
g9
I18
sg10
I26
sg11
I0
sbsS'18,27'
p1068
(iMatrix
MatrixElement
p1069
(dp1070
g9
I18
sg10
I27
sg11
I0
sbsS'18,24'
p1071
(iMatrix
MatrixElement
p1072
(dp1073
g9
I18
sg10
I24
sg11
I0
sbsS'18,25'
p1074
(iMatrix
MatrixElement
p1075
(dp1076
g9
I18
sg10
I25
sg11
I0
sbsS'14,19'
p1077
(iMatrix
MatrixElement
p1078
(dp1079
g9
I14
sg10
I19
sg11
I0
sbsS'14,18'
p1080
(iMatrix
MatrixElement
p1081
(dp1082
g9
I14
sg10
I18
sg11
I0
sbsS'14,13'
p1083
(iMatrix
MatrixElement
p1084
(dp1085
g9
I14
sg10
I13
sg11
I0
sbsS'14,12'
p1086
(iMatrix
MatrixElement
p1087
(dp1088
g9
I14
sg10
I12
sg11
F-1.3333250000000003
sbsS'14,11'
p1089
(iMatrix
MatrixElement
p1090
(dp1091
g9
I14
sg10
I11
sg11
I0
sbsS'14,10'
p1092
(iMatrix
MatrixElement
p1093
(dp1094
g9
I14
sg10
I10
sg11
I0
sbsS'14,17'
p1095
(iMatrix
MatrixElement
p1096
(dp1097
g9
I14
sg10
I17
sg11
I0
sbsS'14,16'
p1098
(iMatrix
MatrixElement
p1099
(dp1100
g9
I14
sg10
I16
sg11
F-1.3333249999999985
sbsS'14,15'
p1101
(iMatrix
MatrixElement
p1102
(dp1103
g9
I14
sg10
I15
sg11
I0
sbsS'14,14'
p1104
(iMatrix
MatrixElement
p1105
(dp1106
g9
I14
sg10
I14
sg11
F4.1666593755859465
sbsS'10,19'
p1107
(iMatrix
MatrixElement
p1108
(dp1109
g9
I10
sg10
I19
sg11
I0
sbsS'10,18'
p1110
(iMatrix
MatrixElement
p1111
(dp1112
g9
I10
sg10
I18
sg11
I0
sbsS'10,17'
p1113
(iMatrix
MatrixElement
p1114
(dp1115
g9
I10
sg10
I17
sg11
I0
sbsS'10,16'
p1116
(iMatrix
MatrixElement
p1117
(dp1118
g9
I10
sg10
I16
sg11
I0
sbsS'10,15'
p1119
(iMatrix
MatrixElement
p1120
(dp1121
g9
I10
sg10
I15
sg11
I0
sbsS'10,14'
p1122
(iMatrix
MatrixElement
p1123
(dp1124
g9
I10
sg10
I14
sg11
I0
sbsS'10,13'
p1125
(iMatrix
MatrixElement
p1126
(dp1127
g9
I10
sg10
I13
sg11
I0
sbsS'10,12'
p1128
(iMatrix
MatrixElement
p1129
(dp1130
g9
I10
sg10
I12
sg11
F-1.3333249999999994
sbsS'10,11'
p1131
(iMatrix
MatrixElement
p1132
(dp1133
g9
I10
sg10
I11
sg11
I0
sbsS'10,10'
p1134
(iMatrix
MatrixElement
p1135
(dp1136
g9
I10
sg10
I10
sg11
F4.166659375585946
sbsS'34,33'
p1137
(iMatrix
MatrixElement
p1138
(dp1139
g9
I34
sg10
I33
sg11
F-1.3333249999999952
sbsS'34,32'
p1140
(iMatrix
MatrixElement
p1141
(dp1142
g9
I34
sg10
I32
sg11
I0
sbsS'34,31'
p1143
(iMatrix
MatrixElement
p1144
(dp1145
g9
I34
sg10
I31
sg11
I0
sbsS'34,30'
p1146
(iMatrix
MatrixElement
p1147
(dp1148
g9
I34
sg10
I30
sg11
I0
sbsS'34,37'
p1149
(iMatrix
MatrixElement
p1150
(dp1151
g9
I34
sg10
I37
sg11
F-1.3333249999999999
sbsS'34,36'
p1152
(iMatrix
MatrixElement
p1153
(dp1154
g9
I34
sg10
I36
sg11
I0
sbsS'34,35'
p1155
(iMatrix
MatrixElement
p1156
(dp1157
g9
I34
sg10
I35
sg11
I0
sbsS'34,34'
p1158
(iMatrix
MatrixElement
p1159
(dp1160
g9
I34
sg10
I34
sg11
F4.166659375585942
sbsS'34,39'
p1161
(iMatrix
MatrixElement
p1162
(dp1163
g9
I34
sg10
I39
sg11
I0
sbsS'34,38'
p1164
(iMatrix
MatrixElement
p1165
(dp1166
g9
I34
sg10
I38
sg11
I0
sbsS'30,20'
p1167
(iMatrix
MatrixElement
p1168
(dp1169
g9
I30
sg10
I20
sg11
I0
sbsS'30,21'
p1170
(iMatrix
MatrixElement
p1171
(dp1172
g9
I30
sg10
I21
sg11
I0
sbsS'30,22'
p1173
(iMatrix
MatrixElement
p1174
(dp1175
g9
I30
sg10
I22
sg11
I0
sbsS'30,23'
p1176
(iMatrix
MatrixElement
p1177
(dp1178
g9
I30
sg10
I23
sg11
I0
sbsS'30,24'
p1179
(iMatrix
MatrixElement
p1180
(dp1181
g9
I30
sg10
I24
sg11
I0
sbsS'30,25'
p1182
(iMatrix
MatrixElement
p1183
(dp1184
g9
I30
sg10
I25
sg11
I0
sbsS'30,26'
p1185
(iMatrix
MatrixElement
p1186
(dp1187
g9
I30
sg10
I26
sg11
I0
sbsS'30,27'
p1188
(iMatrix
MatrixElement
p1189
(dp1190
g9
I30
sg10
I27
sg11
I0
sbsS'30,28'
p1191
(iMatrix
MatrixElement
p1192
(dp1193
g9
I30
sg10
I28
sg11
I0
sbsS'30,29'
p1194
(iMatrix
MatrixElement
p1195
(dp1196
g9
I30
sg10
I29
sg11
F-1.3333249999999994
sbsS'40,18'
p1197
(iMatrix
MatrixElement
p1198
(dp1199
g9
I40
sg10
I18
sg11
I0
sbsS'40,19'
p1200
(iMatrix
MatrixElement
p1201
(dp1202
g9
I40
sg10
I19
sg11
F-0.7499906251171857
sbsS'40,16'
p1203
(iMatrix
MatrixElement
p1204
(dp1205
g9
I40
sg10
I16
sg11
I0
sbsS'40,17'
p1206
(iMatrix
MatrixElement
p1207
(dp1208
g9
I40
sg10
I17
sg11
I0
sbsS'40,14'
p1209
(iMatrix
MatrixElement
p1210
(dp1211
g9
I40
sg10
I14
sg11
I0
sbsS'40,15'
p1212
(iMatrix
MatrixElement
p1213
(dp1214
g9
I40
sg10
I15
sg11
I0
sbsS'40,12'
p1215
(iMatrix
MatrixElement
p1216
(dp1217
g9
I40
sg10
I12
sg11
I0
sbsS'40,13'
p1218
(iMatrix
MatrixElement
p1219
(dp1220
g9
I40
sg10
I13
sg11
I0
sbsS'40,10'
p1221
(iMatrix
MatrixElement
p1222
(dp1223
g9
I40
sg10
I10
sg11
I0
sbsS'40,11'
p1224
(iMatrix
MatrixElement
p1225
(dp1226
g9
I40
sg10
I11
sg11
I0
sbsS'26,44'
p1227
(iMatrix
MatrixElement
p1228
(dp1229
g9
I26
sg10
I44
sg11
I0
sbsS'26,41'
p1230
(iMatrix
MatrixElement
p1231
(dp1232
g9
I26
sg10
I41
sg11
I0
sbsS'26,40'
p1233
(iMatrix
MatrixElement
p1234
(dp1235
g9
I26
sg10
I40
sg11
I0
sbsS'26,43'
p1236
(iMatrix
MatrixElement
p1237
(dp1238
g9
I26
sg10
I43
sg11
I0
sbsS'26,42'
p1239
(iMatrix
MatrixElement
p1240
(dp1241
g9
I26
sg10
I42
sg11
I0
sbsS'44,29'
p1242
(iMatrix
MatrixElement
p1243
(dp1244
g9
I44
sg10
I29
sg11
I0
sbsS'44,28'
p1245
(iMatrix
MatrixElement
p1246
(dp1247
g9
I44
sg10
I28
sg11
I0
sbsS'44,27'
p1248
(iMatrix
MatrixElement
p1249
(dp1250
g9
I44
sg10
I27
sg11
I0
sbsS'44,26'
p1251
(iMatrix
MatrixElement
p1252
(dp1253
g9
I44
sg10
I26
sg11
I0
sbsS'44,25'
p1254
(iMatrix
MatrixElement
p1255
(dp1256
g9
I44
sg10
I25
sg11
I0
sbsS'44,24'
p1257
(iMatrix
MatrixElement
p1258
(dp1259
g9
I44
sg10
I24
sg11
I0
sbsS'44,23'
p1260
(iMatrix
MatrixElement
p1261
(dp1262
g9
I44
sg10
I23
sg11
I0
sbsS'44,22'
p1263
(iMatrix
MatrixElement
p1264
(dp1265
g9
I44
sg10
I22
sg11
I0
sbsS'44,21'
p1266
(iMatrix
MatrixElement
p1267
(dp1268
g9
I44
sg10
I21
sg11
I0
sbsS'44,20'
p1269
(iMatrix
MatrixElement
p1270
(dp1271
g9
I44
sg10
I20
sg11
I0
sbsS'35,41'
p1272
(iMatrix
MatrixElement
p1273
(dp1274
g9
I35
sg10
I41
sg11
I0
sbsS'35,40'
p1275
(iMatrix
MatrixElement
p1276
(dp1277
g9
I35
sg10
I40
sg11
I0
sbsS'35,43'
p1278
(iMatrix
MatrixElement
p1279
(dp1280
g9
I35
sg10
I43
sg11
I0
sbsS'35,42'
p1281
(iMatrix
MatrixElement
p1282
(dp1283
g9
I35
sg10
I42
sg11
I0
sbsS'35,44'
p1284
(iMatrix
MatrixElement
p1285
(dp1286
g9
I35
sg10
I44
sg11
F-0.5000000000000004
sbsS'37,25'
p1287
(iMatrix
MatrixElement
p1288
(dp1289
g9
I37
sg10
I25
sg11
I0
sbsS'37,24'
p1290
(iMatrix
MatrixElement
p1291
(dp1292
g9
I37
sg10
I24
sg11
I0
sbsS'37,27'
p1293
(iMatrix
MatrixElement
p1294
(dp1295
g9
I37
sg10
I27
sg11
I0
sbsS'37,26'
p1296
(iMatrix
MatrixElement
p1297
(dp1298
g9
I37
sg10
I26
sg11
I0
sbsS'37,21'
p1299
(iMatrix
MatrixElement
p1300
(dp1301
g9
I37
sg10
I21
sg11
I0
sbsS'37,20'
p1302
(iMatrix
MatrixElement
p1303
(dp1304
g9
I37
sg10
I20
sg11
I0
sbsS'37,23'
p1305
(iMatrix
MatrixElement
p1306
(dp1307
g9
I37
sg10
I23
sg11
I0
sbsS'37,22'
p1308
(iMatrix
MatrixElement
p1309
(dp1310
g9
I37
sg10
I22
sg11
I0
sbsS'37,29'
p1311
(iMatrix
MatrixElement
p1312
(dp1313
g9
I37
sg10
I29
sg11
I0
sbsS'37,28'
p1314
(iMatrix
MatrixElement
p1315
(dp1316
g9
I37
sg10
I28
sg11
I0
sbsS'29,35'
p1317
(iMatrix
MatrixElement
p1318
(dp1319
g9
I29
sg10
I35
sg11
I0
sbsS'29,34'
p1320
(iMatrix
MatrixElement
p1321
(dp1322
g9
I29
sg10
I34
sg11
I0
sbsS'29,37'
p1323
(iMatrix
MatrixElement
p1324
(dp1325
g9
I29
sg10
I37
sg11
I0
sbsS'29,36'
p1326
(iMatrix
MatrixElement
p1327
(dp1328
g9
I29
sg10
I36
sg11
I0
sbsS'29,31'
p1329
(iMatrix
MatrixElement
p1330
(dp1331
g9
I29
sg10
I31
sg11
I0
sbsS'29,30'
p1332
(iMatrix
MatrixElement
p1333
(dp1334
g9
I29
sg10
I30
sg11
F-1.3333249999999994
sbsS'29,33'
p1335
(iMatrix
MatrixElement
p1336
(dp1337
g9
I29
sg10
I33
sg11
I0
sbsS'29,32'
p1338
(iMatrix
MatrixElement
p1339
(dp1340
g9
I29
sg10
I32
sg11
I0
sbsS'29,39'
p1341
(iMatrix
MatrixElement
p1342
(dp1343
g9
I29
sg10
I39
sg11
I0
sbsS'29,38'
p1344
(iMatrix
MatrixElement
p1345
(dp1346
g9
I29
sg10
I38
sg11
I0
sbsS'26,1'
p1347
(iMatrix
MatrixElement
p1348
(dp1349
g9
I26
sg10
I1
sg11
I0
sbsS'26,2'
p1350
(iMatrix
MatrixElement
p1351
(dp1352
g9
I26
sg10
I2
sg11
I0
sbsS'26,3'
p1353
(iMatrix
MatrixElement
p1354
(dp1355
g9
I26
sg10
I3
sg11
I0
sbsS'26,4'
p1356
(iMatrix
MatrixElement
p1357
(dp1358
g9
I26
sg10
I4
sg11
I0
sbsS'26,5'
p1359
(iMatrix
MatrixElement
p1360
(dp1361
g9
I26
sg10
I5
sg11
I0
sbsS'26,6'
p1362
(iMatrix
MatrixElement
p1363
(dp1364
g9
I26
sg10
I6
sg11
I0
sbsS'26,7'
p1365
(iMatrix
MatrixElement
p1366
(dp1367
g9
I26
sg10
I7
sg11
I0
sbsS'26,8'
p1368
(iMatrix
MatrixElement
p1369
(dp1370
g9
I26
sg10
I8
sg11
F-0.7500187504687611
sbsS'26,9'
p1371
(iMatrix
MatrixElement
p1372
(dp1373
g9
I26
sg10
I9
sg11
I0
sbsS'22,4'
p1374
(iMatrix
MatrixElement
p1375
(dp1376
g9
I22
sg10
I4
sg11
I0
sbsS'22,5'
p1377
(iMatrix
MatrixElement
p1378
(dp1379
g9
I22
sg10
I5
sg11
F-0.7500187504687597
sbsS'22,6'
p1380
(iMatrix
MatrixElement
p1381
(dp1382
g9
I22
sg10
I6
sg11
I0
sbsS'22,7'
p1383
(iMatrix
MatrixElement
p1384
(dp1385
g9
I22
sg10
I7
sg11
I0
sbsS'22,1'
p1386
(iMatrix
MatrixElement
p1387
(dp1388
g9
I22
sg10
I1
sg11
I0
sbsS'14,9'
p1389
(iMatrix
MatrixElement
p1390
(dp1391
g9
I14
sg10
I9
sg11
I0
sbsS'22,3'
p1392
(iMatrix
MatrixElement
p1393
(dp1394
g9
I22
sg10
I3
sg11
I0
sbsS'14,7'
p1395
(iMatrix
MatrixElement
p1396
(dp1397
g9
I14
sg10
I7
sg11
I0
sbsS'14,6'
p1398
(iMatrix
MatrixElement
p1399
(dp1400
g9
I14
sg10
I6
sg11
I0
sbsS'14,5'
p1401
(iMatrix
MatrixElement
p1402
(dp1403
g9
I14
sg10
I5
sg11
I0
sbsS'33,31'
p1404
(iMatrix
MatrixElement
p1405
(dp1406
g9
I33
sg10
I31
sg11
I0
sbsS'14,3'
p1407
(iMatrix
MatrixElement
p1408
(dp1409
g9
I14
sg10
I3
sg11
I0
sbsS'22,9'
p1410
(iMatrix
MatrixElement
p1411
(dp1412
g9
I22
sg10
I9
sg11
I0
sbsS'14,1'
p1413
(iMatrix
MatrixElement
p1414
(dp1415
g9
I14
sg10
I1
sg11
I0
sbsS'33,35'
p1416
(iMatrix
MatrixElement
p1417
(dp1418
g9
I33
sg10
I35
sg11
I0
sbsS'21,39'
p1419
(iMatrix
MatrixElement
p1420
(dp1421
g9
I21
sg10
I39
sg11
I0
sbsS'21,38'
p1422
(iMatrix
MatrixElement
p1423
(dp1424
g9
I21
sg10
I38
sg11
I0
sbsS'21,35'
p1425
(iMatrix
MatrixElement
p1426
(dp1427
g9
I21
sg10
I35
sg11
I0
sbsS'21,34'
p1428
(iMatrix
MatrixElement
p1429
(dp1430
g9
I21
sg10
I34
sg11
I0
sbsS'21,37'
p1431
(iMatrix
MatrixElement
p1432
(dp1433
g9
I21
sg10
I37
sg11
I0
sbsS'21,36'
p1434
(iMatrix
MatrixElement
p1435
(dp1436
g9
I21
sg10
I36
sg11
I0
sbsS'21,31'
p1437
(iMatrix
MatrixElement
p1438
(dp1439
g9
I21
sg10
I31
sg11
I0
sbsS'21,30'
p1440
(iMatrix
MatrixElement
p1441
(dp1442
g9
I21
sg10
I30
sg11
I0
sbsS'21,33'
p1443
(iMatrix
MatrixElement
p1444
(dp1445
g9
I21
sg10
I33
sg11
I0
sbsS'21,32'
p1446
(iMatrix
MatrixElement
p1447
(dp1448
g9
I21
sg10
I32
sg11
I0
sbsS'38,28'
p1449
(iMatrix
MatrixElement
p1450
(dp1451
g9
I38
sg10
I28
sg11
I0
sbsS'38,29'
p1452
(iMatrix
MatrixElement
p1453
(dp1454
g9
I38
sg10
I29
sg11
I0
sbsS'38,20'
p1455
(iMatrix
MatrixElement
p1456
(dp1457
g9
I38
sg10
I20
sg11
I0
sbsS'38,21'
p1458
(iMatrix
MatrixElement
p1459
(dp1460
g9
I38
sg10
I21
sg11
I0
sbsS'38,22'
p1461
(iMatrix
MatrixElement
p1462
(dp1463
g9
I38
sg10
I22
sg11
I0
sbsS'38,23'
p1464
(iMatrix
MatrixElement
p1465
(dp1466
g9
I38
sg10
I23
sg11
I0
sbsS'38,24'
p1467
(iMatrix
MatrixElement
p1468
(dp1469
g9
I38
sg10
I24
sg11
I0
sbsS'38,25'
p1470
(iMatrix
MatrixElement
p1471
(dp1472
g9
I38
sg10
I25
sg11
I0
sbsS'38,26'
p1473
(iMatrix
MatrixElement
p1474
(dp1475
g9
I38
sg10
I26
sg11
I0
sbsS'38,27'
p1476
(iMatrix
MatrixElement
p1477
(dp1478
g9
I38
sg10
I27
sg11
I0
sbsS'28,18'
p1479
(iMatrix
MatrixElement
p1480
(dp1481
g9
I28
sg10
I18
sg11
I0
sbsS'28,19'
p1482
(iMatrix
MatrixElement
p1483
(dp1484
g9
I28
sg10
I19
sg11
I0
sbsS'28,14'
p1485
(iMatrix
MatrixElement
p1486
(dp1487
g9
I28
sg10
I14
sg11
I0
sbsS'28,15'
p1488
(iMatrix
MatrixElement
p1489
(dp1490
g9
I28
sg10
I15
sg11
I0
sbsS'28,16'
p1491
(iMatrix
MatrixElement
p1492
(dp1493
g9
I28
sg10
I16
sg11
I0
sbsS'28,17'
p1494
(iMatrix
MatrixElement
p1495
(dp1496
g9
I28
sg10
I17
sg11
I0
sbsS'28,10'
p1497
(iMatrix
MatrixElement
p1498
(dp1499
g9
I28
sg10
I10
sg11
I0
sbsS'28,11'
p1500
(iMatrix
MatrixElement
p1501
(dp1502
g9
I28
sg10
I11
sg11
I0
sbsS'28,12'
p1503
(iMatrix
MatrixElement
p1504
(dp1505
g9
I28
sg10
I12
sg11
F-0.7500187504687621
sbsS'28,13'
p1506
(iMatrix
MatrixElement
p1507
(dp1508
g9
I28
sg10
I13
sg11
I0
sbsS'25,31'
p1509
(iMatrix
MatrixElement
p1510
(dp1511
g9
I25
sg10
I31
sg11
I0
sbsS'25,30'
p1512
(iMatrix
MatrixElement
p1513
(dp1514
g9
I25
sg10
I30
sg11
I0
sbsS'25,33'
p1515
(iMatrix
MatrixElement
p1516
(dp1517
g9
I25
sg10
I33
sg11
I0
sbsS'25,32'
p1518
(iMatrix
MatrixElement
p1519
(dp1520
g9
I25
sg10
I32
sg11
I0
sbsS'25,35'
p1521
(iMatrix
MatrixElement
p1522
(dp1523
g9
I25
sg10
I35
sg11
I0
sbsS'25,34'
p1524
(iMatrix
MatrixElement
p1525
(dp1526
g9
I25
sg10
I34
sg11
I0
sbsS'25,37'
p1527
(iMatrix
MatrixElement
p1528
(dp1529
g9
I25
sg10
I37
sg11
I0
sbsS'25,36'
p1530
(iMatrix
MatrixElement
p1531
(dp1532
g9
I25
sg10
I36
sg11
F-0.7499906251171868
sbsS'25,39'
p1533
(iMatrix
MatrixElement
p1534
(dp1535
g9
I25
sg10
I39
sg11
I0
sbsS'25,38'
p1536
(iMatrix
MatrixElement
p1537
(dp1538
g9
I25
sg10
I38
sg11
I0
sbsS'18,17'
p1539
(iMatrix
MatrixElement
p1540
(dp1541
g9
I18
sg10
I17
sg11
I0
sbsS'18,16'
p1542
(iMatrix
MatrixElement
p1543
(dp1544
g9
I18
sg10
I16
sg11
F-1.3333249999999972
sbsS'18,15'
p1545
(iMatrix
MatrixElement
p1546
(dp1547
g9
I18
sg10
I15
sg11
I0
sbsS'18,14'
p1548
(iMatrix
MatrixElement
p1549
(dp1550
g9
I18
sg10
I14
sg11
I0
sbsS'18,13'
p1551
(iMatrix
MatrixElement
p1552
(dp1553
g9
I18
sg10
I13
sg11
I0
sbsS'18,12'
p1554
(iMatrix
MatrixElement
p1555
(dp1556
g9
I18
sg10
I12
sg11
I0
sbsS'18,11'
p1557
(iMatrix
MatrixElement
p1558
(dp1559
g9
I18
sg10
I11
sg11
I0
sbsS'18,10'
p1560
(iMatrix
MatrixElement
p1561
(dp1562
g9
I18
sg10
I10
sg11
I0
sbsS'18,19'
p1563
(iMatrix
MatrixElement
p1564
(dp1565
g9
I18
sg10
I19
sg11
I0
sbsS'18,18'
p1566
(iMatrix
MatrixElement
p1567
(dp1568
g9
I18
sg10
I18
sg11
F4.166659375585942
sbsS'20,14'
p1569
(iMatrix
MatrixElement
p1570
(dp1571
g9
I20
sg10
I14
sg11
I0
sbsS'20,15'
p1572
(iMatrix
MatrixElement
p1573
(dp1574
g9
I20
sg10
I15
sg11
I0
sbsS'20,16'
p1575
(iMatrix
MatrixElement
p1576
(dp1577
g9
I20
sg10
I16
sg11
I0
sbsS'20,17'
p1578
(iMatrix
MatrixElement
p1579
(dp1580
g9
I20
sg10
I17
sg11
I0
sbsS'20,10'
p1581
(iMatrix
MatrixElement
p1582
(dp1583
g9
I20
sg10
I10
sg11
I0
sbsS'20,11'
p1584
(iMatrix
MatrixElement
p1585
(dp1586
g9
I20
sg10
I11
sg11
I0
sbsS'20,12'
p1587
(iMatrix
MatrixElement
p1588
(dp1589
g9
I20
sg10
I12
sg11
I0
sbsS'20,13'
p1590
(iMatrix
MatrixElement
p1591
(dp1592
g9
I20
sg10
I13
sg11
I0
sbsS'20,18'
p1593
(iMatrix
MatrixElement
p1594
(dp1595
g9
I20
sg10
I18
sg11
F-1.3333249999999992
sbsS'20,19'
p1596
(iMatrix
MatrixElement
p1597
(dp1598
g9
I20
sg10
I19
sg11
I0
sbsS'6,9'
p1599
(iMatrix
MatrixElement
p1600
(dp1601
g9
I6
sg10
I9
sg11
I0
sbsS'12,8'
p1602
(iMatrix
MatrixElement
p1603
(dp1604
g9
I12
sg10
I8
sg11
I0
sbsS'6,1'
p1605
(iMatrix
MatrixElement
p1606
(dp1607
g9
I6
sg10
I1
sg11
I0
sbsS'6,3'
p1608
(iMatrix
MatrixElement
p1609
(dp1610
g9
I6
sg10
I3
sg11
I0
sbsS'6,2'
p1611
(iMatrix
MatrixElement
p1612
(dp1613
g9
I6
sg10
I2
sg11
I0
sbsS'6,5'
p1614
(iMatrix
MatrixElement
p1615
(dp1616
g9
I6
sg10
I5
sg11
I0
sbsS'12,4'
p1617
(iMatrix
MatrixElement
p1618
(dp1619
g9
I12
sg10
I4
sg11
I0
sbsS'6,7'
p1620
(iMatrix
MatrixElement
p1621
(dp1622
g9
I6
sg10
I7
sg11
I0
sbsS'6,6'
p1623
(iMatrix
MatrixElement
p1624
(dp1625
g9
I6
sg10
I6
sg11
F4.166659375585947
sbsS'41,15'
p1626
(iMatrix
MatrixElement
p1627
(dp1628
g9
I41
sg10
I15
sg11
I0
sbsS'41,14'
p1629
(iMatrix
MatrixElement
p1630
(dp1631
g9
I41
sg10
I14
sg11
I0
sbsS'41,17'
p1632
(iMatrix
MatrixElement
p1633
(dp1634
g9
I41
sg10
I17
sg11
I0
sbsS'41,16'
p1635
(iMatrix
MatrixElement
p1636
(dp1637
g9
I41
sg10
I16
sg11
I0
sbsS'41,11'
p1638
(iMatrix
MatrixElement
p1639
(dp1640
g9
I41
sg10
I11
sg11
I0
sbsS'41,10'
p1641
(iMatrix
MatrixElement
p1642
(dp1643
g9
I41
sg10
I10
sg11
I0
sbsS'41,13'
p1644
(iMatrix
MatrixElement
p1645
(dp1646
g9
I41
sg10
I13
sg11
I0
sbsS'41,12'
p1647
(iMatrix
MatrixElement
p1648
(dp1649
g9
I41
sg10
I12
sg11
I0
sbsS'41,19'
p1650
(iMatrix
MatrixElement
p1651
(dp1652
g9
I41
sg10
I19
sg11
I0
sbsS'41,18'
p1653
(iMatrix
MatrixElement
p1654
(dp1655
g9
I41
sg10
I18
sg11
I0
sbsS'24,18'
p1656
(iMatrix
MatrixElement
p1657
(dp1658
g9
I24
sg10
I18
sg11
I0
sbsS'24,19'
p1659
(iMatrix
MatrixElement
p1660
(dp1661
g9
I24
sg10
I19
sg11
I0
sbsS'16,9'
p1662
(iMatrix
MatrixElement
p1663
(dp1664
g9
I16
sg10
I9
sg11
I0
sbsS'16,8'
p1665
(iMatrix
MatrixElement
p1666
(dp1667
g9
I16
sg10
I8
sg11
I0
sbsS'24,10'
p1668
(iMatrix
MatrixElement
p1669
(dp1670
g9
I24
sg10
I10
sg11
I0
sbsS'24,11'
p1671
(iMatrix
MatrixElement
p1672
(dp1673
g9
I24
sg10
I11
sg11
I0
sbsS'24,12'
p1674
(iMatrix
MatrixElement
p1675
(dp1676
g9
I24
sg10
I12
sg11
I0
sbsS'24,13'
p1677
(iMatrix
MatrixElement
p1678
(dp1679
g9
I24
sg10
I13
sg11
I0
sbsS'24,14'
p1680
(iMatrix
MatrixElement
p1681
(dp1682
g9
I24
sg10
I14
sg11
I0
sbsS'24,15'
p1683
(iMatrix
MatrixElement
p1684
(dp1685
g9
I24
sg10
I15
sg11
I0
sbsS'24,16'
p1686
(iMatrix
MatrixElement
p1687
(dp1688
g9
I24
sg10
I16
sg11
I0
sbsS'24,17'
p1689
(iMatrix
MatrixElement
p1690
(dp1691
g9
I24
sg10
I17
sg11
I0
sbsS'15,44'
p1692
(iMatrix
MatrixElement
p1693
(dp1694
g9
I15
sg10
I44
sg11
I0
sbsS'15,43'
p1695
(iMatrix
MatrixElement
p1696
(dp1697
g9
I15
sg10
I43
sg11
I0
sbsS'15,42'
p1698
(iMatrix
MatrixElement
p1699
(dp1700
g9
I15
sg10
I42
sg11
I0
sbsS'15,41'
p1701
(iMatrix
MatrixElement
p1702
(dp1703
g9
I15
sg10
I41
sg11
I0
sbsS'15,40'
p1704
(iMatrix
MatrixElement
p1705
(dp1706
g9
I15
sg10
I40
sg11
I0
sbsS'34,28'
p1707
(iMatrix
MatrixElement
p1708
(dp1709
g9
I34
sg10
I28
sg11
I0
sbsS'34,29'
p1710
(iMatrix
MatrixElement
p1711
(dp1712
g9
I34
sg10
I29
sg11
I0
sbsS'34,24'
p1713
(iMatrix
MatrixElement
p1714
(dp1715
g9
I34
sg10
I24
sg11
I0
sbsS'34,25'
p1716
(iMatrix
MatrixElement
p1717
(dp1718
g9
I34
sg10
I25
sg11
I0
sbsS'34,26'
p1719
(iMatrix
MatrixElement
p1720
(dp1721
g9
I34
sg10
I26
sg11
I0
sbsS'34,27'
p1722
(iMatrix
MatrixElement
p1723
(dp1724
g9
I34
sg10
I27
sg11
I0
sbsS'34,20'
p1725
(iMatrix
MatrixElement
p1726
(dp1727
g9
I34
sg10
I20
sg11
I0
sbsS'34,21'
p1728
(iMatrix
MatrixElement
p1729
(dp1730
g9
I34
sg10
I21
sg11
I0
sbsS'34,22'
p1731
(iMatrix
MatrixElement
p1732
(dp1733
g9
I34
sg10
I22
sg11
I0
sbsS'34,23'
p1734
(iMatrix
MatrixElement
p1735
(dp1736
g9
I34
sg10
I23
sg11
I0
sbsS'44,8'
p1737
(iMatrix
MatrixElement
p1738
(dp1739
g9
I44
sg10
I8
sg11
I0
sbsS'44,9'
p1740
(iMatrix
MatrixElement
p1741
(dp1742
g9
I44
sg10
I9
sg11
I0
sbsS'44,1'
p1743
(iMatrix
MatrixElement
p1744
(dp1745
g9
I44
sg10
I1
sg11
I0
sbsS'44,2'
p1746
(iMatrix
MatrixElement
p1747
(dp1748
g9
I44
sg10
I2
sg11
I0
sbsS'44,3'
p1749
(iMatrix
MatrixElement
p1750
(dp1751
g9
I44
sg10
I3
sg11
I0
sbsS'44,4'
p1752
(iMatrix
MatrixElement
p1753
(dp1754
g9
I44
sg10
I4
sg11
I0
sbsS'44,5'
p1755
(iMatrix
MatrixElement
p1756
(dp1757
g9
I44
sg10
I5
sg11
I0
sbsS'44,6'
p1758
(iMatrix
MatrixElement
p1759
(dp1760
g9
I44
sg10
I6
sg11
I0
sbsS'44,7'
p1761
(iMatrix
MatrixElement
p1762
(dp1763
g9
I44
sg10
I7
sg11
I0
sbsS'12,9'
p1764
(iMatrix
MatrixElement
p1765
(dp1766
g9
I12
sg10
I9
sg11
I0
sbsS'40,29'
p1767
(iMatrix
MatrixElement
p1768
(dp1769
g9
I40
sg10
I29
sg11
I0
sbsS'40,28'
p1770
(iMatrix
MatrixElement
p1771
(dp1772
g9
I40
sg10
I28
sg11
I0
sbsS'6,8'
p1773
(iMatrix
MatrixElement
p1774
(dp1775
g9
I6
sg10
I8
sg11
F-1.3333249999999999
sbsS'40,23'
p1776
(iMatrix
MatrixElement
p1777
(dp1778
g9
I40
sg10
I23
sg11
I0
sbsS'40,22'
p1779
(iMatrix
MatrixElement
p1780
(dp1781
g9
I40
sg10
I22
sg11
I0
sbsS'40,21'
p1782
(iMatrix
MatrixElement
p1783
(dp1784
g9
I40
sg10
I21
sg11
I0
sbsS'40,20'
p1785
(iMatrix
MatrixElement
p1786
(dp1787
g9
I40
sg10
I20
sg11
I0
sbsS'40,27'
p1788
(iMatrix
MatrixElement
p1789
(dp1790
g9
I40
sg10
I27
sg11
I0
sbsS'40,26'
p1791
(iMatrix
MatrixElement
p1792
(dp1793
g9
I40
sg10
I26
sg11
I0
sbsS'40,25'
p1794
(iMatrix
MatrixElement
p1795
(dp1796
g9
I40
sg10
I25
sg11
I0
sbsS'40,24'
p1797
(iMatrix
MatrixElement
p1798
(dp1799
g9
I40
sg10
I24
sg11
I0
sbsS'44,38'
p1800
(iMatrix
MatrixElement
p1801
(dp1802
g9
I44
sg10
I38
sg11
F-0.749990625117185
sbsS'12,1'
p1803
(iMatrix
MatrixElement
p1804
(dp1805
g9
I12
sg10
I1
sg11
I0
sbsS'44,30'
p1806
(iMatrix
MatrixElement
p1807
(dp1808
g9
I44
sg10
I30
sg11
I0
sbsS'44,31'
p1809
(iMatrix
MatrixElement
p1810
(dp1811
g9
I44
sg10
I31
sg11
I0
sbsS'44,32'
p1812
(iMatrix
MatrixElement
p1813
(dp1814
g9
I44
sg10
I32
sg11
I0
sbsS'44,33'
p1815
(iMatrix
MatrixElement
p1816
(dp1817
g9
I44
sg10
I33
sg11
I0
sbsS'44,34'
p1818
(iMatrix
MatrixElement
p1819
(dp1820
g9
I44
sg10
I34
sg11
I0
sbsS'12,3'
p1821
(iMatrix
MatrixElement
p1822
(dp1823
g9
I12
sg10
I3
sg11
I0
sbsS'44,36'
p1824
(iMatrix
MatrixElement
p1825
(dp1826
g9
I44
sg10
I36
sg11
I0
sbsS'44,37'
p1827
(iMatrix
MatrixElement
p1828
(dp1829
g9
I44
sg10
I37
sg11
I0
sbsS'11,32'
p1830
(iMatrix
MatrixElement
p1831
(dp1832
g9
I11
sg10
I32
sg11
I0
sbsS'12,2'
p1833
(iMatrix
MatrixElement
p1834
(dp1835
g9
I12
sg10
I2
sg11
I0
sbsS'11,33'
p1836
(iMatrix
MatrixElement
p1837
(dp1838
g9
I11
sg10
I33
sg11
I0
sbsS'12,5'
p1839
(iMatrix
MatrixElement
p1840
(dp1841
g9
I12
sg10
I5
sg11
I0
sbsS'3,21'
p1842
(iMatrix
MatrixElement
p1843
(dp1844
g9
I3
sg10
I21
sg11
F-0.7500187504687645
sbsS'6,4'
p1845
(iMatrix
MatrixElement
p1846
(dp1847
g9
I6
sg10
I4
sg11
F-1.3333249999999996
sbsS'11,31'
p1848
(iMatrix
MatrixElement
p1849
(dp1850
g9
I11
sg10
I31
sg11
I0
sbsS'12,7'
p1851
(iMatrix
MatrixElement
p1852
(dp1853
g9
I12
sg10
I7
sg11
I0
sbsS'11,36'
p1854
(iMatrix
MatrixElement
p1855
(dp1856
g9
I11
sg10
I36
sg11
I0
sbsS'12,6'
p1857
(iMatrix
MatrixElement
p1858
(dp1859
g9
I12
sg10
I6
sg11
I0
sbsS'11,37'
p1860
(iMatrix
MatrixElement
p1861
(dp1862
g9
I11
sg10
I37
sg11
I0
sbsS'11,34'
p1863
(iMatrix
MatrixElement
p1864
(dp1865
g9
I11
sg10
I34
sg11
F-0.7500187504687601
sbsS'11,35'
p1866
(iMatrix
MatrixElement
p1867
(dp1868
g9
I11
sg10
I35
sg11
I0
sbsS'11,38'
p1869
(iMatrix
MatrixElement
p1870
(dp1871
g9
I11
sg10
I38
sg11
I0
sbsS'11,39'
p1872
(iMatrix
MatrixElement
p1873
(dp1874
g9
I11
sg10
I39
sg11
I0
sbsS'11,44'
p1875
(iMatrix
MatrixElement
p1876
(dp1877
g9
I11
sg10
I44
sg11
I0
sbsS'37,36'
p1878
(iMatrix
MatrixElement
p1879
(dp1880
g9
I37
sg10
I36
sg11
I0
sbsS'37,37'
p1881
(iMatrix
MatrixElement
p1882
(dp1883
g9
I37
sg10
I37
sg11
F4.166659375585946
sbsS'37,34'
p1884
(iMatrix
MatrixElement
p1885
(dp1886
g9
I37
sg10
I34
sg11
F-1.3333249999999999
sbsS'37,35'
p1887
(iMatrix
MatrixElement
p1888
(dp1889
g9
I37
sg10
I35
sg11
I0
sbsS'37,32'
p1890
(iMatrix
MatrixElement
p1891
(dp1892
g9
I37
sg10
I32
sg11
I0
sbsS'37,33'
p1893
(iMatrix
MatrixElement
p1894
(dp1895
g9
I37
sg10
I33
sg11
I0
sbsS'37,30'
p1896
(iMatrix
MatrixElement
p1897
(dp1898
g9
I37
sg10
I30
sg11
I0
sbsS'37,31'
p1899
(iMatrix
MatrixElement
p1900
(dp1901
g9
I37
sg10
I31
sg11
I0
sbsS'37,38'
p1902
(iMatrix
MatrixElement
p1903
(dp1904
g9
I37
sg10
I38
sg11
F-1.333324999999998
sbsS'37,39'
p1905
(iMatrix
MatrixElement
p1906
(dp1907
g9
I37
sg10
I39
sg11
I0
sbsS'29,26'
p1908
(iMatrix
MatrixElement
p1909
(dp1910
g9
I29
sg10
I26
sg11
I0
sbsS'29,27'
p1911
(iMatrix
MatrixElement
p1912
(dp1913
g9
I29
sg10
I27
sg11
I0
sbsS'29,24'
p1914
(iMatrix
MatrixElement
p1915
(dp1916
g9
I29
sg10
I24
sg11
I0
sbsS'29,25'
p1917
(iMatrix
MatrixElement
p1918
(dp1919
g9
I29
sg10
I25
sg11
I0
sbsS'29,22'
p1920
(iMatrix
MatrixElement
p1921
(dp1922
g9
I29
sg10
I22
sg11
I0
sbsS'29,23'
p1923
(iMatrix
MatrixElement
p1924
(dp1925
g9
I29
sg10
I23
sg11
I0
sbsS'29,20'
p1926
(iMatrix
MatrixElement
p1927
(dp1928
g9
I29
sg10
I20
sg11
I0
sbsS'29,21'
p1929
(iMatrix
MatrixElement
p1930
(dp1931
g9
I29
sg10
I21
sg11
I0
sbsS'29,28'
p1932
(iMatrix
MatrixElement
p1933
(dp1934
g9
I29
sg10
I28
sg11
F-1.333325000000002
sbsS'29,29'
p1935
(iMatrix
MatrixElement
p1936
(dp1937
g9
I29
sg10
I29
sg11
F4.16665937558595
sbsS'8,44'
p1938
(iMatrix
MatrixElement
p1939
(dp1940
g9
I8
sg10
I44
sg11
I0
sbsS'8,40'
p1941
(iMatrix
MatrixElement
p1942
(dp1943
g9
I8
sg10
I40
sg11
I0
sbsS'8,41'
p1944
(iMatrix
MatrixElement
p1945
(dp1946
g9
I8
sg10
I41
sg11
I0
sbsS'8,42'
p1947
(iMatrix
MatrixElement
p1948
(dp1949
g9
I8
sg10
I42
sg11
I0
sbsS'8,43'
p1950
(iMatrix
MatrixElement
p1951
(dp1952
g9
I8
sg10
I43
sg11
I0
sbsS'16,5'
p1953
(iMatrix
MatrixElement
p1954
(dp1955
g9
I16
sg10
I5
sg11
I0
sbsS'21,28'
p1956
(iMatrix
MatrixElement
p1957
(dp1958
g9
I21
sg10
I28
sg11
I0
sbsS'21,29'
p1959
(iMatrix
MatrixElement
p1960
(dp1961
g9
I21
sg10
I29
sg11
I0
sbsS'21,26'
p1962
(iMatrix
MatrixElement
p1963
(dp1964
g9
I21
sg10
I26
sg11
I0
sbsS'21,27'
p1965
(iMatrix
MatrixElement
p1966
(dp1967
g9
I21
sg10
I27
sg11
I0
sbsS'21,24'
p1968
(iMatrix
MatrixElement
p1969
(dp1970
g9
I21
sg10
I24
sg11
I0
sbsS'21,25'
p1971
(iMatrix
MatrixElement
p1972
(dp1973
g9
I21
sg10
I25
sg11
I0
sbsS'21,22'
p1974
(iMatrix
MatrixElement
p1975
(dp1976
g9
I21
sg10
I22
sg11
F-1.3333249999999979
sbsS'16,7'
p1977
(iMatrix
MatrixElement
p1978
(dp1979
g9
I16
sg10
I7
sg11
I0
sbsS'21,20'
p1980
(iMatrix
MatrixElement
p1981
(dp1982
g9
I21
sg10
I20
sg11
I0
sbsS'21,21'
p1983
(iMatrix
MatrixElement
p1984
(dp1985
g9
I21
sg10
I21
sg11
F4.166659375585946
sbsS'16,6'
p1986
(iMatrix
MatrixElement
p1987
(dp1988
g9
I16
sg10
I6
sg11
I0
sbsS'16,1'
p1989
(iMatrix
MatrixElement
p1990
(dp1991
g9
I16
sg10
I1
sg11
I0
sbsS'30,1'
p1992
(iMatrix
MatrixElement
p1993
(dp1994
g9
I30
sg10
I1
sg11
I0
sbsS'30,3'
p1995
(iMatrix
MatrixElement
p1996
(dp1997
g9
I30
sg10
I3
sg11
I0
sbsS'30,2'
p1998
(iMatrix
MatrixElement
p1999
(dp2000
g9
I30
sg10
I2
sg11
I0
sbsS'30,5'
p2001
(iMatrix
MatrixElement
p2002
(dp2003
g9
I30
sg10
I5
sg11
I0
sbsS'30,4'
p2004
(iMatrix
MatrixElement
p2005
(dp2006
g9
I30
sg10
I4
sg11
I0
sbsS'30,7'
p2007
(iMatrix
MatrixElement
p2008
(dp2009
g9
I30
sg10
I7
sg11
I0
sbsS'30,6'
p2010
(iMatrix
MatrixElement
p2011
(dp2012
g9
I30
sg10
I6
sg11
I0
sbsS'30,9'
p2013
(iMatrix
MatrixElement
p2014
(dp2015
g9
I30
sg10
I9
sg11
I0
sbsS'30,8'
p2016
(iMatrix
MatrixElement
p2017
(dp2018
g9
I30
sg10
I8
sg11
I0
sbsS'16,2'
p2019
(iMatrix
MatrixElement
p2020
(dp2021
g9
I16
sg10
I2
sg11
I0
sbsS'25,22'
p2022
(iMatrix
MatrixElement
p2023
(dp2024
g9
I25
sg10
I22
sg11
I0
sbsS'25,23'
p2025
(iMatrix
MatrixElement
p2026
(dp2027
g9
I25
sg10
I23
sg11
I0
sbsS'25,20'
p2028
(iMatrix
MatrixElement
p2029
(dp2030
g9
I25
sg10
I20
sg11
I0
sbsS'25,21'
p2031
(iMatrix
MatrixElement
p2032
(dp2033
g9
I25
sg10
I21
sg11
I0
sbsS'25,26'
p2034
(iMatrix
MatrixElement
p2035
(dp2036
g9
I25
sg10
I26
sg11
F-1.333325000000002
sbsS'25,27'
p2037
(iMatrix
MatrixElement
p2038
(dp2039
g9
I25
sg10
I27
sg11
I0
sbsS'25,24'
p2040
(iMatrix
MatrixElement
p2041
(dp2042
g9
I25
sg10
I24
sg11
F-1.3333250000000003
sbsS'25,25'
p2043
(iMatrix
MatrixElement
p2044
(dp2045
g9
I25
sg10
I25
sg11
F4.166659375585951
sbsS'25,28'
p2046
(iMatrix
MatrixElement
p2047
(dp2048
g9
I25
sg10
I28
sg11
I0
sbsS'25,29'
p2049
(iMatrix
MatrixElement
p2050
(dp2051
g9
I25
sg10
I29
sg11
I0
sbsS'43,11'
p2052
(iMatrix
MatrixElement
p2053
(dp2054
g9
I43
sg10
I11
sg11
I0
sbsS'43,10'
p2055
(iMatrix
MatrixElement
p2056
(dp2057
g9
I43
sg10
I10
sg11
I0
sbsS'39,10'
p2058
(iMatrix
MatrixElement
p2059
(dp2060
g9
I39
sg10
I10
sg11
I0
sbsS'43,18'
p2061
(iMatrix
MatrixElement
p2062
(dp2063
g9
I43
sg10
I18
sg11
I0
sbsS'24,43'
p2064
(iMatrix
MatrixElement
p2065
(dp2066
g9
I24
sg10
I43
sg11
I0
sbsS'17,44'
p2067
(iMatrix
MatrixElement
p2068
(dp2069
g9
I17
sg10
I44
sg11
I0
sbsS'24,42'
p2070
(iMatrix
MatrixElement
p2071
(dp2072
g9
I24
sg10
I42
sg11
I0
sbsS'7,41'
p2073
(iMatrix
MatrixElement
p2074
(dp2075
g9
I7
sg10
I41
sg11
I0
sbsS'7,40'
p2076
(iMatrix
MatrixElement
p2077
(dp2078
g9
I7
sg10
I40
sg11
I0
sbsS'7,43'
p2079
(iMatrix
MatrixElement
p2080
(dp2081
g9
I7
sg10
I43
sg11
I0
sbsS'32,36'
p2082
(iMatrix
MatrixElement
p2083
(dp2084
g9
I32
sg10
I36
sg11
I0
sbsS'7,44'
p2085
(iMatrix
MatrixElement
p2086
(dp2087
g9
I7
sg10
I44
sg11
I0
sbsS'13,1'
p2088
(iMatrix
MatrixElement
p2089
(dp2090
g9
I13
sg10
I1
sg11
I0
sbsS'13,2'
p2091
(iMatrix
MatrixElement
p2092
(dp2093
g9
I13
sg10
I2
sg11
I0
sbsS'13,3'
p2094
(iMatrix
MatrixElement
p2095
(dp2096
g9
I13
sg10
I3
sg11
I0
sbsS'13,4'
p2097
(iMatrix
MatrixElement
p2098
(dp2099
g9
I13
sg10
I4
sg11
I0
sbsS'13,5'
p2100
(iMatrix
MatrixElement
p2101
(dp2102
g9
I13
sg10
I5
sg11
I0
sbsS'13,6'
p2103
(iMatrix
MatrixElement
p2104
(dp2105
g9
I13
sg10
I6
sg11
I0
sbsS'13,7'
p2106
(iMatrix
MatrixElement
p2107
(dp2108
g9
I13
sg10
I7
sg11
I0
sbsS'13,8'
p2109
(iMatrix
MatrixElement
p2110
(dp2111
g9
I13
sg10
I8
sg11
I0
sbsS'13,9'
p2112
(iMatrix
MatrixElement
p2113
(dp2114
g9
I13
sg10
I9
sg11
I0
sbsS'24,40'
p2115
(iMatrix
MatrixElement
p2116
(dp2117
g9
I24
sg10
I40
sg11
I0
sbsS'17,4'
p2118
(iMatrix
MatrixElement
p2119
(dp2120
g9
I17
sg10
I4
sg11
I0
sbsS'17,5'
p2121
(iMatrix
MatrixElement
p2122
(dp2123
g9
I17
sg10
I5
sg11
I0
sbsS'17,6'
p2124
(iMatrix
MatrixElement
p2125
(dp2126
g9
I17
sg10
I6
sg11
I0
sbsS'17,7'
p2127
(iMatrix
MatrixElement
p2128
(dp2129
g9
I17
sg10
I7
sg11
I0
sbsS'17,1'
p2130
(iMatrix
MatrixElement
p2131
(dp2132
g9
I17
sg10
I1
sg11
F-0.7500187504687628
sbsS'17,2'
p2133
(iMatrix
MatrixElement
p2134
(dp2135
g9
I17
sg10
I2
sg11
I0
sbsS'17,3'
p2136
(iMatrix
MatrixElement
p2137
(dp2138
g9
I17
sg10
I3
sg11
I0
sbsS'17,8'
p2139
(iMatrix
MatrixElement
p2140
(dp2141
g9
I17
sg10
I8
sg11
I0
sbsS'17,9'
p2142
(iMatrix
MatrixElement
p2143
(dp2144
g9
I17
sg10
I9
sg11
I0
sbsS'42,6'
p2145
(iMatrix
MatrixElement
p2146
(dp2147
g9
I42
sg10
I6
sg11
I0
sbsS'42,7'
p2148
(iMatrix
MatrixElement
p2149
(dp2150
g9
I42
sg10
I7
sg11
I0
sbsS'42,4'
p2151
(iMatrix
MatrixElement
p2152
(dp2153
g9
I42
sg10
I4
sg11
I0
sbsS'42,5'
p2154
(iMatrix
MatrixElement
p2155
(dp2156
g9
I42
sg10
I5
sg11
I0
sbsS'42,2'
p2157
(iMatrix
MatrixElement
p2158
(dp2159
g9
I42
sg10
I2
sg11
I0
sbsS'42,3'
p2160
(iMatrix
MatrixElement
p2161
(dp2162
g9
I42
sg10
I3
sg11
I0
sbsS'42,1'
p2163
(iMatrix
MatrixElement
p2164
(dp2165
g9
I42
sg10
I1
sg11
I0
sbsS'42,8'
p2166
(iMatrix
MatrixElement
p2167
(dp2168
g9
I42
sg10
I8
sg11
I0
sbsS'42,9'
p2169
(iMatrix
MatrixElement
p2170
(dp2171
g9
I42
sg10
I9
sg11
I0
sbsS'12,44'
p2172
(iMatrix
MatrixElement
p2173
(dp2174
g9
I12
sg10
I44
sg11
I0
sbsS'12,42'
p2175
(iMatrix
MatrixElement
p2176
(dp2177
g9
I12
sg10
I42
sg11
I0
sbsS'12,43'
p2178
(iMatrix
MatrixElement
p2179
(dp2180
g9
I12
sg10
I43
sg11
I0
sbsS'12,40'
p2181
(iMatrix
MatrixElement
p2182
(dp2183
g9
I12
sg10
I40
sg11
I0
sbsS'12,41'
p2184
(iMatrix
MatrixElement
p2185
(dp2186
g9
I12
sg10
I41
sg11
I0
sbsS'40,34'
p2187
(iMatrix
MatrixElement
p2188
(dp2189
g9
I40
sg10
I34
sg11
I0
sbsS'40,35'
p2190
(iMatrix
MatrixElement
p2191
(dp2192
g9
I40
sg10
I35
sg11
I0
sbsS'40,36'
p2193
(iMatrix
MatrixElement
p2194
(dp2195
g9
I40
sg10
I36
sg11
I0
sbsS'40,37'
p2196
(iMatrix
MatrixElement
p2197
(dp2198
g9
I40
sg10
I37
sg11
I0
sbsS'40,30'
p2199
(iMatrix
MatrixElement
p2200
(dp2201
g9
I40
sg10
I30
sg11
I0
sbsS'40,31'
p2202
(iMatrix
MatrixElement
p2203
(dp2204
g9
I40
sg10
I31
sg11
I0
sbsS'40,32'
p2205
(iMatrix
MatrixElement
p2206
(dp2207
g9
I40
sg10
I32
sg11
I0
sbsS'40,33'
p2208
(iMatrix
MatrixElement
p2209
(dp2210
g9
I40
sg10
I33
sg11
I0
sbsS'40,38'
p2211
(iMatrix
MatrixElement
p2212
(dp2213
g9
I40
sg10
I38
sg11
I0
sbsS'40,39'
p2214
(iMatrix
MatrixElement
p2215
(dp2216
g9
I40
sg10
I39
sg11
F-1.6666750000000004
sbsS'17,16'
p2217
(iMatrix
MatrixElement
p2218
(dp2219
g9
I17
sg10
I16
sg11
I0
sbsS'17,17'
p2220
(iMatrix
MatrixElement
p2221
(dp2222
g9
I17
sg10
I17
sg11
F4.166659375585957
sbsS'17,14'
p2223
(iMatrix
MatrixElement
p2224
(dp2225
g9
I17
sg10
I14
sg11
I0
sbsS'17,15'
p2226
(iMatrix
MatrixElement
p2227
(dp2228
g9
I17
sg10
I15
sg11
I0
sbsS'17,12'
p2229
(iMatrix
MatrixElement
p2230
(dp2231
g9
I17
sg10
I12
sg11
I0
sbsS'17,13'
p2232
(iMatrix
MatrixElement
p2233
(dp2234
g9
I17
sg10
I13
sg11
I0
sbsS'17,10'
p2235
(iMatrix
MatrixElement
p2236
(dp2237
g9
I17
sg10
I10
sg11
I0
sbsS'17,11'
p2238
(iMatrix
MatrixElement
p2239
(dp2240
g9
I17
sg10
I11
sg11
I0
sbsS'17,18'
p2241
(iMatrix
MatrixElement
p2242
(dp2243
g9
I17
sg10
I18
sg11
I0
sbsS'17,19'
p2244
(iMatrix
MatrixElement
p2245
(dp2246
g9
I17
sg10
I19
sg11
F-1.3333250000000096
sbsS'6,28'
p2247
(iMatrix
MatrixElement
p2248
(dp2249
g9
I6
sg10
I28
sg11
I0
sbsS'6,29'
p2250
(iMatrix
MatrixElement
p2251
(dp2252
g9
I6
sg10
I29
sg11
I0
sbsS'6,24'
p2253
(iMatrix
MatrixElement
p2254
(dp2255
g9
I6
sg10
I24
sg11
I0
sbsS'6,25'
p2256
(iMatrix
MatrixElement
p2257
(dp2258
g9
I6
sg10
I25
sg11
F-0.7500187504687614
sbsS'6,26'
p2259
(iMatrix
MatrixElement
p2260
(dp2261
g9
I6
sg10
I26
sg11
I0
sbsS'6,27'
p2262
(iMatrix
MatrixElement
p2263
(dp2264
g9
I6
sg10
I27
sg11
I0
sbsS'6,20'
p2265
(iMatrix
MatrixElement
p2266
(dp2267
g9
I6
sg10
I20
sg11
I0
sbsS'6,21'
p2268
(iMatrix
MatrixElement
p2269
(dp2270
g9
I6
sg10
I21
sg11
I0
sbsS'6,22'
p2271
(iMatrix
MatrixElement
p2272
(dp2273
g9
I6
sg10
I22
sg11
I0
sbsS'6,23'
p2274
(iMatrix
MatrixElement
p2275
(dp2276
g9
I6
sg10
I23
sg11
I0
sbsS'29,13'
p2277
(iMatrix
MatrixElement
p2278
(dp2279
g9
I29
sg10
I13
sg11
I0
sbsS'29,12'
p2280
(iMatrix
MatrixElement
p2281
(dp2282
g9
I29
sg10
I12
sg11
I0
sbsS'29,11'
p2283
(iMatrix
MatrixElement
p2284
(dp2285
g9
I29
sg10
I11
sg11
I0
sbsS'29,10'
p2286
(iMatrix
MatrixElement
p2287
(dp2288
g9
I29
sg10
I10
sg11
I0
sbsS'29,17'
p2289
(iMatrix
MatrixElement
p2290
(dp2291
g9
I29
sg10
I17
sg11
I0
sbsS'29,16'
p2292
(iMatrix
MatrixElement
p2293
(dp2294
g9
I29
sg10
I16
sg11
I0
sbsS'29,15'
p2295
(iMatrix
MatrixElement
p2296
(dp2297
g9
I29
sg10
I15
sg11
I0
sbsS'29,14'
p2298
(iMatrix
MatrixElement
p2299
(dp2300
g9
I29
sg10
I14
sg11
F-0.7500187504687617
sbsS'13,12'
p2301
(iMatrix
MatrixElement
p2302
(dp2303
g9
I13
sg10
I12
sg11
I0
sbsS'13,13'
p2304
(iMatrix
MatrixElement
p2305
(dp2306
g9
I13
sg10
I13
sg11
F4.166659375585948
sbsS'13,10'
p2307
(iMatrix
MatrixElement
p2308
(dp2309
g9
I13
sg10
I10
sg11
I0
sbsS'13,11'
p2310
(iMatrix
MatrixElement
p2311
(dp2312
g9
I13
sg10
I11
sg11
F-1.333325
sbsS'13,16'
p2313
(iMatrix
MatrixElement
p2314
(dp2315
g9
I13
sg10
I16
sg11
I0
sbsS'13,17'
p2316
(iMatrix
MatrixElement
p2317
(dp2318
g9
I13
sg10
I17
sg11
I0
sbsS'13,14'
p2319
(iMatrix
MatrixElement
p2320
(dp2321
g9
I13
sg10
I14
sg11
I0
sbsS'13,15'
p2322
(iMatrix
MatrixElement
p2323
(dp2324
g9
I13
sg10
I15
sg11
F-1.3333250000000012
sbsS'33,10'
p2325
(iMatrix
MatrixElement
p2326
(dp2327
g9
I33
sg10
I10
sg11
I0
sbsS'33,11'
p2328
(iMatrix
MatrixElement
p2329
(dp2330
g9
I33
sg10
I11
sg11
I0
sbsS'33,12'
p2331
(iMatrix
MatrixElement
p2332
(dp2333
g9
I33
sg10
I12
sg11
I0
sbsS'33,13'
p2334
(iMatrix
MatrixElement
p2335
(dp2336
g9
I33
sg10
I13
sg11
I0
sbsS'33,14'
p2337
(iMatrix
MatrixElement
p2338
(dp2339
g9
I33
sg10
I14
sg11
I0
sbsS'33,15'
p2340
(iMatrix
MatrixElement
p2341
(dp2342
g9
I33
sg10
I15
sg11
I0
sbsS'33,16'
p2343
(iMatrix
MatrixElement
p2344
(dp2345
g9
I33
sg10
I16
sg11
I0
sbsS'2,27'
p2346
(iMatrix
MatrixElement
p2347
(dp2348
g9
I2
sg10
I27
sg11
I0
sbsS'33,18'
p2349
(iMatrix
MatrixElement
p2350
(dp2351
g9
I33
sg10
I18
sg11
I0
sbsS'33,19'
p2352
(iMatrix
MatrixElement
p2353
(dp2354
g9
I33
sg10
I19
sg11
I0
sbsS'31,8'
p2355
(iMatrix
MatrixElement
p2356
(dp2357
g9
I31
sg10
I8
sg11
I0
sbsS'31,9'
p2358
(iMatrix
MatrixElement
p2359
(dp2360
g9
I31
sg10
I9
sg11
I0
sbsS'31,1'
p2361
(iMatrix
MatrixElement
p2362
(dp2363
g9
I31
sg10
I1
sg11
I0
sbsS'31,2'
p2364
(iMatrix
MatrixElement
p2365
(dp2366
g9
I31
sg10
I2
sg11
I0
sbsS'31,3'
p2367
(iMatrix
MatrixElement
p2368
(dp2369
g9
I31
sg10
I3
sg11
I0
sbsS'31,4'
p2370
(iMatrix
MatrixElement
p2371
(dp2372
g9
I31
sg10
I4
sg11
I0
sbsS'31,5'
p2373
(iMatrix
MatrixElement
p2374
(dp2375
g9
I31
sg10
I5
sg11
I0
sbsS'31,6'
p2376
(iMatrix
MatrixElement
p2377
(dp2378
g9
I31
sg10
I6
sg11
I0
sbsS'31,7'
p2379
(iMatrix
MatrixElement
p2380
(dp2381
g9
I31
sg10
I7
sg11
I0
sbsS'21,19'
p2382
(iMatrix
MatrixElement
p2383
(dp2384
g9
I21
sg10
I19
sg11
F-1.3333249999999957
sbsS'21,18'
p2385
(iMatrix
MatrixElement
p2386
(dp2387
g9
I21
sg10
I18
sg11
I0
sbsS'21,13'
p2388
(iMatrix
MatrixElement
p2389
(dp2390
g9
I21
sg10
I13
sg11
I0
sbsS'21,12'
p2391
(iMatrix
MatrixElement
p2392
(dp2393
g9
I21
sg10
I12
sg11
I0
sbsS'21,11'
p2394
(iMatrix
MatrixElement
p2395
(dp2396
g9
I21
sg10
I11
sg11
I0
sbsS'21,10'
p2397
(iMatrix
MatrixElement
p2398
(dp2399
g9
I21
sg10
I10
sg11
I0
sbsS'21,17'
p2400
(iMatrix
MatrixElement
p2401
(dp2402
g9
I21
sg10
I17
sg11
I0
sbsS'21,16'
p2403
(iMatrix
MatrixElement
p2404
(dp2405
g9
I21
sg10
I16
sg11
I0
sbsS'21,15'
p2406
(iMatrix
MatrixElement
p2407
(dp2408
g9
I21
sg10
I15
sg11
I0
sbsS'21,14'
p2409
(iMatrix
MatrixElement
p2410
(dp2411
g9
I21
sg10
I14
sg11
I0
sbsS'25,19'
p2412
(iMatrix
MatrixElement
p2413
(dp2414
g9
I25
sg10
I19
sg11
I0
sbsS'25,18'
p2415
(iMatrix
MatrixElement
p2416
(dp2417
g9
I25
sg10
I18
sg11
I0
sbsS'25,17'
p2418
(iMatrix
MatrixElement
p2419
(dp2420
g9
I25
sg10
I17
sg11
I0
sbsS'25,16'
p2421
(iMatrix
MatrixElement
p2422
(dp2423
g9
I25
sg10
I16
sg11
I0
sbsS'25,15'
p2424
(iMatrix
MatrixElement
p2425
(dp2426
g9
I25
sg10
I15
sg11
I0
sbsS'25,14'
p2427
(iMatrix
MatrixElement
p2428
(dp2429
g9
I25
sg10
I14
sg11
I0
sbsS'25,13'
p2430
(iMatrix
MatrixElement
p2431
(dp2432
g9
I25
sg10
I13
sg11
I0
sbsS'25,12'
p2433
(iMatrix
MatrixElement
p2434
(dp2435
g9
I25
sg10
I12
sg11
I0
sbsS'25,11'
p2436
(iMatrix
MatrixElement
p2437
(dp2438
g9
I25
sg10
I11
sg11
I0
sbsS'25,10'
p2439
(iMatrix
MatrixElement
p2440
(dp2441
g9
I25
sg10
I10
sg11
I0
sbsS'17,37'
p2442
(iMatrix
MatrixElement
p2443
(dp2444
g9
I17
sg10
I37
sg11
I0
sbsS'4,3'
p2445
(iMatrix
MatrixElement
p2446
(dp2447
g9
I4
sg10
I3
sg11
I0
sbsS'4,2'
p2448
(iMatrix
MatrixElement
p2449
(dp2450
g9
I4
sg10
I2
sg11
I0
sbsS'4,1'
p2451
(iMatrix
MatrixElement
p2452
(dp2453
g9
I4
sg10
I1
sg11
I0
sbsS'41,30'
p2454
(iMatrix
MatrixElement
p2455
(dp2456
g9
I41
sg10
I30
sg11
I0
sbsS'4,7'
p2457
(iMatrix
MatrixElement
p2458
(dp2459
g9
I4
sg10
I7
sg11
I0
sbsS'4,6'
p2460
(iMatrix
MatrixElement
p2461
(dp2462
g9
I4
sg10
I6
sg11
F-1.3333249999999996
sbsS'4,5'
p2463
(iMatrix
MatrixElement
p2464
(dp2465
g9
I4
sg10
I5
sg11
I0
sbsS'4,4'
p2466
(iMatrix
MatrixElement
p2467
(dp2468
g9
I4
sg10
I4
sg11
F4.166659375585947
sbsS'4,9'
p2469
(iMatrix
MatrixElement
p2470
(dp2471
g9
I4
sg10
I9
sg11
I0
sbsS'4,8'
p2472
(iMatrix
MatrixElement
p2473
(dp2474
g9
I4
sg10
I8
sg11
I0
sbsS'39,44'
p2475
(iMatrix
MatrixElement
p2476
(dp2477
g9
I39
sg10
I44
sg11
I0
sbsS'39,41'
p2478
(iMatrix
MatrixElement
p2479
(dp2480
g9
I39
sg10
I41
sg11
I0
sbsS'39,40'
p2481
(iMatrix
MatrixElement
p2482
(dp2483
g9
I39
sg10
I40
sg11
F-1.6666750000000004
sbsS'39,43'
p2484
(iMatrix
MatrixElement
p2485
(dp2486
g9
I39
sg10
I43
sg11
F-0.49999999999999944
sbsS'39,42'
p2487
(iMatrix
MatrixElement
p2488
(dp2489
g9
I39
sg10
I42
sg11
I0
sbsS'4,17'
p2490
(iMatrix
MatrixElement
p2491
(dp2492
g9
I4
sg10
I17
sg11
I0
sbsS'4,16'
p2493
(iMatrix
MatrixElement
p2494
(dp2495
g9
I4
sg10
I16
sg11
I0
sbsS'4,15'
p2496
(iMatrix
MatrixElement
p2497
(dp2498
g9
I4
sg10
I15
sg11
I0
sbsS'4,14'
p2499
(iMatrix
MatrixElement
p2500
(dp2501
g9
I4
sg10
I14
sg11
I0
sbsS'4,13'
p2502
(iMatrix
MatrixElement
p2503
(dp2504
g9
I4
sg10
I13
sg11
I0
sbsS'4,12'
p2505
(iMatrix
MatrixElement
p2506
(dp2507
g9
I4
sg10
I12
sg11
I0
sbsS'4,11'
p2508
(iMatrix
MatrixElement
p2509
(dp2510
g9
I4
sg10
I11
sg11
I0
sbsS'4,10'
p2511
(iMatrix
MatrixElement
p2512
(dp2513
g9
I4
sg10
I10
sg11
I0
sbsS'4,19'
p2514
(iMatrix
MatrixElement
p2515
(dp2516
g9
I4
sg10
I19
sg11
I0
sbsS'4,18'
p2517
(iMatrix
MatrixElement
p2518
(dp2519
g9
I4
sg10
I18
sg11
I0
sbsS'34,42'
p2520
(iMatrix
MatrixElement
p2521
(dp2522
g9
I34
sg10
I42
sg11
I0
sbsS'34,43'
p2523
(iMatrix
MatrixElement
p2524
(dp2525
g9
I34
sg10
I43
sg11
I0
sbsS'34,40'
p2526
(iMatrix
MatrixElement
p2527
(dp2528
g9
I34
sg10
I40
sg11
I0
sbsS'34,41'
p2529
(iMatrix
MatrixElement
p2530
(dp2531
g9
I34
sg10
I41
sg11
I0
sbsS'34,44'
p2532
(iMatrix
MatrixElement
p2533
(dp2534
g9
I34
sg10
I44
sg11
I0
sbsS'40,41'
p2535
(iMatrix
MatrixElement
p2536
(dp2537
g9
I40
sg10
I41
sg11
I0
sbsS'40,40'
p2538
(iMatrix
MatrixElement
p2539
(dp2540
g9
I40
sg10
I40
sg11
F4.583340625117199
sbsS'40,43'
p2541
(iMatrix
MatrixElement
p2542
(dp2543
g9
I40
sg10
I43
sg11
I0
sbsS'40,42'
p2544
(iMatrix
MatrixElement
p2545
(dp2546
g9
I40
sg10
I42
sg11
F-0.5000000000000023
sbsS'40,44'
p2547
(iMatrix
MatrixElement
p2548
(dp2549
g9
I40
sg10
I44
sg11
I0
sbsS'42,25'
p2550
(iMatrix
MatrixElement
p2551
(dp2552
g9
I42
sg10
I25
sg11
I0
sbsS'42,24'
p2553
(iMatrix
MatrixElement
p2554
(dp2555
g9
I42
sg10
I24
sg11
I0
sbsS'42,27'
p2556
(iMatrix
MatrixElement
p2557
(dp2558
g9
I42
sg10
I27
sg11
I0
sbsS'42,26'
p2559
(iMatrix
MatrixElement
p2560
(dp2561
g9
I42
sg10
I26
sg11
I0
sbsS'42,21'
p2562
(iMatrix
MatrixElement
p2563
(dp2564
g9
I42
sg10
I21
sg11
I0
sbsS'42,20'
p2565
(iMatrix
MatrixElement
p2566
(dp2567
g9
I42
sg10
I20
sg11
I0
sbsS'42,23'
p2568
(iMatrix
MatrixElement
p2569
(dp2570
g9
I42
sg10
I23
sg11
I0
sbsS'42,22'
p2571
(iMatrix
MatrixElement
p2572
(dp2573
g9
I42
sg10
I22
sg11
I0
sbsS'42,29'
p2574
(iMatrix
MatrixElement
p2575
(dp2576
g9
I42
sg10
I29
sg11
I0
sbsS'42,28'
p2577
(iMatrix
MatrixElement
p2578
(dp2579
g9
I42
sg10
I28
sg11
I0
sbsS'36,35'
p2580
(iMatrix
MatrixElement
p2581
(dp2582
g9
I36
sg10
I35
sg11
F-1.6666750000000006
sbsS'36,34'
p2583
(iMatrix
MatrixElement
p2584
(dp2585
g9
I36
sg10
I34
sg11
I0
sbsS'36,37'
p2586
(iMatrix
MatrixElement
p2587
(dp2588
g9
I36
sg10
I37
sg11
I0
sbsS'36,36'
p2589
(iMatrix
MatrixElement
p2590
(dp2591
g9
I36
sg10
I36
sg11
F4.583340625117186
sbsS'36,31'
p2592
(iMatrix
MatrixElement
p2593
(dp2594
g9
I36
sg10
I31
sg11
I0
sbsS'36,30'
p2595
(iMatrix
MatrixElement
p2596
(dp2597
g9
I36
sg10
I30
sg11
I0
sbsS'36,33'
p2598
(iMatrix
MatrixElement
p2599
(dp2600
g9
I36
sg10
I33
sg11
I0
sbsS'36,32'
p2601
(iMatrix
MatrixElement
p2602
(dp2603
g9
I36
sg10
I32
sg11
I0
sbsS'36,39'
p2604
(iMatrix
MatrixElement
p2605
(dp2606
g9
I36
sg10
I39
sg11
I0
sbsS'36,38'
p2607
(iMatrix
MatrixElement
p2608
(dp2609
g9
I36
sg10
I38
sg11
I0
sbsS'17,23'
p2610
(iMatrix
MatrixElement
p2611
(dp2612
g9
I17
sg10
I23
sg11
I0
sbsS'17,22'
p2613
(iMatrix
MatrixElement
p2614
(dp2615
g9
I17
sg10
I22
sg11
I0
sbsS'17,21'
p2616
(iMatrix
MatrixElement
p2617
(dp2618
g9
I17
sg10
I21
sg11
I0
sbsS'17,20'
p2619
(iMatrix
MatrixElement
p2620
(dp2621
g9
I17
sg10
I20
sg11
I0
sbsS'17,27'
p2622
(iMatrix
MatrixElement
p2623
(dp2624
g9
I17
sg10
I27
sg11
I0
sbsS'17,26'
p2625
(iMatrix
MatrixElement
p2626
(dp2627
g9
I17
sg10
I26
sg11
I0
sbsS'17,25'
p2628
(iMatrix
MatrixElement
p2629
(dp2630
g9
I17
sg10
I25
sg11
I0
sbsS'17,24'
p2631
(iMatrix
MatrixElement
p2632
(dp2633
g9
I17
sg10
I24
sg11
I0
sbsS'32,44'
p2634
(iMatrix
MatrixElement
p2635
(dp2636
g9
I32
sg10
I44
sg11
I0
sbsS'17,29'
p2637
(iMatrix
MatrixElement
p2638
(dp2639
g9
I17
sg10
I29
sg11
I0
sbsS'17,28'
p2640
(iMatrix
MatrixElement
p2641
(dp2642
g9
I17
sg10
I28
sg11
I0
sbsS'32,40'
p2643
(iMatrix
MatrixElement
p2644
(dp2645
g9
I32
sg10
I40
sg11
I0
sbsS'32,41'
p2646
(iMatrix
MatrixElement
p2647
(dp2648
g9
I32
sg10
I41
sg11
I0
sbsS'32,42'
p2649
(iMatrix
MatrixElement
p2650
(dp2651
g9
I32
sg10
I42
sg11
I0
sbsS'32,43'
p2652
(iMatrix
MatrixElement
p2653
(dp2654
g9
I32
sg10
I43
sg11
F-0.7499906251171876
sbsS'6,39'
p2655
(iMatrix
MatrixElement
p2656
(dp2657
g9
I6
sg10
I39
sg11
I0
sbsS'6,38'
p2658
(iMatrix
MatrixElement
p2659
(dp2660
g9
I6
sg10
I38
sg11
I0
sbsS'6,37'
p2661
(iMatrix
MatrixElement
p2662
(dp2663
g9
I6
sg10
I37
sg11
I0
sbsS'6,36'
p2664
(iMatrix
MatrixElement
p2665
(dp2666
g9
I6
sg10
I36
sg11
I0
sbsS'6,35'
p2667
(iMatrix
MatrixElement
p2668
(dp2669
g9
I6
sg10
I35
sg11
I0
sbsS'6,34'
p2670
(iMatrix
MatrixElement
p2671
(dp2672
g9
I6
sg10
I34
sg11
I0
sbsS'6,33'
p2673
(iMatrix
MatrixElement
p2674
(dp2675
g9
I6
sg10
I33
sg11
I0
sbsS'6,32'
p2676
(iMatrix
MatrixElement
p2677
(dp2678
g9
I6
sg10
I32
sg11
I0
sbsS'6,31'
p2679
(iMatrix
MatrixElement
p2680
(dp2681
g9
I6
sg10
I31
sg11
I0
sbsS'6,30'
p2682
(iMatrix
MatrixElement
p2683
(dp2684
g9
I6
sg10
I30
sg11
I0
sbsS'37,18'
p2685
(iMatrix
MatrixElement
p2686
(dp2687
g9
I37
sg10
I18
sg11
I0
sbsS'37,19'
p2688
(iMatrix
MatrixElement
p2689
(dp2690
g9
I37
sg10
I19
sg11
I0
sbsS'37,14'
p2691
(iMatrix
MatrixElement
p2692
(dp2693
g9
I37
sg10
I14
sg11
I0
sbsS'37,15'
p2694
(iMatrix
MatrixElement
p2695
(dp2696
g9
I37
sg10
I15
sg11
I0
sbsS'37,16'
p2697
(iMatrix
MatrixElement
p2698
(dp2699
g9
I37
sg10
I16
sg11
I0
sbsS'37,17'
p2700
(iMatrix
MatrixElement
p2701
(dp2702
g9
I37
sg10
I17
sg11
I0
sbsS'37,10'
p2703
(iMatrix
MatrixElement
p2704
(dp2705
g9
I37
sg10
I10
sg11
I0
sbsS'37,11'
p2706
(iMatrix
MatrixElement
p2707
(dp2708
g9
I37
sg10
I11
sg11
I0
sbsS'37,12'
p2709
(iMatrix
MatrixElement
p2710
(dp2711
g9
I37
sg10
I12
sg11
I0
sbsS'37,13'
p2712
(iMatrix
MatrixElement
p2713
(dp2714
g9
I37
sg10
I13
sg11
F-0.7500187504687612
sbsS'37,6'
p2715
(iMatrix
MatrixElement
p2716
(dp2717
g9
I37
sg10
I6
sg11
I0
sbsS'37,7'
p2718
(iMatrix
MatrixElement
p2719
(dp2720
g9
I37
sg10
I7
sg11
I0
sbsS'37,4'
p2721
(iMatrix
MatrixElement
p2722
(dp2723
g9
I37
sg10
I4
sg11
I0
sbsS'37,5'
p2724
(iMatrix
MatrixElement
p2725
(dp2726
g9
I37
sg10
I5
sg11
I0
sbsS'37,2'
p2727
(iMatrix
MatrixElement
p2728
(dp2729
g9
I37
sg10
I2
sg11
I0
sbsS'37,3'
p2730
(iMatrix
MatrixElement
p2731
(dp2732
g9
I37
sg10
I3
sg11
I0
sbsS'37,1'
p2733
(iMatrix
MatrixElement
p2734
(dp2735
g9
I37
sg10
I1
sg11
I0
sbsS'6,42'
p2736
(iMatrix
MatrixElement
p2737
(dp2738
g9
I6
sg10
I42
sg11
I0
sbsS'37,8'
p2739
(iMatrix
MatrixElement
p2740
(dp2741
g9
I37
sg10
I8
sg11
I0
sbsS'37,9'
p2742
(iMatrix
MatrixElement
p2743
(dp2744
g9
I37
sg10
I9
sg11
I0
sbsS'6,40'
p2745
(iMatrix
MatrixElement
p2746
(dp2747
g9
I6
sg10
I40
sg11
I0
sbsS'6,41'
p2748
(iMatrix
MatrixElement
p2749
(dp2750
g9
I6
sg10
I41
sg11
I0
sbsS'2,33'
p2751
(iMatrix
MatrixElement
p2752
(dp2753
g9
I2
sg10
I33
sg11
I0
sbsS'2,32'
p2754
(iMatrix
MatrixElement
p2755
(dp2756
g9
I2
sg10
I32
sg11
I0
sbsS'2,31'
p2757
(iMatrix
MatrixElement
p2758
(dp2759
g9
I2
sg10
I31
sg11
I0
sbsS'2,30'
p2760
(iMatrix
MatrixElement
p2761
(dp2762
g9
I2
sg10
I30
sg11
I0
sbsS'2,37'
p2763
(iMatrix
MatrixElement
p2764
(dp2765
g9
I2
sg10
I37
sg11
I0
sbsS'2,36'
p2766
(iMatrix
MatrixElement
p2767
(dp2768
g9
I2
sg10
I36
sg11
I0
sbsS'2,35'
p2769
(iMatrix
MatrixElement
p2770
(dp2771
g9
I2
sg10
I35
sg11
I0
sbsS'2,34'
p2772
(iMatrix
MatrixElement
p2773
(dp2774
g9
I2
sg10
I34
sg11
I0
sbsS'2,39'
p2775
(iMatrix
MatrixElement
p2776
(dp2777
g9
I2
sg10
I39
sg11
I0
sbsS'2,38'
p2778
(iMatrix
MatrixElement
p2779
(dp2780
g9
I2
sg10
I38
sg11
I0
sbsS'3,42'
p2781
(iMatrix
MatrixElement
p2782
(dp2783
g9
I3
sg10
I42
sg11
I0
sbsS'28,44'
p2784
(iMatrix
MatrixElement
p2785
(dp2786
g9
I28
sg10
I44
sg11
I0
sbsS'28,43'
p2787
(iMatrix
MatrixElement
p2788
(dp2789
g9
I28
sg10
I43
sg11
I0
sbsS'28,42'
p2790
(iMatrix
MatrixElement
p2791
(dp2792
g9
I28
sg10
I42
sg11
I0
sbsS'28,41'
p2793
(iMatrix
MatrixElement
p2794
(dp2795
g9
I28
sg10
I41
sg11
I0
sbsS'28,40'
p2796
(iMatrix
MatrixElement
p2797
(dp2798
g9
I28
sg10
I40
sg11
I0
sbsS'23,39'
p2799
(iMatrix
MatrixElement
p2800
(dp2801
g9
I23
sg10
I39
sg11
I0
sbsS'13,27'
p2802
(iMatrix
MatrixElement
p2803
(dp2804
g9
I13
sg10
I27
sg11
I0
sbsS'3,4'
p2805
(iMatrix
MatrixElement
p2806
(dp2807
g9
I3
sg10
I4
sg11
I0
sbsS'13,25'
p2808
(iMatrix
MatrixElement
p2809
(dp2810
g9
I13
sg10
I25
sg11
I0
sbsS'13,24'
p2811
(iMatrix
MatrixElement
p2812
(dp2813
g9
I13
sg10
I24
sg11
I0
sbsS'13,23'
p2814
(iMatrix
MatrixElement
p2815
(dp2816
g9
I13
sg10
I23
sg11
I0
sbsS'13,22'
p2817
(iMatrix
MatrixElement
p2818
(dp2819
g9
I13
sg10
I22
sg11
I0
sbsS'13,21'
p2820
(iMatrix
MatrixElement
p2821
(dp2822
g9
I13
sg10
I21
sg11
I0
sbsS'11,3'
p2823
(iMatrix
MatrixElement
p2824
(dp2825
g9
I11
sg10
I3
sg11
I0
sbsS'13,29'
p2826
(iMatrix
MatrixElement
p2827
(dp2828
g9
I13
sg10
I29
sg11
I0
sbsS'13,28'
p2829
(iMatrix
MatrixElement
p2830
(dp2831
g9
I13
sg10
I28
sg11
I0
sbsS'3,7'
p2832
(iMatrix
MatrixElement
p2833
(dp2834
g9
I3
sg10
I7
sg11
I0
sbsS'11,7'
p2835
(iMatrix
MatrixElement
p2836
(dp2837
g9
I11
sg10
I7
sg11
I0
sbsS'11,4'
p2838
(iMatrix
MatrixElement
p2839
(dp2840
g9
I11
sg10
I4
sg11
I0
sbsS'11,5'
p2841
(iMatrix
MatrixElement
p2842
(dp2843
g9
I11
sg10
I5
sg11
I0
sbsS'23,31'
p2844
(iMatrix
MatrixElement
p2845
(dp2846
g9
I23
sg10
I31
sg11
I0
sbsS'23,30'
p2847
(iMatrix
MatrixElement
p2848
(dp2849
g9
I23
sg10
I30
sg11
I0
sbsS'6,44'
p2850
(iMatrix
MatrixElement
p2851
(dp2852
g9
I6
sg10
I44
sg11
I0
sbsS'21,23'
p2853
(iMatrix
MatrixElement
p2854
(dp2855
g9
I21
sg10
I23
sg11
I0
sbsS'20,44'
p2856
(iMatrix
MatrixElement
p2857
(dp2858
g9
I20
sg10
I44
sg11
I0
sbsS'20,43'
p2859
(iMatrix
MatrixElement
p2860
(dp2861
g9
I20
sg10
I43
sg11
I0
sbsS'20,42'
p2862
(iMatrix
MatrixElement
p2863
(dp2864
g9
I20
sg10
I42
sg11
I0
sbsS'20,41'
p2865
(iMatrix
MatrixElement
p2866
(dp2867
g9
I20
sg10
I41
sg11
I0
sbsS'20,40'
p2868
(iMatrix
MatrixElement
p2869
(dp2870
g9
I20
sg10
I40
sg11
I0
sbsS'41,28'
p2871
(iMatrix
MatrixElement
p2872
(dp2873
g9
I41
sg10
I28
sg11
I0
sbsS'41,29'
p2874
(iMatrix
MatrixElement
p2875
(dp2876
g9
I41
sg10
I29
sg11
I0
sbsS'44,39'
p2877
(iMatrix
MatrixElement
p2878
(dp2879
g9
I44
sg10
I39
sg11
I0
sbsS'41,24'
p2880
(iMatrix
MatrixElement
p2881
(dp2882
g9
I41
sg10
I24
sg11
I0
sbsS'41,25'
p2883
(iMatrix
MatrixElement
p2884
(dp2885
g9
I41
sg10
I25
sg11
I0
sbsS'41,26'
p2886
(iMatrix
MatrixElement
p2887
(dp2888
g9
I41
sg10
I26
sg11
I0
sbsS'41,27'
p2889
(iMatrix
MatrixElement
p2890
(dp2891
g9
I41
sg10
I27
sg11
I0
sbsS'41,20'
p2892
(iMatrix
MatrixElement
p2893
(dp2894
g9
I41
sg10
I20
sg11
I0
sbsS'41,21'
p2895
(iMatrix
MatrixElement
p2896
(dp2897
g9
I41
sg10
I21
sg11
I0
sbsS'41,22'
p2898
(iMatrix
MatrixElement
p2899
(dp2900
g9
I41
sg10
I22
sg11
I0
sbsS'41,23'
p2901
(iMatrix
MatrixElement
p2902
(dp2903
g9
I41
sg10
I23
sg11
I0
sbsS'6,43'
p2904
(iMatrix
MatrixElement
p2905
(dp2906
g9
I6
sg10
I43
sg11
I0
sbsS'13,26'
p2907
(iMatrix
MatrixElement
p2908
(dp2909
g9
I13
sg10
I26
sg11
I0
sbsS'44,35'
p2910
(iMatrix
MatrixElement
p2911
(dp2912
g9
I44
sg10
I35
sg11
F-0.5000000000000004
sbsS'13,20'
p2913
(iMatrix
MatrixElement
p2914
(dp2915
g9
I13
sg10
I20
sg11
I0
sbsS'4,22'
p2916
(iMatrix
MatrixElement
p2917
(dp2918
g9
I4
sg10
I22
sg11
I0
sbsS'4,23'
p2919
(iMatrix
MatrixElement
p2920
(dp2921
g9
I4
sg10
I23
sg11
I0
sbsS'4,20'
p2922
(iMatrix
MatrixElement
p2923
(dp2924
g9
I4
sg10
I20
sg11
I0
sbsS'4,21'
p2925
(iMatrix
MatrixElement
p2926
(dp2927
g9
I4
sg10
I21
sg11
I0
sbsS'4,26'
p2928
(iMatrix
MatrixElement
p2929
(dp2930
g9
I4
sg10
I26
sg11
I0
sbsS'4,27'
p2931
(iMatrix
MatrixElement
p2932
(dp2933
g9
I4
sg10
I27
sg11
I0
sbsS'4,24'
p2934
(iMatrix
MatrixElement
p2935
(dp2936
g9
I4
sg10
I24
sg11
F-0.7500187504687615
sbsS'4,25'
p2937
(iMatrix
MatrixElement
p2938
(dp2939
g9
I4
sg10
I25
sg11
I0
sbsS'4,28'
p2940
(iMatrix
MatrixElement
p2941
(dp2942
g9
I4
sg10
I28
sg11
I0
sbsS'4,29'
p2943
(iMatrix
MatrixElement
p2944
(dp2945
g9
I4
sg10
I29
sg11
I0
sbsS'42,36'
p2946
(iMatrix
MatrixElement
p2947
(dp2948
g9
I42
sg10
I36
sg11
I0
sbsS'42,37'
p2949
(iMatrix
MatrixElement
p2950
(dp2951
g9
I42
sg10
I37
sg11
I0
sbsS'42,34'
p2952
(iMatrix
MatrixElement
p2953
(dp2954
g9
I42
sg10
I34
sg11
I0
sbsS'42,35'
p2955
(iMatrix
MatrixElement
p2956
(dp2957
g9
I42
sg10
I35
sg11
I0
sbsS'42,32'
p2958
(iMatrix
MatrixElement
p2959
(dp2960
g9
I42
sg10
I32
sg11
I0
sbsS'42,33'
p2961
(iMatrix
MatrixElement
p2962
(dp2963
g9
I42
sg10
I33
sg11
I0
sbsS'42,30'
p2964
(iMatrix
MatrixElement
p2965
(dp2966
g9
I42
sg10
I30
sg11
I0
sbsS'42,31'
p2967
(iMatrix
MatrixElement
p2968
(dp2969
g9
I42
sg10
I31
sg11
F-0.7499906251171872
sbsS'42,38'
p2970
(iMatrix
MatrixElement
p2971
(dp2972
g9
I42
sg10
I38
sg11
I0
sbsS'42,39'
p2973
(iMatrix
MatrixElement
p2974
(dp2975
g9
I42
sg10
I39
sg11
I0
sbsS'36,26'
p2976
(iMatrix
MatrixElement
p2977
(dp2978
g9
I36
sg10
I26
sg11
I0
sbsS'36,27'
p2979
(iMatrix
MatrixElement
p2980
(dp2981
g9
I36
sg10
I27
sg11
I0
sbsS'36,24'
p2982
(iMatrix
MatrixElement
p2983
(dp2984
g9
I36
sg10
I24
sg11
I0
sbsS'36,25'
p2985
(iMatrix
MatrixElement
p2986
(dp2987
g9
I36
sg10
I25
sg11
F-0.7499906251171868
sbsS'36,22'
p2988
(iMatrix
MatrixElement
p2989
(dp2990
g9
I36
sg10
I22
sg11
I0
sbsS'36,23'
p2991
(iMatrix
MatrixElement
p2992
(dp2993
g9
I36
sg10
I23
sg11
I0
sbsS'36,20'
p2994
(iMatrix
MatrixElement
p2995
(dp2996
g9
I36
sg10
I20
sg11
I0
sbsS'36,21'
p2997
(iMatrix
MatrixElement
p2998
(dp2999
g9
I36
sg10
I21
sg11
I0
sbsS'36,28'
p3000
(iMatrix
MatrixElement
p3001
(dp3002
g9
I36
sg10
I28
sg11
I0
sbsS'36,29'
p3003
(iMatrix
MatrixElement
p3004
(dp3005
g9
I36
sg10
I29
sg11
I0
sbsS'32,39'
p3006
(iMatrix
MatrixElement
p3007
(dp3008
g9
I32
sg10
I39
sg11
I0
sbsS'32,38'
p3009
(iMatrix
MatrixElement
p3010
(dp3011
g9
I32
sg10
I38
sg11
I0
sbsS'17,38'
p3012
(iMatrix
MatrixElement
p3013
(dp3014
g9
I17
sg10
I38
sg11
I0
sbsS'17,39'
p3015
(iMatrix
MatrixElement
p3016
(dp3017
g9
I17
sg10
I39
sg11
F-0.7499906251171897
sbsS'32,31'
p3018
(iMatrix
MatrixElement
p3019
(dp3020
g9
I32
sg10
I31
sg11
F-1.3333250000000043
sbsS'32,30'
p3021
(iMatrix
MatrixElement
p3022
(dp3023
g9
I32
sg10
I30
sg11
I0
sbsS'32,33'
p3024
(iMatrix
MatrixElement
p3025
(dp3026
g9
I32
sg10
I33
sg11
I0
sbsS'33,17'
p3027
(iMatrix
MatrixElement
p3028
(dp3029
g9
I33
sg10
I17
sg11
I0
sbsS'17,30'
p3030
(iMatrix
MatrixElement
p3031
(dp3032
g9
I17
sg10
I30
sg11
I0
sbsS'17,31'
p3033
(iMatrix
MatrixElement
p3034
(dp3035
g9
I17
sg10
I31
sg11
I0
sbsS'17,32'
p3036
(iMatrix
MatrixElement
p3037
(dp3038
g9
I17
sg10
I32
sg11
I0
sbsS'17,33'
p3039
(iMatrix
MatrixElement
p3040
(dp3041
g9
I17
sg10
I33
sg11
I0
sbsS'13,44'
p3042
(iMatrix
MatrixElement
p3043
(dp3044
g9
I13
sg10
I44
sg11
I0
sbsS'24,8'
p3045
(iMatrix
MatrixElement
p3046
(dp3047
g9
I24
sg10
I8
sg11
I0
sbsS'24,9'
p3048
(iMatrix
MatrixElement
p3049
(dp3050
g9
I24
sg10
I9
sg11
I0
sbsS'24,2'
p3051
(iMatrix
MatrixElement
p3052
(dp3053
g9
I24
sg10
I2
sg11
I0
sbsS'24,3'
p3054
(iMatrix
MatrixElement
p3055
(dp3056
g9
I24
sg10
I3
sg11
I0
sbsS'24,1'
p3057
(iMatrix
MatrixElement
p3058
(dp3059
g9
I24
sg10
I1
sg11
I0
sbsS'24,6'
p3060
(iMatrix
MatrixElement
p3061
(dp3062
g9
I24
sg10
I6
sg11
I0
sbsS'24,7'
p3063
(iMatrix
MatrixElement
p3064
(dp3065
g9
I24
sg10
I7
sg11
I0
sbsS'24,4'
p3066
(iMatrix
MatrixElement
p3067
(dp3068
g9
I24
sg10
I4
sg11
F-0.7500187504687615
sbsS'24,5'
p3069
(iMatrix
MatrixElement
p3070
(dp3071
g9
I24
sg10
I5
sg11
I0
sbsS'13,30'
p3072
(iMatrix
MatrixElement
p3073
(dp3074
g9
I13
sg10
I30
sg11
I0
sbsS'13,31'
p3075
(iMatrix
MatrixElement
p3076
(dp3077
g9
I13
sg10
I31
sg11
I0
sbsS'13,32'
p3078
(iMatrix
MatrixElement
p3079
(dp3080
g9
I13
sg10
I32
sg11
I0
sbsS'13,33'
p3081
(iMatrix
MatrixElement
p3082
(dp3083
g9
I13
sg10
I33
sg11
I0
sbsS'13,34'
p3084
(iMatrix
MatrixElement
p3085
(dp3086
g9
I13
sg10
I34
sg11
I0
sbsS'13,35'
p3087
(iMatrix
MatrixElement
p3088
(dp3089
g9
I13
sg10
I35
sg11
I0
sbsS'13,36'
p3090
(iMatrix
MatrixElement
p3091
(dp3092
g9
I13
sg10
I36
sg11
I0
sbsS'13,37'
p3093
(iMatrix
MatrixElement
p3094
(dp3095
g9
I13
sg10
I37
sg11
F-0.7500187504687612
sbsS'13,38'
p3096
(iMatrix
MatrixElement
p3097
(dp3098
g9
I13
sg10
I38
sg11
I0
sbsS'13,39'
p3099
(iMatrix
MatrixElement
p3100
(dp3101
g9
I13
sg10
I39
sg11
I0
sbsS'14,40'
p3102
(iMatrix
MatrixElement
p3103
(dp3104
g9
I14
sg10
I40
sg11
I0
sbsS'14,41'
p3105
(iMatrix
MatrixElement
p3106
(dp3107
g9
I14
sg10
I41
sg11
I0
sbsS'14,42'
p3108
(iMatrix
MatrixElement
p3109
(dp3110
g9
I14
sg10
I42
sg11
I0
sbsS'14,43'
p3111
(iMatrix
MatrixElement
p3112
(dp3113
g9
I14
sg10
I43
sg11
I0
sbsS'14,44'
p3114
(iMatrix
MatrixElement
p3115
(dp3116
g9
I14
sg10
I44
sg11
I0
sbsS'16,40'
p3117
(iMatrix
MatrixElement
p3118
(dp3119
g9
I16
sg10
I40
sg11
I0
sbsS'16,41'
p3120
(iMatrix
MatrixElement
p3121
(dp3122
g9
I16
sg10
I41
sg11
I0
sbsS'5,43'
p3123
(iMatrix
MatrixElement
p3124
(dp3125
g9
I5
sg10
I43
sg11
I0
sbsS'5,42'
p3126
(iMatrix
MatrixElement
p3127
(dp3128
g9
I5
sg10
I42
sg11
I0
sbsS'5,41'
p3129
(iMatrix
MatrixElement
p3130
(dp3131
g9
I5
sg10
I41
sg11
I0
sbsS'5,40'
p3132
(iMatrix
MatrixElement
p3133
(dp3134
g9
I5
sg10
I40
sg11
I0
sbsS'28,6'
p3135
(iMatrix
MatrixElement
p3136
(dp3137
g9
I28
sg10
I6
sg11
I0
sbsS'28,7'
p3138
(iMatrix
MatrixElement
p3139
(dp3140
g9
I28
sg10
I7
sg11
I0
sbsS'28,4'
p3141
(iMatrix
MatrixElement
p3142
(dp3143
g9
I28
sg10
I4
sg11
I0
sbsS'28,5'
p3144
(iMatrix
MatrixElement
p3145
(dp3146
g9
I28
sg10
I5
sg11
I0
sbsS'28,2'
p3147
(iMatrix
MatrixElement
p3148
(dp3149
g9
I28
sg10
I2
sg11
I0
sbsS'28,3'
p3150
(iMatrix
MatrixElement
p3151
(dp3152
g9
I28
sg10
I3
sg11
I0
sbsS'28,1'
p3153
(iMatrix
MatrixElement
p3154
(dp3155
g9
I28
sg10
I1
sg11
I0
sbsS'5,44'
p3156
(iMatrix
MatrixElement
p3157
(dp3158
g9
I5
sg10
I44
sg11
I0
sbsS'28,8'
p3159
(iMatrix
MatrixElement
p3160
(dp3161
g9
I28
sg10
I8
sg11
I0
sbsS'28,9'
p3162
(iMatrix
MatrixElement
p3163
(dp3164
g9
I28
sg10
I9
sg11
I0
sbsS'4,39'
p3165
(iMatrix
MatrixElement
p3166
(dp3167
g9
I4
sg10
I39
sg11
I0
sbsS'4,38'
p3168
(iMatrix
MatrixElement
p3169
(dp3170
g9
I4
sg10
I38
sg11
I0
sbsS'4,35'
p3171
(iMatrix
MatrixElement
p3172
(dp3173
g9
I4
sg10
I35
sg11
I0
sbsS'4,34'
p3174
(iMatrix
MatrixElement
p3175
(dp3176
g9
I4
sg10
I34
sg11
I0
sbsS'4,37'
p3177
(iMatrix
MatrixElement
p3178
(dp3179
g9
I4
sg10
I37
sg11
I0
sbsS'4,36'
p3180
(iMatrix
MatrixElement
p3181
(dp3182
g9
I4
sg10
I36
sg11
I0
sbsS'4,31'
p3183
(iMatrix
MatrixElement
p3184
(dp3185
g9
I4
sg10
I31
sg11
I0
sbsS'4,30'
p3186
(iMatrix
MatrixElement
p3187
(dp3188
g9
I4
sg10
I30
sg11
I0
sbsS'4,33'
p3189
(iMatrix
MatrixElement
p3190
(dp3191
g9
I4
sg10
I33
sg11
I0
sbsS'4,32'
p3192
(iMatrix
MatrixElement
p3193
(dp3194
g9
I4
sg10
I32
sg11
I0
sbsS'22,16'
p3195
(iMatrix
MatrixElement
p3196
(dp3197
g9
I22
sg10
I16
sg11
I0
sbsS'22,17'
p3198
(iMatrix
MatrixElement
p3199
(dp3200
g9
I22
sg10
I17
sg11
I0
sbsS'22,14'
p3201
(iMatrix
MatrixElement
p3202
(dp3203
g9
I22
sg10
I14
sg11
I0
sbsS'22,15'
p3204
(iMatrix
MatrixElement
p3205
(dp3206
g9
I22
sg10
I15
sg11
I0
sbsS'22,12'
p3207
(iMatrix
MatrixElement
p3208
(dp3209
g9
I22
sg10
I12
sg11
I0
sbsS'22,13'
p3210
(iMatrix
MatrixElement
p3211
(dp3212
g9
I22
sg10
I13
sg11
I0
sbsS'22,10'
p3213
(iMatrix
MatrixElement
p3214
(dp3215
g9
I22
sg10
I10
sg11
I0
sbsS'22,11'
p3216
(iMatrix
MatrixElement
p3217
(dp3218
g9
I22
sg10
I11
sg11
I0
sbsS'22,18'
p3219
(iMatrix
MatrixElement
p3220
(dp3221
g9
I22
sg10
I18
sg11
I0
sbsS'22,19'
p3222
(iMatrix
MatrixElement
p3223
(dp3224
g9
I22
sg10
I19
sg11
I0
sbsS'36,13'
p3225
(iMatrix
MatrixElement
p3226
(dp3227
g9
I36
sg10
I13
sg11
I0
sbsS'36,12'
p3228
(iMatrix
MatrixElement
p3229
(dp3230
g9
I36
sg10
I12
sg11
I0
sbsS'36,11'
p3231
(iMatrix
MatrixElement
p3232
(dp3233
g9
I36
sg10
I11
sg11
I0
sbsS'36,10'
p3234
(iMatrix
MatrixElement
p3235
(dp3236
g9
I36
sg10
I10
sg11
I0
sbsS'36,17'
p3237
(iMatrix
MatrixElement
p3238
(dp3239
g9
I36
sg10
I17
sg11
I0
sbsS'36,16'
p3240
(iMatrix
MatrixElement
p3241
(dp3242
g9
I36
sg10
I16
sg11
I0
sbsS'36,15'
p3243
(iMatrix
MatrixElement
p3244
(dp3245
g9
I36
sg10
I15
sg11
I0
sbsS'36,14'
p3246
(iMatrix
MatrixElement
p3247
(dp3248
g9
I36
sg10
I14
sg11
I0
sbsS'26,12'
p3249
(iMatrix
MatrixElement
p3250
(dp3251
g9
I26
sg10
I12
sg11
I0
sbsS'26,13'
p3252
(iMatrix
MatrixElement
p3253
(dp3254
g9
I26
sg10
I13
sg11
I0
sbsS'26,10'
p3255
(iMatrix
MatrixElement
p3256
(dp3257
g9
I26
sg10
I10
sg11
I0
sbsS'26,11'
p3258
(iMatrix
MatrixElement
p3259
(dp3260
g9
I26
sg10
I11
sg11
I0
sbsS'26,16'
p3261
(iMatrix
MatrixElement
p3262
(dp3263
g9
I26
sg10
I16
sg11
I0
sbsS'26,17'
p3264
(iMatrix
MatrixElement
p3265
(dp3266
g9
I26
sg10
I17
sg11
I0
sbsS'26,14'
p3267
(iMatrix
MatrixElement
p3268
(dp3269
g9
I26
sg10
I14
sg11
I0
sbsS'26,15'
p3270
(iMatrix
MatrixElement
p3271
(dp3272
g9
I26
sg10
I15
sg11
I0
sbsS'6,15'
p3273
(iMatrix
MatrixElement
p3274
(dp3275
g9
I6
sg10
I15
sg11
I0
sbsS'6,14'
p3276
(iMatrix
MatrixElement
p3277
(dp3278
g9
I6
sg10
I14
sg11
I0
sbsS'6,17'
p3279
(iMatrix
MatrixElement
p3280
(dp3281
g9
I6
sg10
I17
sg11
I0
sbsS'6,16'
p3282
(iMatrix
MatrixElement
p3283
(dp3284
g9
I6
sg10
I16
sg11
I0
sbsS'6,11'
p3285
(iMatrix
MatrixElement
p3286
(dp3287
g9
I6
sg10
I11
sg11
I0
sbsS'6,10'
p3288
(iMatrix
MatrixElement
p3289
(dp3290
g9
I6
sg10
I10
sg11
I0
sbsS'6,13'
p3291
(iMatrix
MatrixElement
p3292
(dp3293
g9
I6
sg10
I13
sg11
I0
sbsS'6,12'
p3294
(iMatrix
MatrixElement
p3295
(dp3296
g9
I6
sg10
I12
sg11
I0
sbsS'32,22'
p3297
(iMatrix
MatrixElement
p3298
(dp3299
g9
I32
sg10
I22
sg11
I0
sbsS'32,23'
p3300
(iMatrix
MatrixElement
p3301
(dp3302
g9
I32
sg10
I23
sg11
I0
sbsS'32,20'
p3303
(iMatrix
MatrixElement
p3304
(dp3305
g9
I32
sg10
I20
sg11
F-0.7500187504687632
sbsS'32,21'
p3306
(iMatrix
MatrixElement
p3307
(dp3308
g9
I32
sg10
I21
sg11
I0
sbsS'6,19'
p3309
(iMatrix
MatrixElement
p3310
(dp3311
g9
I6
sg10
I19
sg11
I0
sbsS'6,18'
p3312
(iMatrix
MatrixElement
p3313
(dp3314
g9
I6
sg10
I18
sg11
I0
sbsS'32,24'
p3315
(iMatrix
MatrixElement
p3316
(dp3317
g9
I32
sg10
I24
sg11
I0
sbsS'32,25'
p3318
(iMatrix
MatrixElement
p3319
(dp3320
g9
I32
sg10
I25
sg11
I0
sbsS'16,4'
p3321
(iMatrix
MatrixElement
p3322
(dp3323
g9
I16
sg10
I4
sg11
I0
sbsS'2,19'
p3324
(iMatrix
MatrixElement
p3325
(dp3326
g9
I2
sg10
I19
sg11
F-0.7500187504687605
sbsS'2,18'
p3327
(iMatrix
MatrixElement
p3328
(dp3329
g9
I2
sg10
I18
sg11
I0
sbsS'2,11'
p3330
(iMatrix
MatrixElement
p3331
(dp3332
g9
I2
sg10
I11
sg11
I0
sbsS'2,10'
p3333
(iMatrix
MatrixElement
p3334
(dp3335
g9
I2
sg10
I10
sg11
I0
sbsS'2,13'
p3336
(iMatrix
MatrixElement
p3337
(dp3338
g9
I2
sg10
I13
sg11
I0
sbsS'2,12'
p3339
(iMatrix
MatrixElement
p3340
(dp3341
g9
I2
sg10
I12
sg11
I0
sbsS'2,15'
p3342
(iMatrix
MatrixElement
p3343
(dp3344
g9
I2
sg10
I15
sg11
I0
sbsS'2,14'
p3345
(iMatrix
MatrixElement
p3346
(dp3347
g9
I2
sg10
I14
sg11
I0
sbsS'2,17'
p3348
(iMatrix
MatrixElement
p3349
(dp3350
g9
I2
sg10
I17
sg11
I0
sbsS'2,16'
p3351
(iMatrix
MatrixElement
p3352
(dp3353
g9
I2
sg10
I16
sg11
I0
sbsS'30,38'
p3354
(iMatrix
MatrixElement
p3355
(dp3356
g9
I30
sg10
I38
sg11
I0
sbsS'9,39'
p3357
(iMatrix
MatrixElement
p3358
(dp3359
g9
I9
sg10
I39
sg11
I0
sbsS'16,3'
p3360
(iMatrix
MatrixElement
p3361
(dp3362
g9
I16
sg10
I3
sg11
I0
sbsS'31,44'
p3363
(iMatrix
MatrixElement
p3364
(dp3365
g9
I31
sg10
I44
sg11
I0
sbsS'31,41'
p3366
(iMatrix
MatrixElement
p3367
(dp3368
g9
I31
sg10
I41
sg11
I0
sbsS'31,40'
p3369
(iMatrix
MatrixElement
p3370
(dp3371
g9
I31
sg10
I40
sg11
I0
sbsS'31,43'
p3372
(iMatrix
MatrixElement
p3373
(dp3374
g9
I31
sg10
I43
sg11
I0
sbsS'31,42'
p3375
(iMatrix
MatrixElement
p3376
(dp3377
g9
I31
sg10
I42
sg11
F-0.7499906251171872
sbsS'41,42'
p3378
(iMatrix
MatrixElement
p3379
(dp3380
g9
I41
sg10
I42
sg11
I0
sbsS'41,43'
p3381
(iMatrix
MatrixElement
p3382
(dp3383
g9
I41
sg10
I43
sg11
I0
sbsS'41,40'
p3384
(iMatrix
MatrixElement
p3385
(dp3386
g9
I41
sg10
I40
sg11
I0
sbsS'41,41'
p3387
(iMatrix
MatrixElement
p3388
(dp3389
g9
I41
sg10
I41
sg11
F4.583340625117182
sbsS'41,44'
p3390
(iMatrix
MatrixElement
p3391
(dp3392
g9
I41
sg10
I44
sg11
F-1.6666749999999984
sbsS'16,19'
p3393
(iMatrix
MatrixElement
p3394
(dp3395
g9
I16
sg10
I19
sg11
I0
sbsS'16,18'
p3396
(iMatrix
MatrixElement
p3397
(dp3398
g9
I16
sg10
I18
sg11
F-1.3333249999999972
sbsS'16,15'
p3399
(iMatrix
MatrixElement
p3400
(dp3401
g9
I16
sg10
I15
sg11
I0
sbsS'16,14'
p3402
(iMatrix
MatrixElement
p3403
(dp3404
g9
I16
sg10
I14
sg11
F-1.3333249999999985
sbsS'16,17'
p3405
(iMatrix
MatrixElement
p3406
(dp3407
g9
I16
sg10
I17
sg11
I0
sbsS'16,16'
p3408
(iMatrix
MatrixElement
p3409
(dp3410
g9
I16
sg10
I16
sg11
F4.166659375585942
sbsS'16,11'
p3411
(iMatrix
MatrixElement
p3412
(dp3413
g9
I16
sg10
I11
sg11
I0
sbsS'16,10'
p3414
(iMatrix
MatrixElement
p3415
(dp3416
g9
I16
sg10
I10
sg11
I0
sbsS'16,13'
p3417
(iMatrix
MatrixElement
p3418
(dp3419
g9
I16
sg10
I13
sg11
I0
sbsS'16,12'
p3420
(iMatrix
MatrixElement
p3421
(dp3422
g9
I16
sg10
I12
sg11
I0
sbsS'11,8'
p3423
(iMatrix
MatrixElement
p3424
(dp3425
g9
I11
sg10
I8
sg11
I0
sbsS'11,9'
p3426
(iMatrix
MatrixElement
p3427
(dp3428
g9
I11
sg10
I9
sg11
F-1.3333250000000056
sbsS'3,8'
p3429
(iMatrix
MatrixElement
p3430
(dp3431
g9
I3
sg10
I8
sg11
I0
sbsS'3,9'
p3432
(iMatrix
MatrixElement
p3433
(dp3434
g9
I3
sg10
I9
sg11
I0
sbsS'11,2'
p3435
(iMatrix
MatrixElement
p3436
(dp3437
g9
I11
sg10
I2
sg11
I0
sbsS'3,5'
p3438
(iMatrix
MatrixElement
p3439
(dp3440
g9
I3
sg10
I5
sg11
F-1.3333250000000119
sbsS'3,6'
p3441
(iMatrix
MatrixElement
p3442
(dp3443
g9
I3
sg10
I6
sg11
I0
sbsS'11,1'
p3444
(iMatrix
MatrixElement
p3445
(dp3446
g9
I11
sg10
I1
sg11
I0
sbsS'11,6'
p3447
(iMatrix
MatrixElement
p3448
(dp3449
g9
I11
sg10
I6
sg11
I0
sbsS'3,1'
p3450
(iMatrix
MatrixElement
p3451
(dp3452
g9
I3
sg10
I1
sg11
I0
sbsS'3,2'
p3453
(iMatrix
MatrixElement
p3454
(dp3455
g9
I3
sg10
I2
sg11
F-1.3333249999999968
sbsS'3,3'
p3456
(iMatrix
MatrixElement
p3457
(dp3458
g9
I3
sg10
I3
sg11
F4.16665937558596
sbsS'43,35'
p3459
(iMatrix
MatrixElement
p3460
(dp3461
g9
I43
sg10
I35
sg11
I0
sbsS'43,34'
p3462
(iMatrix
MatrixElement
p3463
(dp3464
g9
I43
sg10
I34
sg11
I0
sbsS'43,37'
p3465
(iMatrix
MatrixElement
p3466
(dp3467
g9
I43
sg10
I37
sg11
I0
sbsS'43,36'
p3468
(iMatrix
MatrixElement
p3469
(dp3470
g9
I43
sg10
I36
sg11
I0
sbsS'43,31'
p3471
(iMatrix
MatrixElement
p3472
(dp3473
g9
I43
sg10
I31
sg11
I0
sbsS'43,30'
p3474
(iMatrix
MatrixElement
p3475
(dp3476
g9
I43
sg10
I30
sg11
I0
sbsS'43,33'
p3477
(iMatrix
MatrixElement
p3478
(dp3479
g9
I43
sg10
I33
sg11
I0
sbsS'43,32'
p3480
(iMatrix
MatrixElement
p3481
(dp3482
g9
I43
sg10
I32
sg11
F-0.7499906251171876
sbsS'43,39'
p3483
(iMatrix
MatrixElement
p3484
(dp3485
g9
I43
sg10
I39
sg11
F-0.49999999999999944
sbsS'43,38'
p3486
(iMatrix
MatrixElement
p3487
(dp3488
g9
I43
sg10
I38
sg11
I0
sbsS'4,40'
p3489
(iMatrix
MatrixElement
p3490
(dp3491
g9
I4
sg10
I40
sg11
I0
sbsS'4,41'
p3492
(iMatrix
MatrixElement
p3493
(dp3494
g9
I4
sg10
I41
sg11
I0
sbsS'4,42'
p3495
(iMatrix
MatrixElement
p3496
(dp3497
g9
I4
sg10
I42
sg11
I0
sbsS'4,43'
p3498
(iMatrix
MatrixElement
p3499
(dp3500
g9
I4
sg10
I43
sg11
I0
sbsS'4,44'
p3501
(iMatrix
MatrixElement
p3502
(dp3503
g9
I4
sg10
I44
sg11
I0
sbsS'22,23'
p3504
(iMatrix
MatrixElement
p3505
(dp3506
g9
I22
sg10
I23
sg11
F-1.3333249999999972
sbsS'22,22'
p3507
(iMatrix
MatrixElement
p3508
(dp3509
g9
I22
sg10
I22
sg11
F4.166659375585944
sbsS'22,21'
p3510
(iMatrix
MatrixElement
p3511
(dp3512
g9
I22
sg10
I21
sg11
F-1.3333249999999979
sbsS'22,20'
p3513
(iMatrix
MatrixElement
p3514
(dp3515
g9
I22
sg10
I20
sg11
I0
sbsS'22,27'
p3516
(iMatrix
MatrixElement
p3517
(dp3518
g9
I22
sg10
I27
sg11
I0
sbsS'22,26'
p3519
(iMatrix
MatrixElement
p3520
(dp3521
g9
I22
sg10
I26
sg11
I0
sbsS'22,25'
p3522
(iMatrix
MatrixElement
p3523
(dp3524
g9
I22
sg10
I25
sg11
I0
sbsS'22,24'
p3525
(iMatrix
MatrixElement
p3526
(dp3527
g9
I22
sg10
I24
sg11
I0
sbsS'22,29'
p3528
(iMatrix
MatrixElement
p3529
(dp3530
g9
I22
sg10
I29
sg11
I0
sbsS'22,28'
p3531
(iMatrix
MatrixElement
p3532
(dp3533
g9
I22
sg10
I28
sg11
I0
sbsS'10,6'
p3534
(iMatrix
MatrixElement
p3535
(dp3536
g9
I10
sg10
I6
sg11
I0
sbsS'27,44'
p3537
(iMatrix
MatrixElement
p3538
(dp3539
g9
I27
sg10
I44
sg11
I0
sbsS'27,42'
p3540
(iMatrix
MatrixElement
p3541
(dp3542
g9
I27
sg10
I42
sg11
I0
sbsS'27,43'
p3543
(iMatrix
MatrixElement
p3544
(dp3545
g9
I27
sg10
I43
sg11
I0
sbsS'27,40'
p3546
(iMatrix
MatrixElement
p3547
(dp3548
g9
I27
sg10
I40
sg11
I0
sbsS'27,41'
p3549
(iMatrix
MatrixElement
p3550
(dp3551
g9
I27
sg10
I41
sg11
I0
sbsS'19,43'
p3552
(iMatrix
MatrixElement
p3553
(dp3554
g9
I19
sg10
I43
sg11
I0
sbsS'19,42'
p3555
(iMatrix
MatrixElement
p3556
(dp3557
g9
I19
sg10
I42
sg11
I0
sbsS'19,41'
p3558
(iMatrix
MatrixElement
p3559
(dp3560
g9
I19
sg10
I41
sg11
I0
sbsS'19,40'
p3561
(iMatrix
MatrixElement
p3562
(dp3563
g9
I19
sg10
I40
sg11
F-0.7499906251171857
sbsS'42,18'
p3564
(iMatrix
MatrixElement
p3565
(dp3566
g9
I42
sg10
I18
sg11
I0
sbsS'42,19'
p3567
(iMatrix
MatrixElement
p3568
(dp3569
g9
I42
sg10
I19
sg11
I0
sbsS'19,44'
p3570
(iMatrix
MatrixElement
p3571
(dp3572
g9
I19
sg10
I44
sg11
I0
sbsS'42,14'
p3573
(iMatrix
MatrixElement
p3574
(dp3575
g9
I42
sg10
I14
sg11
I0
sbsS'42,15'
p3576
(iMatrix
MatrixElement
p3577
(dp3578
g9
I42
sg10
I15
sg11
I0
sbsS'42,16'
p3579
(iMatrix
MatrixElement
p3580
(dp3581
g9
I42
sg10
I16
sg11
I0
sbsS'42,17'
p3582
(iMatrix
MatrixElement
p3583
(dp3584
g9
I42
sg10
I17
sg11
I0
sbsS'42,10'
p3585
(iMatrix
MatrixElement
p3586
(dp3587
g9
I42
sg10
I10
sg11
I0
sbsS'42,11'
p3588
(iMatrix
MatrixElement
p3589
(dp3590
g9
I42
sg10
I11
sg11
I0
sbsS'42,12'
p3591
(iMatrix
MatrixElement
p3592
(dp3593
g9
I42
sg10
I12
sg11
I0
sbsS'42,13'
p3594
(iMatrix
MatrixElement
p3595
(dp3596
g9
I42
sg10
I13
sg11
I0
sbsS'32,17'
p3597
(iMatrix
MatrixElement
p3598
(dp3599
g9
I32
sg10
I17
sg11
I0
sbsS'32,16'
p3600
(iMatrix
MatrixElement
p3601
(dp3602
g9
I32
sg10
I16
sg11
I0
sbsS'32,15'
p3603
(iMatrix
MatrixElement
p3604
(dp3605
g9
I32
sg10
I15
sg11
I0
sbsS'32,14'
p3606
(iMatrix
MatrixElement
p3607
(dp3608
g9
I32
sg10
I14
sg11
I0
sbsS'32,13'
p3609
(iMatrix
MatrixElement
p3610
(dp3611
g9
I32
sg10
I13
sg11
I0
sbsS'32,12'
p3612
(iMatrix
MatrixElement
p3613
(dp3614
g9
I32
sg10
I12
sg11
I0
sbsS'32,11'
p3615
(iMatrix
MatrixElement
p3616
(dp3617
g9
I32
sg10
I11
sg11
I0
sbsS'32,10'
p3618
(iMatrix
MatrixElement
p3619
(dp3620
g9
I32
sg10
I10
sg11
I0
sbsS'32,19'
p3621
(iMatrix
MatrixElement
p3622
(dp3623
g9
I32
sg10
I19
sg11
I0
sbsS'32,18'
p3624
(iMatrix
MatrixElement
p3625
(dp3626
g9
I32
sg10
I18
sg11
I0
sbsS'12,11'
p3627
(iMatrix
MatrixElement
p3628
(dp3629
g9
I12
sg10
I11
sg11
I0
sbsS'12,10'
p3630
(iMatrix
MatrixElement
p3631
(dp3632
g9
I12
sg10
I10
sg11
F-1.3333249999999994
sbsS'12,13'
p3633
(iMatrix
MatrixElement
p3634
(dp3635
g9
I12
sg10
I13
sg11
I0
sbsS'12,12'
p3636
(iMatrix
MatrixElement
p3637
(dp3638
g9
I12
sg10
I12
sg11
F4.166659375585948
sbsS'12,15'
p3639
(iMatrix
MatrixElement
p3640
(dp3641
g9
I12
sg10
I15
sg11
I0
sbsS'12,14'
p3642
(iMatrix
MatrixElement
p3643
(dp3644
g9
I12
sg10
I14
sg11
F-1.3333250000000003
sbsS'12,17'
p3645
(iMatrix
MatrixElement
p3646
(dp3647
g9
I12
sg10
I17
sg11
I0
sbsS'12,16'
p3648
(iMatrix
MatrixElement
p3649
(dp3650
g9
I12
sg10
I16
sg11
I0
sbsS'12,19'
p3651
(iMatrix
MatrixElement
p3652
(dp3653
g9
I12
sg10
I19
sg11
I0
sbsS'12,18'
p3654
(iMatrix
MatrixElement
p3655
(dp3656
g9
I12
sg10
I18
sg11
I0
sbsS'37,44'
p3657
(iMatrix
MatrixElement
p3658
(dp3659
g9
I37
sg10
I44
sg11
I0
sbsS'37,43'
p3660
(iMatrix
MatrixElement
p3661
(dp3662
g9
I37
sg10
I43
sg11
I0
sbsS'37,42'
p3663
(iMatrix
MatrixElement
p3664
(dp3665
g9
I37
sg10
I42
sg11
I0
sbsS'37,41'
p3666
(iMatrix
MatrixElement
p3667
(dp3668
g9
I37
sg10
I41
sg11
F-0.749990625117186
sbsS'37,40'
p3669
(iMatrix
MatrixElement
p3670
(dp3671
g9
I37
sg10
I40
sg11
I0
sbsS'26,27'
p3672
(iMatrix
MatrixElement
p3673
(dp3674
g9
I26
sg10
I27
sg11
F-1.333324999999999
sbsS'26,26'
p3675
(iMatrix
MatrixElement
p3676
(dp3677
g9
I26
sg10
I26
sg11
F4.166659375585949
sbsS'26,25'
p3678
(iMatrix
MatrixElement
p3679
(dp3680
g9
I26
sg10
I25
sg11
F-1.333325000000002
sbsS'26,24'
p3681
(iMatrix
MatrixElement
p3682
(dp3683
g9
I26
sg10
I24
sg11
I0
sbsS'26,23'
p3684
(iMatrix
MatrixElement
p3685
(dp3686
g9
I26
sg10
I23
sg11
I0
sbsS'26,22'
p3687
(iMatrix
MatrixElement
p3688
(dp3689
g9
I26
sg10
I22
sg11
I0
sbsS'26,21'
p3690
(iMatrix
MatrixElement
p3691
(dp3692
g9
I26
sg10
I21
sg11
I0
sbsS'26,20'
p3693
(iMatrix
MatrixElement
p3694
(dp3695
g9
I26
sg10
I20
sg11
I0
sbsS'26,29'
p3696
(iMatrix
MatrixElement
p3697
(dp3698
g9
I26
sg10
I29
sg11
I0
sbsS'26,28'
p3699
(iMatrix
MatrixElement
p3700
(dp3701
g9
I26
sg10
I28
sg11
I0
sbsS'8,13'
p3702
(iMatrix
MatrixElement
p3703
(dp3704
g9
I8
sg10
I13
sg11
I0
sbsS'8,12'
p3705
(iMatrix
MatrixElement
p3706
(dp3707
g9
I8
sg10
I12
sg11
I0
sbsS'8,11'
p3708
(iMatrix
MatrixElement
p3709
(dp3710
g9
I8
sg10
I11
sg11
I0
sbsS'8,10'
p3711
(iMatrix
MatrixElement
p3712
(dp3713
g9
I8
sg10
I10
sg11
F-1.3333249999999985
sbsS'8,17'
p3714
(iMatrix
MatrixElement
p3715
(dp3716
g9
I8
sg10
I17
sg11
I0
sbsS'8,16'
p3717
(iMatrix
MatrixElement
p3718
(dp3719
g9
I8
sg10
I16
sg11
I0
sbsS'8,15'
p3720
(iMatrix
MatrixElement
p3721
(dp3722
g9
I8
sg10
I15
sg11
I0
sbsS'8,14'
p3723
(iMatrix
MatrixElement
p3724
(dp3725
g9
I8
sg10
I14
sg11
I0
sbsS'8,19'
p3726
(iMatrix
MatrixElement
p3727
(dp3728
g9
I8
sg10
I19
sg11
I0
sbsS'8,18'
p3729
(iMatrix
MatrixElement
p3730
(dp3731
g9
I8
sg10
I18
sg11
I0
sbsS'33,2'
p3732
(iMatrix
MatrixElement
p3733
(dp3734
g9
I33
sg10
I2
sg11
I0
sbsS'33,3'
p3735
(iMatrix
MatrixElement
p3736
(dp3737
g9
I33
sg10
I3
sg11
I0
sbsS'33,1'
p3738
(iMatrix
MatrixElement
p3739
(dp3740
g9
I33
sg10
I1
sg11
I0
sbsS'33,6'
p3741
(iMatrix
MatrixElement
p3742
(dp3743
g9
I33
sg10
I6
sg11
I0
sbsS'33,7'
p3744
(iMatrix
MatrixElement
p3745
(dp3746
g9
I33
sg10
I7
sg11
I0
sbsS'33,4'
p3747
(iMatrix
MatrixElement
p3748
(dp3749
g9
I33
sg10
I4
sg11
I0
sbsS'33,5'
p3750
(iMatrix
MatrixElement
p3751
(dp3752
g9
I33
sg10
I5
sg11
I0
sbsS'33,8'
p3753
(iMatrix
MatrixElement
p3754
(dp3755
g9
I33
sg10
I8
sg11
I0
sbsS'33,9'
p3756
(iMatrix
MatrixElement
p3757
(dp3758
g9
I33
sg10
I9
sg11
F-0.7500187504687638
sbsS'35,34'
p3759
(iMatrix
MatrixElement
p3760
(dp3761
g9
I35
sg10
I34
sg11
I0
sbsS'35,35'
p3762
(iMatrix
MatrixElement
p3763
(dp3764
g9
I35
sg10
I35
sg11
F4.583340625117188
sbsS'35,38'
p3765
(iMatrix
MatrixElement
p3766
(dp3767
g9
I35
sg10
I38
sg11
I0
sbsS'35,39'
p3768
(iMatrix
MatrixElement
p3769
(dp3770
g9
I35
sg10
I39
sg11
I0
sbsS'38,44'
p3771
(iMatrix
MatrixElement
p3772
(dp3773
g9
I38
sg10
I44
sg11
F-0.749990625117185
sbsS'38,42'
p3774
(iMatrix
MatrixElement
p3775
(dp3776
g9
I38
sg10
I42
sg11
I0
sbsS'1,44'
p3777
(iMatrix
MatrixElement
p3778
(dp3779
g9
I1
sg10
I44
sg11
I0
sbsS'1,43'
p3780
(iMatrix
MatrixElement
p3781
(dp3782
g9
I1
sg10
I43
sg11
I0
sbsS'1,42'
p3783
(iMatrix
MatrixElement
p3784
(dp3785
g9
I1
sg10
I42
sg11
I0
sbsS'1,41'
p3786
(iMatrix
MatrixElement
p3787
(dp3788
g9
I1
sg10
I41
sg11
I0
sbsS'1,40'
p3789
(iMatrix
MatrixElement
p3790
(dp3791
g9
I1
sg10
I40
sg11
I0
sbsS'38,40'
p3792
(iMatrix
MatrixElement
p3793
(dp3794
g9
I38
sg10
I40
sg11
I0
sbsS'43,26'
p3795
(iMatrix
MatrixElement
p3796
(dp3797
g9
I43
sg10
I26
sg11
I0
sbsS'43,27'
p3798
(iMatrix
MatrixElement
p3799
(dp3800
g9
I43
sg10
I27
sg11
I0
sbsS'43,24'
p3801
(iMatrix
MatrixElement
p3802
(dp3803
g9
I43
sg10
I24
sg11
I0
sbsS'43,25'
p3804
(iMatrix
MatrixElement
p3805
(dp3806
g9
I43
sg10
I25
sg11
I0
sbsS'43,22'
p3807
(iMatrix
MatrixElement
p3808
(dp3809
g9
I43
sg10
I22
sg11
I0
sbsS'43,23'
p3810
(iMatrix
MatrixElement
p3811
(dp3812
g9
I43
sg10
I23
sg11
I0
sbsS'43,20'
p3813
(iMatrix
MatrixElement
p3814
(dp3815
g9
I43
sg10
I20
sg11
I0
sbsS'43,21'
p3816
(iMatrix
MatrixElement
p3817
(dp3818
g9
I43
sg10
I21
sg11
I0
sbsS'43,28'
p3819
(iMatrix
MatrixElement
p3820
(dp3821
g9
I43
sg10
I28
sg11
I0
sbsS'43,29'
p3822
(iMatrix
MatrixElement
p3823
(dp3824
g9
I43
sg10
I29
sg11
I0
sbsS'7,38'
p3825
(iMatrix
MatrixElement
p3826
(dp3827
g9
I7
sg10
I38
sg11
I0
sbsS'7,39'
p3828
(iMatrix
MatrixElement
p3829
(dp3830
g9
I7
sg10
I39
sg11
I0
sbsS'22,38'
p3831
(iMatrix
MatrixElement
p3832
(dp3833
g9
I22
sg10
I38
sg11
I0
sbsS'22,39'
p3834
(iMatrix
MatrixElement
p3835
(dp3836
g9
I22
sg10
I39
sg11
I0
sbsS'22,34'
p3837
(iMatrix
MatrixElement
p3838
(dp3839
g9
I22
sg10
I34
sg11
I0
sbsS'22,35'
p3840
(iMatrix
MatrixElement
p3841
(dp3842
g9
I22
sg10
I35
sg11
I0
sbsS'22,36'
p3843
(iMatrix
MatrixElement
p3844
(dp3845
g9
I22
sg10
I36
sg11
I0
sbsS'22,37'
p3846
(iMatrix
MatrixElement
p3847
(dp3848
g9
I22
sg10
I37
sg11
I0
sbsS'22,30'
p3849
(iMatrix
MatrixElement
p3850
(dp3851
g9
I22
sg10
I30
sg11
I0
sbsS'22,31'
p3852
(iMatrix
MatrixElement
p3853
(dp3854
g9
I22
sg10
I31
sg11
I0
sbsS'22,32'
p3855
(iMatrix
MatrixElement
p3856
(dp3857
g9
I22
sg10
I32
sg11
I0
sbsS'22,33'
p3858
(iMatrix
MatrixElement
p3859
(dp3860
g9
I22
sg10
I33
sg11
I0
sbsS'5,21'
p3861
(iMatrix
MatrixElement
p3862
(dp3863
g9
I5
sg10
I21
sg11
I0
sbsS'5,20'
p3864
(iMatrix
MatrixElement
p3865
(dp3866
g9
I5
sg10
I20
sg11
I0
sbsS'11,43'
p3867
(iMatrix
MatrixElement
p3868
(dp3869
g9
I11
sg10
I43
sg11
I0
sbsS'7,30'
p3870
(iMatrix
MatrixElement
p3871
(dp3872
g9
I7
sg10
I30
sg11
I0
sbsS'11,41'
p3873
(iMatrix
MatrixElement
p3874
(dp3875
g9
I11
sg10
I41
sg11
I0
sbsS'11,40'
p3876
(iMatrix
MatrixElement
p3877
(dp3878
g9
I11
sg10
I40
sg11
I0
sbsS'16,29'
p3879
(iMatrix
MatrixElement
p3880
(dp3881
g9
I16
sg10
I29
sg11
I0
sbsS'43,7'
p3882
(iMatrix
MatrixElement
p3883
(dp3884
g9
I43
sg10
I7
sg11
I0
sbsS'43,6'
p3885
(iMatrix
MatrixElement
p3886
(dp3887
g9
I43
sg10
I6
sg11
I0
sbsS'43,5'
p3888
(iMatrix
MatrixElement
p3889
(dp3890
g9
I43
sg10
I5
sg11
I0
sbsS'43,4'
p3891
(iMatrix
MatrixElement
p3892
(dp3893
g9
I43
sg10
I4
sg11
I0
sbsS'43,3'
p3894
(iMatrix
MatrixElement
p3895
(dp3896
g9
I43
sg10
I3
sg11
I0
sbsS'43,2'
p3897
(iMatrix
MatrixElement
p3898
(dp3899
g9
I43
sg10
I2
sg11
I0
sbsS'43,1'
p3900
(iMatrix
MatrixElement
p3901
(dp3902
g9
I43
sg10
I1
sg11
I0
sbsS'43,9'
p3903
(iMatrix
MatrixElement
p3904
(dp3905
g9
I43
sg10
I9
sg11
I0
sbsS'43,8'
p3906
(iMatrix
MatrixElement
p3907
(dp3908
g9
I43
sg10
I8
sg11
I0
sbsS'5,29'
p3909
(iMatrix
MatrixElement
p3910
(dp3911
g9
I5
sg10
I29
sg11
I0
sbsS'9,44'
p3912
(iMatrix
MatrixElement
p3913
(dp3914
g9
I9
sg10
I44
sg11
I0
sbsS'9,43'
p3915
(iMatrix
MatrixElement
p3916
(dp3917
g9
I9
sg10
I43
sg11
I0
sbsS'9,42'
p3918
(iMatrix
MatrixElement
p3919
(dp3920
g9
I9
sg10
I42
sg11
I0
sbsS'9,41'
p3921
(iMatrix
MatrixElement
p3922
(dp3923
g9
I9
sg10
I41
sg11
I0
sbsS'9,40'
p3924
(iMatrix
MatrixElement
p3925
(dp3926
g9
I9
sg10
I40
sg11
I0
sbsS'41,3'
p3927
(iMatrix
MatrixElement
p3928
(dp3929
g9
I41
sg10
I3
sg11
I0
sbsS'41,2'
p3930
(iMatrix
MatrixElement
p3931
(dp3932
g9
I41
sg10
I2
sg11
I0
sbsS'41,9'
p3933
(iMatrix
MatrixElement
p3934
(dp3935
g9
I41
sg10
I9
sg11
I0
sbsS'41,8'
p3936
(iMatrix
MatrixElement
p3937
(dp3938
g9
I41
sg10
I8
sg11
I0
sbsS'26,30'
p3939
(iMatrix
MatrixElement
p3940
(dp3941
g9
I26
sg10
I30
sg11
I0
sbsS'26,31'
p3942
(iMatrix
MatrixElement
p3943
(dp3944
g9
I26
sg10
I31
sg11
I0
sbsS'26,32'
p3945
(iMatrix
MatrixElement
p3946
(dp3947
g9
I26
sg10
I32
sg11
I0
sbsS'26,33'
p3948
(iMatrix
MatrixElement
p3949
(dp3950
g9
I26
sg10
I33
sg11
I0
sbsS'26,34'
p3951
(iMatrix
MatrixElement
p3952
(dp3953
g9
I26
sg10
I34
sg11
I0
sbsS'26,35'
p3954
(iMatrix
MatrixElement
p3955
(dp3956
g9
I26
sg10
I35
sg11
I0
sbsS'26,36'
p3957
(iMatrix
MatrixElement
p3958
(dp3959
g9
I26
sg10
I36
sg11
I0
sbsS'26,37'
p3960
(iMatrix
MatrixElement
p3961
(dp3962
g9
I26
sg10
I37
sg11
I0
sbsS'26,38'
p3963
(iMatrix
MatrixElement
p3964
(dp3965
g9
I26
sg10
I38
sg11
I0
sbsS'26,39'
p3966
(iMatrix
MatrixElement
p3967
(dp3968
g9
I26
sg10
I39
sg11
I0
sbsS'8,28'
p3969
(iMatrix
MatrixElement
p3970
(dp3971
g9
I8
sg10
I28
sg11
I0
sbsS'8,29'
p3972
(iMatrix
MatrixElement
p3973
(dp3974
g9
I8
sg10
I29
sg11
I0
sbsS'8,26'
p3975
(iMatrix
MatrixElement
p3976
(dp3977
g9
I8
sg10
I26
sg11
F-0.7500187504687611
sbsS'8,27'
p3978
(iMatrix
MatrixElement
p3979
(dp3980
g9
I8
sg10
I27
sg11
I0
sbsS'8,24'
p3981
(iMatrix
MatrixElement
p3982
(dp3983
g9
I8
sg10
I24
sg11
I0
sbsS'8,25'
p3984
(iMatrix
MatrixElement
p3985
(dp3986
g9
I8
sg10
I25
sg11
I0
sbsS'8,22'
p3987
(iMatrix
MatrixElement
p3988
(dp3989
g9
I8
sg10
I22
sg11
I0
sbsS'8,23'
p3990
(iMatrix
MatrixElement
p3991
(dp3992
g9
I8
sg10
I23
sg11
I0
sbsS'8,20'
p3993
(iMatrix
MatrixElement
p3994
(dp3995
g9
I8
sg10
I20
sg11
I0
sbsS'8,21'
p3996
(iMatrix
MatrixElement
p3997
(dp3998
g9
I8
sg10
I21
sg11
I0
sbsS'33,36'
p3999
(iMatrix
MatrixElement
p4000
(dp4001
g9
I33
sg10
I36
sg11
I0
sbsS'21,40'
p4002
(iMatrix
MatrixElement
p4003
(dp4004
g9
I21
sg10
I40
sg11
I0
sbsS'21,41'
p4005
(iMatrix
MatrixElement
p4006
(dp4007
g9
I21
sg10
I41
sg11
I0
sbsS'21,42'
p4008
(iMatrix
MatrixElement
p4009
(dp4010
g9
I21
sg10
I42
sg11
I0
sbsS'21,43'
p4011
(iMatrix
MatrixElement
p4012
(dp4013
g9
I21
sg10
I43
sg11
I0
sbsS'21,44'
p4014
(iMatrix
MatrixElement
p4015
(dp4016
g9
I21
sg10
I44
sg11
I0
sbsS'33,37'
p4017
(iMatrix
MatrixElement
p4018
(dp4019
g9
I33
sg10
I37
sg11
I0
sbsS'7,42'
p4020
(iMatrix
MatrixElement
p4021
(dp4022
g9
I7
sg10
I42
sg11
I0
sbsS'29,40'
p4023
(iMatrix
MatrixElement
p4024
(dp4025
g9
I29
sg10
I40
sg11
I0
sbsS'29,41'
p4026
(iMatrix
MatrixElement
p4027
(dp4028
g9
I29
sg10
I41
sg11
I0
sbsS'29,42'
p4029
(iMatrix
MatrixElement
p4030
(dp4031
g9
I29
sg10
I42
sg11
I0
sbsS'29,43'
p4032
(iMatrix
MatrixElement
p4033
(dp4034
g9
I29
sg10
I43
sg11
I0
sbsS'29,44'
p4035
(iMatrix
MatrixElement
p4036
(dp4037
g9
I29
sg10
I44
sg11
I0
sbsS'5,8'
p4038
(iMatrix
MatrixElement
p4039
(dp4040
g9
I5
sg10
I8
sg11
I0
sbsS'5,9'
p4041
(iMatrix
MatrixElement
p4042
(dp4043
g9
I5
sg10
I9
sg11
I0
sbsS'5,2'
p4044
(iMatrix
MatrixElement
p4045
(dp4046
g9
I5
sg10
I2
sg11
I0
sbsS'5,3'
p4047
(iMatrix
MatrixElement
p4048
(dp4049
g9
I5
sg10
I3
sg11
F-1.3333250000000119
sbsS'5,1'
p4050
(iMatrix
MatrixElement
p4051
(dp4052
g9
I5
sg10
I1
sg11
I0
sbsS'5,6'
p4053
(iMatrix
MatrixElement
p4054
(dp4055
g9
I5
sg10
I6
sg11
I0
sbsS'5,7'
p4056
(iMatrix
MatrixElement
p4057
(dp4058
g9
I5
sg10
I7
sg11
F-1.3333249999999963
sbsS'5,4'
p4059
(iMatrix
MatrixElement
p4060
(dp4061
g9
I5
sg10
I4
sg11
I0
sbsS'5,5'
p4062
(iMatrix
MatrixElement
p4063
(dp4064
g9
I5
sg10
I5
sg11
F4.166659375585959
sbsS'17,34'
p4065
(iMatrix
MatrixElement
p4066
(dp4067
g9
I17
sg10
I34
sg11
I0
sbsS'17,35'
p4068
(iMatrix
MatrixElement
p4069
(dp4070
g9
I17
sg10
I35
sg11
I0
sbsS'17,36'
p4071
(iMatrix
MatrixElement
p4072
(dp4073
g9
I17
sg10
I36
sg11
I0
sbsS'32,32'
p4074
(iMatrix
MatrixElement
p4075
(dp4076
g9
I32
sg10
I32
sg11
F4.166659375585958
sbsS'32,35'
p4077
(iMatrix
MatrixElement
p4078
(dp4079
g9
I32
sg10
I35
sg11
I0
sbsS'32,34'
p4080
(iMatrix
MatrixElement
p4081
(dp4082
g9
I32
sg10
I34
sg11
I0
sbsS'16,39'
p4083
(iMatrix
MatrixElement
p4084
(dp4085
g9
I16
sg10
I39
sg11
I0
sbsS'16,38'
p4086
(iMatrix
MatrixElement
p4087
(dp4088
g9
I16
sg10
I38
sg11
I0
sbsS'32,37'
p4089
(iMatrix
MatrixElement
p4090
(dp4091
g9
I32
sg10
I37
sg11
I0
sbsS'16,33'
p4092
(iMatrix
MatrixElement
p4093
(dp4094
g9
I16
sg10
I33
sg11
I0
sbsS'16,32'
p4095
(iMatrix
MatrixElement
p4096
(dp4097
g9
I16
sg10
I32
sg11
I0
sbsS'16,31'
p4098
(iMatrix
MatrixElement
p4099
(dp4100
g9
I16
sg10
I31
sg11
I0
sbsS'16,30'
p4101
(iMatrix
MatrixElement
p4102
(dp4103
g9
I16
sg10
I30
sg11
F-0.7500187504687603
sbsS'16,37'
p4104
(iMatrix
MatrixElement
p4105
(dp4106
g9
I16
sg10
I37
sg11
I0
sbsS'16,36'
p4107
(iMatrix
MatrixElement
p4108
(dp4109
g9
I16
sg10
I36
sg11
I0
sbsS'16,35'
p4110
(iMatrix
MatrixElement
p4111
(dp4112
g9
I16
sg10
I35
sg11
I0
sbsS'16,34'
p4113
(iMatrix
MatrixElement
p4114
(dp4115
g9
I16
sg10
I34
sg11
I0
sbsS'43,13'
p4116
(iMatrix
MatrixElement
p4117
(dp4118
g9
I43
sg10
I13
sg11
I0
sbsS'43,12'
p4119
(iMatrix
MatrixElement
p4120
(dp4121
g9
I43
sg10
I12
sg11
I0
sbsS'39,18'
p4122
(iMatrix
MatrixElement
p4123
(dp4124
g9
I39
sg10
I18
sg11
I0
sbsS'39,19'
p4125
(iMatrix
MatrixElement
p4126
(dp4127
g9
I39
sg10
I19
sg11
I0
sbsS'43,17'
p4128
(iMatrix
MatrixElement
p4129
(dp4130
g9
I43
sg10
I17
sg11
I0
sbsS'43,16'
p4131
(iMatrix
MatrixElement
p4132
(dp4133
g9
I43
sg10
I16
sg11
I0
sbsS'43,15'
p4134
(iMatrix
MatrixElement
p4135
(dp4136
g9
I43
sg10
I15
sg11
I0
sbsS'43,14'
p4137
(iMatrix
MatrixElement
p4138
(dp4139
g9
I43
sg10
I14
sg11
I0
sbsS'39,12'
p4140
(iMatrix
MatrixElement
p4141
(dp4142
g9
I39
sg10
I12
sg11
I0
sbsS'39,13'
p4143
(iMatrix
MatrixElement
p4144
(dp4145
g9
I39
sg10
I13
sg11
I0
sbsS'43,19'
p4146
(iMatrix
MatrixElement
p4147
(dp4148
g9
I43
sg10
I19
sg11
I0
sbsS'39,11'
p4149
(iMatrix
MatrixElement
p4150
(dp4151
g9
I39
sg10
I11
sg11
I0
sbsS'39,16'
p4152
(iMatrix
MatrixElement
p4153
(dp4154
g9
I39
sg10
I16
sg11
I0
sbsS'39,17'
p4155
(iMatrix
MatrixElement
p4156
(dp4157
g9
I39
sg10
I17
sg11
F-0.7499906251171897
sbsS'39,14'
p4158
(iMatrix
MatrixElement
p4159
(dp4160
g9
I39
sg10
I14
sg11
I0
sbsS'39,15'
p4161
(iMatrix
MatrixElement
p4162
(dp4163
g9
I39
sg10
I15
sg11
I0
sbsS'22,41'
p4164
(iMatrix
MatrixElement
p4165
(dp4166
g9
I22
sg10
I41
sg11
I0
sbsS'22,40'
p4167
(iMatrix
MatrixElement
p4168
(dp4169
g9
I22
sg10
I40
sg11
I0
sbsS'22,43'
p4170
(iMatrix
MatrixElement
p4171
(dp4172
g9
I22
sg10
I43
sg11
I0
sbsS'22,42'
p4173
(iMatrix
MatrixElement
p4174
(dp4175
g9
I22
sg10
I42
sg11
I0
sbsS'22,44'
p4176
(iMatrix
MatrixElement
p4177
(dp4178
g9
I22
sg10
I44
sg11
I0
sbsS'20,8'
p4179
(iMatrix
MatrixElement
p4180
(dp4181
g9
I20
sg10
I8
sg11
I0
sbsS'20,9'
p4182
(iMatrix
MatrixElement
p4183
(dp4184
g9
I20
sg10
I9
sg11
I0
sbsS'20,6'
p4185
(iMatrix
MatrixElement
p4186
(dp4187
g9
I20
sg10
I6
sg11
I0
sbsS'20,7'
p4188
(iMatrix
MatrixElement
p4189
(dp4190
g9
I20
sg10
I7
sg11
I0
sbsS'20,4'
p4191
(iMatrix
MatrixElement
p4192
(dp4193
g9
I20
sg10
I4
sg11
I0
sbsS'20,5'
p4194
(iMatrix
MatrixElement
p4195
(dp4196
g9
I20
sg10
I5
sg11
I0
sbsS'20,2'
p4197
(iMatrix
MatrixElement
p4198
(dp4199
g9
I20
sg10
I2
sg11
I0
sbsS'20,3'
p4200
(iMatrix
MatrixElement
p4201
(dp4202
g9
I20
sg10
I3
sg11
I0
sbsS'20,1'
p4203
(iMatrix
MatrixElement
p4204
(dp4205
g9
I20
sg10
I1
sg11
I0
sbsS'19,29'
p4206
(iMatrix
MatrixElement
p4207
(dp4208
g9
I19
sg10
I29
sg11
I0
sbsS'19,28'
p4209
(iMatrix
MatrixElement
p4210
(dp4211
g9
I19
sg10
I28
sg11
I0
sbsS'19,21'
p4212
(iMatrix
MatrixElement
p4213
(dp4214
g9
I19
sg10
I21
sg11
F-1.3333249999999957
sbsS'19,20'
p4215
(iMatrix
MatrixElement
p4216
(dp4217
g9
I19
sg10
I20
sg11
I0
sbsS'19,23'
p4218
(iMatrix
MatrixElement
p4219
(dp4220
g9
I19
sg10
I23
sg11
I0
sbsS'19,22'
p4221
(iMatrix
MatrixElement
p4222
(dp4223
g9
I19
sg10
I22
sg11
I0
sbsS'19,25'
p4224
(iMatrix
MatrixElement
p4225
(dp4226
g9
I19
sg10
I25
sg11
I0
sbsS'19,24'
p4227
(iMatrix
MatrixElement
p4228
(dp4229
g9
I19
sg10
I24
sg11
I0
sbsS'19,27'
p4230
(iMatrix
MatrixElement
p4231
(dp4232
g9
I19
sg10
I27
sg11
I0
sbsS'19,26'
p4233
(iMatrix
MatrixElement
p4234
(dp4235
g9
I19
sg10
I26
sg11
I0
sbsS'12,39'
p4236
(iMatrix
MatrixElement
p4237
(dp4238
g9
I12
sg10
I39
sg11
I0
sbsS'12,38'
p4239
(iMatrix
MatrixElement
p4240
(dp4241
g9
I12
sg10
I38
sg11
I0
sbsS'12,37'
p4242
(iMatrix
MatrixElement
p4243
(dp4244
g9
I12
sg10
I37
sg11
I0
sbsS'12,36'
p4245
(iMatrix
MatrixElement
p4246
(dp4247
g9
I12
sg10
I36
sg11
I0
sbsS'12,35'
p4248
(iMatrix
MatrixElement
p4249
(dp4250
g9
I12
sg10
I35
sg11
I0
sbsS'12,34'
p4251
(iMatrix
MatrixElement
p4252
(dp4253
g9
I12
sg10
I34
sg11
I0
sbsS'12,33'
p4254
(iMatrix
MatrixElement
p4255
(dp4256
g9
I12
sg10
I33
sg11
I0
sbsS'12,32'
p4257
(iMatrix
MatrixElement
p4258
(dp4259
g9
I12
sg10
I32
sg11
I0
sbsS'12,31'
p4260
(iMatrix
MatrixElement
p4261
(dp4262
g9
I12
sg10
I31
sg11
I0
sbsS'12,30'
p4263
(iMatrix
MatrixElement
p4264
(dp4265
g9
I12
sg10
I30
sg11
I0
sbsS'3,44'
p4266
(iMatrix
MatrixElement
p4267
(dp4268
g9
I3
sg10
I44
sg11
I0
sbsS'3,41'
p4269
(iMatrix
MatrixElement
p4270
(dp4271
g9
I3
sg10
I41
sg11
I0
sbsS'3,40'
p4272
(iMatrix
MatrixElement
p4273
(dp4274
g9
I3
sg10
I40
sg11
I0
sbsS'3,43'
p4275
(iMatrix
MatrixElement
p4276
(dp4277
g9
I3
sg10
I43
sg11
I0
sbsS'38,36'
p4278
(iMatrix
MatrixElement
p4279
(dp4280
g9
I38
sg10
I36
sg11
I0
sbsS'38,30'
p4281
(iMatrix
MatrixElement
p4282
(dp4283
g9
I38
sg10
I30
sg11
I0
sbsS'30,44'
p4284
(iMatrix
MatrixElement
p4285
(dp4286
g9
I30
sg10
I44
sg11
I0
sbsS'30,42'
p4287
(iMatrix
MatrixElement
p4288
(dp4289
g9
I30
sg10
I42
sg11
I0
sbsS'30,43'
p4290
(iMatrix
MatrixElement
p4291
(dp4292
g9
I30
sg10
I43
sg11
I0
sbsS'30,40'
p4293
(iMatrix
MatrixElement
p4294
(dp4295
g9
I30
sg10
I40
sg11
I0
sbsS'30,41'
p4296
(iMatrix
MatrixElement
p4297
(dp4298
g9
I30
sg10
I41
sg11
I0
sbsS'8,39'
p4299
(iMatrix
MatrixElement
p4300
(dp4301
g9
I8
sg10
I39
sg11
I0
sbsS'8,38'
p4302
(iMatrix
MatrixElement
p4303
(dp4304
g9
I8
sg10
I38
sg11
I0
sbsS'8,31'
p4305
(iMatrix
MatrixElement
p4306
(dp4307
g9
I8
sg10
I31
sg11
I0
sbsS'8,30'
p4308
(iMatrix
MatrixElement
p4309
(dp4310
g9
I8
sg10
I30
sg11
I0
sbsS'8,33'
p4311
(iMatrix
MatrixElement
p4312
(dp4313
g9
I8
sg10
I33
sg11
I0
sbsS'8,32'
p4314
(iMatrix
MatrixElement
p4315
(dp4316
g9
I8
sg10
I32
sg11
I0
sbsS'8,35'
p4317
(iMatrix
MatrixElement
p4318
(dp4319
g9
I8
sg10
I35
sg11
I0
sbsS'8,34'
p4320
(iMatrix
MatrixElement
p4321
(dp4322
g9
I8
sg10
I34
sg11
I0
sbsS'8,37'
p4323
(iMatrix
MatrixElement
p4324
(dp4325
g9
I8
sg10
I37
sg11
I0
sbsS'8,36'
p4326
(iMatrix
MatrixElement
p4327
(dp4328
g9
I8
sg10
I36
sg11
I0
sbsS'44,44'
p4329
(iMatrix
MatrixElement
p4330
(dp4331
g9
I44
sg10
I44
sg11
F4.5833406251171835
sbsS'44,41'
p4332
(iMatrix
MatrixElement
p4333
(dp4334
g9
I44
sg10
I41
sg11
F-1.6666749999999984
sbsS'44,40'
p4335
(iMatrix
MatrixElement
p4336
(dp4337
g9
I44
sg10
I40
sg11
I0
sbsS'44,43'
p4338
(iMatrix
MatrixElement
p4339
(dp4340
g9
I44
sg10
I43
sg11
I0
sbsS'44,42'
p4341
(iMatrix
MatrixElement
p4342
(dp4343
g9
I44
sg10
I42
sg11
I0
sbsS'36,7'
p4344
(iMatrix
MatrixElement
p4345
(dp4346
g9
I36
sg10
I7
sg11
I0
sbsS'36,6'
p4347
(iMatrix
MatrixElement
p4348
(dp4349
g9
I36
sg10
I6
sg11
I0
sbsS'36,5'
p4350
(iMatrix
MatrixElement
p4351
(dp4352
g9
I36
sg10
I5
sg11
I0
sbsS'36,4'
p4353
(iMatrix
MatrixElement
p4354
(dp4355
g9
I36
sg10
I4
sg11
I0
sbsS'36,3'
p4356
(iMatrix
MatrixElement
p4357
(dp4358
g9
I36
sg10
I3
sg11
I0
sbsS'36,2'
p4359
(iMatrix
MatrixElement
p4360
(dp4361
g9
I36
sg10
I2
sg11
I0
sbsS'36,1'
p4362
(iMatrix
MatrixElement
p4363
(dp4364
g9
I36
sg10
I1
sg11
I0
sbsS'36,9'
p4365
(iMatrix
MatrixElement
p4366
(dp4367
g9
I36
sg10
I9
sg11
I0
sbsS'36,8'
p4368
(iMatrix
MatrixElement
p4369
(dp4370
g9
I36
sg10
I8
sg11
I0
sbsS'23,19'
p4371
(iMatrix
MatrixElement
p4372
(dp4373
g9
I23
sg10
I19
sg11
I0
sbsS'23,18'
p4374
(iMatrix
MatrixElement
p4375
(dp4376
g9
I23
sg10
I18
sg11
I0
sbsS'23,15'
p4377
(iMatrix
MatrixElement
p4378
(dp4379
g9
I23
sg10
I15
sg11
I0
sbsS'23,14'
p4380
(iMatrix
MatrixElement
p4381
(dp4382
g9
I23
sg10
I14
sg11
I0
sbsS'23,17'
p4383
(iMatrix
MatrixElement
p4384
(dp4385
g9
I23
sg10
I17
sg11
I0
sbsS'23,16'
p4386
(iMatrix
MatrixElement
p4387
(dp4388
g9
I23
sg10
I16
sg11
I0
sbsS'23,11'
p4389
(iMatrix
MatrixElement
p4390
(dp4391
g9
I23
sg10
I11
sg11
I0
sbsS'23,10'
p4392
(iMatrix
MatrixElement
p4393
(dp4394
g9
I23
sg10
I10
sg11
I0
sbsS'23,13'
p4395
(iMatrix
MatrixElement
p4396
(dp4397
g9
I23
sg10
I13
sg11
I0
sbsS'23,12'
p4398
(iMatrix
MatrixElement
p4399
(dp4400
g9
I23
sg10
I12
sg11
I0
sbsS'32,3'
p4401
(iMatrix
MatrixElement
p4402
(dp4403
g9
I32
sg10
I3
sg11
I0
sbsS'32,2'
p4404
(iMatrix
MatrixElement
p4405
(dp4406
g9
I32
sg10
I2
sg11
I0
sbsS'32,1'
p4407
(iMatrix
MatrixElement
p4408
(dp4409
g9
I32
sg10
I1
sg11
I0
sbsS'32,7'
p4410
(iMatrix
MatrixElement
p4411
(dp4412
g9
I32
sg10
I7
sg11
I0
sbsS'32,6'
p4413
(iMatrix
MatrixElement
p4414
(dp4415
g9
I32
sg10
I6
sg11
I0
sbsS'32,5'
p4416
(iMatrix
MatrixElement
p4417
(dp4418
g9
I32
sg10
I5
sg11
I0
sbsS'32,4'
p4419
(iMatrix
MatrixElement
p4420
(dp4421
g9
I32
sg10
I4
sg11
I0
sbsS'32,9'
p4422
(iMatrix
MatrixElement
p4423
(dp4424
g9
I32
sg10
I9
sg11
I0
sbsS'32,8'
p4425
(iMatrix
MatrixElement
p4426
(dp4427
g9
I32
sg10
I8
sg11
I0
sbsS'19,38'
p4428
(iMatrix
MatrixElement
p4429
(dp4430
g9
I19
sg10
I38
sg11
I0
sbsS'19,39'
p4431
(iMatrix
MatrixElement
p4432
(dp4433
g9
I19
sg10
I39
sg11
I0
sbsS'8,9'
p4434
(iMatrix
MatrixElement
p4435
(dp4436
g9
I8
sg10
I9
sg11
I0
sbsS'8,8'
p4437
(iMatrix
MatrixElement
p4438
(dp4439
g9
I8
sg10
I8
sg11
F4.166659375585946
sbsS'8,7'
p4440
(iMatrix
MatrixElement
p4441
(dp4442
g9
I8
sg10
I7
sg11
I0
sbsS'8,6'
p4443
(iMatrix
MatrixElement
p4444
(dp4445
g9
I8
sg10
I6
sg11
F-1.3333249999999999
sbsS'8,5'
p4446
(iMatrix
MatrixElement
p4447
(dp4448
g9
I8
sg10
I5
sg11
I0
sbsS'8,4'
p4449
(iMatrix
MatrixElement
p4450
(dp4451
g9
I8
sg10
I4
sg11
I0
sbsS'8,3'
p4452
(iMatrix
MatrixElement
p4453
(dp4454
g9
I8
sg10
I3
sg11
I0
sbsS'8,2'
p4455
(iMatrix
MatrixElement
p4456
(dp4457
g9
I8
sg10
I2
sg11
I0
sbsS'8,1'
p4458
(iMatrix
MatrixElement
p4459
(dp4460
g9
I8
sg10
I1
sg11
I0
sbsS'38,41'
p4461
(iMatrix
MatrixElement
p4462
(dp4463
g9
I38
sg10
I41
sg11
I0
sbsS'16,24'
p4464
(iMatrix
MatrixElement
p4465
(dp4466
g9
I16
sg10
I24
sg11
I0
sbsS'16,25'
p4467
(iMatrix
MatrixElement
p4468
(dp4469
g9
I16
sg10
I25
sg11
I0
sbsS'16,26'
p4470
(iMatrix
MatrixElement
p4471
(dp4472
g9
I16
sg10
I26
sg11
I0
sbsS'16,27'
p4473
(iMatrix
MatrixElement
p4474
(dp4475
g9
I16
sg10
I27
sg11
I0
sbsS'16,20'
p4476
(iMatrix
MatrixElement
p4477
(dp4478
g9
I16
sg10
I20
sg11
I0
sbsS'16,21'
p4479
(iMatrix
MatrixElement
p4480
(dp4481
g9
I16
sg10
I21
sg11
I0
sbsS'16,22'
p4482
(iMatrix
MatrixElement
p4483
(dp4484
g9
I16
sg10
I22
sg11
I0
sbsS'16,23'
p4485
(iMatrix
MatrixElement
p4486
(dp4487
g9
I16
sg10
I23
sg11
I0
sbsS'7,34'
p4488
(iMatrix
MatrixElement
p4489
(dp4490
g9
I7
sg10
I34
sg11
I0
sbsS'7,35'
p4491
(iMatrix
MatrixElement
p4492
(dp4493
g9
I7
sg10
I35
sg11
I0
sbsS'7,36'
p4494
(iMatrix
MatrixElement
p4495
(dp4496
g9
I7
sg10
I36
sg11
I0
sbsS'7,37'
p4497
(iMatrix
MatrixElement
p4498
(dp4499
g9
I7
sg10
I37
sg11
I0
sbsS'16,28'
p4500
(iMatrix
MatrixElement
p4501
(dp4502
g9
I16
sg10
I28
sg11
I0
sbsS'7,31'
p4503
(iMatrix
MatrixElement
p4504
(dp4505
g9
I7
sg10
I31
sg11
I0
sbsS'7,32'
p4506
(iMatrix
MatrixElement
p4507
(dp4508
g9
I7
sg10
I32
sg11
I0
sbsS'7,33'
p4509
(iMatrix
MatrixElement
p4510
(dp4511
g9
I7
sg10
I33
sg11
I0
sbsS'19,34'
p4512
(iMatrix
MatrixElement
p4513
(dp4514
g9
I19
sg10
I34
sg11
I0
sbsS'19,35'
p4515
(iMatrix
MatrixElement
p4516
(dp4517
g9
I19
sg10
I35
sg11
I0
sbsS'15,29'
p4518
(iMatrix
MatrixElement
p4519
(dp4520
g9
I15
sg10
I29
sg11
I0
sbsS'15,28'
p4521
(iMatrix
MatrixElement
p4522
(dp4523
g9
I15
sg10
I28
sg11
I0
sbsS'15,25'
p4524
(iMatrix
MatrixElement
p4525
(dp4526
g9
I15
sg10
I25
sg11
I0
sbsS'15,24'
p4527
(iMatrix
MatrixElement
p4528
(dp4529
g9
I15
sg10
I24
sg11
I0
sbsS'15,27'
p4530
(iMatrix
MatrixElement
p4531
(dp4532
g9
I15
sg10
I27
sg11
I0
sbsS'15,26'
p4533
(iMatrix
MatrixElement
p4534
(dp4535
g9
I15
sg10
I26
sg11
I0
sbsS'15,21'
p4536
(iMatrix
MatrixElement
p4537
(dp4538
g9
I15
sg10
I21
sg11
I0
sbsS'15,20'
p4539
(iMatrix
MatrixElement
p4540
(dp4541
g9
I15
sg10
I20
sg11
I0
sbsS'15,23'
p4542
(iMatrix
MatrixElement
p4543
(dp4544
g9
I15
sg10
I23
sg11
I0
sbsS'15,22'
p4545
(iMatrix
MatrixElement
p4546
(dp4547
g9
I15
sg10
I22
sg11
I0
sbsS'2,9'
p4548
(iMatrix
MatrixElement
p4549
(dp4550
g9
I2
sg10
I9
sg11
I0
sbsS'2,8'
p4551
(iMatrix
MatrixElement
p4552
(dp4553
g9
I2
sg10
I8
sg11
I0
sbsS'2,5'
p4554
(iMatrix
MatrixElement
p4555
(dp4556
g9
I2
sg10
I5
sg11
I0
sbsS'2,4'
p4557
(iMatrix
MatrixElement
p4558
(dp4559
g9
I2
sg10
I4
sg11
I0
sbsS'2,7'
p4560
(iMatrix
MatrixElement
p4561
(dp4562
g9
I2
sg10
I7
sg11
I0
sbsS'2,6'
p4563
(iMatrix
MatrixElement
p4564
(dp4565
g9
I2
sg10
I6
sg11
I0
sbsS'2,1'
p4566
(iMatrix
MatrixElement
p4567
(dp4568
g9
I2
sg10
I1
sg11
F-1.3333250000000154
sbsS'2,3'
p4569
(iMatrix
MatrixElement
p4570
(dp4571
g9
I2
sg10
I3
sg11
F-1.3333249999999968
sbsS'2,2'
p4572
(iMatrix
MatrixElement
p4573
(dp4574
g9
I2
sg10
I2
sg11
F4.166659375585967
sbsS'27,11'
p4575
(iMatrix
MatrixElement
p4576
(dp4577
g9
I27
sg10
I11
sg11
I0
sbsS'27,10'
p4578
(iMatrix
MatrixElement
p4579
(dp4580
g9
I27
sg10
I10
sg11
F-0.7500187504687614
sbsS'27,13'
p4581
(iMatrix
MatrixElement
p4582
(dp4583
g9
I27
sg10
I13
sg11
I0
sbsS'27,12'
p4584
(iMatrix
MatrixElement
p4585
(dp4586
g9
I27
sg10
I12
sg11
I0
sbsS'27,15'
p4587
(iMatrix
MatrixElement
p4588
(dp4589
g9
I27
sg10
I15
sg11
I0
sbsS'27,14'
p4590
(iMatrix
MatrixElement
p4591
(dp4592
g9
I27
sg10
I14
sg11
I0
sbsS'27,17'
p4593
(iMatrix
MatrixElement
p4594
(dp4595
g9
I27
sg10
I17
sg11
I0
sbsS'27,16'
p4596
(iMatrix
MatrixElement
p4597
(dp4598
g9
I27
sg10
I16
sg11
I0
sbsS'27,19'
p4599
(iMatrix
MatrixElement
p4600
(dp4601
g9
I27
sg10
I19
sg11
I0
sbsS'27,18'
p4602
(iMatrix
MatrixElement
p4603
(dp4604
g9
I27
sg10
I18
sg11
I0
sbsS'42,44'
p4605
(iMatrix
MatrixElement
p4606
(dp4607
g9
I42
sg10
I44
sg11
I0
sbsS'42,43'
p4608
(iMatrix
MatrixElement
p4609
(dp4610
g9
I42
sg10
I43
sg11
F-1.6666750000000037
sbsS'42,42'
p4611
(iMatrix
MatrixElement
p4612
(dp4613
g9
I42
sg10
I42
sg11
F4.5833406251171995
sbsS'42,41'
p4614
(iMatrix
MatrixElement
p4615
(dp4616
g9
I42
sg10
I41
sg11
I0
sbsS'42,40'
p4617
(iMatrix
MatrixElement
p4618
(dp4619
g9
I42
sg10
I40
sg11
F-0.5000000000000023
sbsS'39,27'
p4620
(iMatrix
MatrixElement
p4621
(dp4622
g9
I39
sg10
I27
sg11
I0
sbsS'39,26'
p4623
(iMatrix
MatrixElement
p4624
(dp4625
g9
I39
sg10
I26
sg11
I0
sbsS'39,25'
p4626
(iMatrix
MatrixElement
p4627
(dp4628
g9
I39
sg10
I25
sg11
I0
sbsS'39,24'
p4629
(iMatrix
MatrixElement
p4630
(dp4631
g9
I39
sg10
I24
sg11
I0
sbsS'39,23'
p4632
(iMatrix
MatrixElement
p4633
(dp4634
g9
I39
sg10
I23
sg11
I0
sbsS'39,22'
p4635
(iMatrix
MatrixElement
p4636
(dp4637
g9
I39
sg10
I22
sg11
I0
sbsS'39,21'
p4638
(iMatrix
MatrixElement
p4639
(dp4640
g9
I39
sg10
I21
sg11
I0
sbsS'39,20'
p4641
(iMatrix
MatrixElement
p4642
(dp4643
g9
I39
sg10
I20
sg11
I0
sbsS'19,32'
p4644
(iMatrix
MatrixElement
p4645
(dp4646
g9
I19
sg10
I32
sg11
I0
sbsS'19,33'
p4647
(iMatrix
MatrixElement
p4648
(dp4649
g9
I19
sg10
I33
sg11
I0
sbsS'19,30'
p4650
(iMatrix
MatrixElement
p4651
(dp4652
g9
I19
sg10
I30
sg11
I0
sbsS'19,31'
p4653
(iMatrix
MatrixElement
p4654
(dp4655
g9
I19
sg10
I31
sg11
I0
sbsS'19,36'
p4656
(iMatrix
MatrixElement
p4657
(dp4658
g9
I19
sg10
I36
sg11
I0
sbsS'19,37'
p4659
(iMatrix
MatrixElement
p4660
(dp4661
g9
I19
sg10
I37
sg11
I0
sbsS'39,29'
p4662
(iMatrix
MatrixElement
p4663
(dp4664
g9
I39
sg10
I29
sg11
I0
sbsS'39,28'
p4665
(iMatrix
MatrixElement
p4666
(dp4667
g9
I39
sg10
I28
sg11
I0
sbsS'12,28'
p4668
(iMatrix
MatrixElement
p4669
(dp4670
g9
I12
sg10
I28
sg11
F-0.7500187504687621
sbsS'12,29'
p4671
(iMatrix
MatrixElement
p4672
(dp4673
g9
I12
sg10
I29
sg11
I0
sbsS'23,38'
p4674
(iMatrix
MatrixElement
p4675
(dp4676
g9
I23
sg10
I38
sg11
I0
sbsS'12,20'
p4677
(iMatrix
MatrixElement
p4678
(dp4679
g9
I12
sg10
I20
sg11
I0
sbsS'12,21'
p4680
(iMatrix
MatrixElement
p4681
(dp4682
g9
I12
sg10
I21
sg11
I0
sbsS'12,22'
p4683
(iMatrix
MatrixElement
p4684
(dp4685
g9
I12
sg10
I22
sg11
I0
sbsS'12,23'
p4686
(iMatrix
MatrixElement
p4687
(dp4688
g9
I12
sg10
I23
sg11
I0
sbsS'12,24'
p4689
(iMatrix
MatrixElement
p4690
(dp4691
g9
I12
sg10
I24
sg11
I0
sbsS'12,25'
p4692
(iMatrix
MatrixElement
p4693
(dp4694
g9
I12
sg10
I25
sg11
I0
sbsS'12,26'
p4695
(iMatrix
MatrixElement
p4696
(dp4697
g9
I12
sg10
I26
sg11
I0
sbsS'12,27'
p4698
(iMatrix
MatrixElement
p4699
(dp4700
g9
I12
sg10
I27
sg11
I0
sbsS'11,21'
p4701
(iMatrix
MatrixElement
p4702
(dp4703
g9
I11
sg10
I21
sg11
I0
sbsS'11,20'
p4704
(iMatrix
MatrixElement
p4705
(dp4706
g9
I11
sg10
I20
sg11
I0
sbsS'11,23'
p4707
(iMatrix
MatrixElement
p4708
(dp4709
g9
I11
sg10
I23
sg11
I0
sbsS'11,22'
p4710
(iMatrix
MatrixElement
p4711
(dp4712
g9
I11
sg10
I22
sg11
I0
sbsS'11,25'
p4713
(iMatrix
MatrixElement
p4714
(dp4715
g9
I11
sg10
I25
sg11
I0
sbsS'11,24'
p4716
(iMatrix
MatrixElement
p4717
(dp4718
g9
I11
sg10
I24
sg11
I0
sbsS'11,27'
p4719
(iMatrix
MatrixElement
p4720
(dp4721
g9
I11
sg10
I27
sg11
I0
sbsS'11,26'
p4722
(iMatrix
MatrixElement
p4723
(dp4724
g9
I11
sg10
I26
sg11
I0
sbsS'11,29'
p4725
(iMatrix
MatrixElement
p4726
(dp4727
g9
I11
sg10
I29
sg11
I0
sbsS'11,28'
p4728
(iMatrix
MatrixElement
p4729
(dp4730
g9
I11
sg10
I28
sg11
I0
sbsS'10,39'
p4731
(iMatrix
MatrixElement
p4732
(dp4733
g9
I10
sg10
I39
sg11
I0
sbsS'19,2'
p4734
(iMatrix
MatrixElement
p4735
(dp4736
g9
I19
sg10
I2
sg11
F-0.7500187504687605
sbsS'19,3'
p4737
(iMatrix
MatrixElement
p4738
(dp4739
g9
I19
sg10
I3
sg11
I0
sbsS'19,1'
p4740
(iMatrix
MatrixElement
p4741
(dp4742
g9
I19
sg10
I1
sg11
I0
sbsS'19,6'
p4743
(iMatrix
MatrixElement
p4744
(dp4745
g9
I19
sg10
I6
sg11
I0
sbsS'19,7'
p4746
(iMatrix
MatrixElement
p4747
(dp4748
g9
I19
sg10
I7
sg11
I0
sbsS'19,4'
p4749
(iMatrix
MatrixElement
p4750
(dp4751
g9
I19
sg10
I4
sg11
I0
sbsS'19,5'
p4752
(iMatrix
MatrixElement
p4753
(dp4754
g9
I19
sg10
I5
sg11
I0
sbsS'19,8'
p4755
(iMatrix
MatrixElement
p4756
(dp4757
g9
I19
sg10
I8
sg11
I0
sbsS'19,9'
p4758
(iMatrix
MatrixElement
p4759
(dp4760
g9
I19
sg10
I9
sg11
I0
sbsS'10,38'
p4761
(iMatrix
MatrixElement
p4762
(dp4763
g9
I10
sg10
I38
sg11
I0
sbsS'13,41'
p4764
(iMatrix
MatrixElement
p4765
(dp4766
g9
I13
sg10
I41
sg11
I0
sbsS'13,40'
p4767
(iMatrix
MatrixElement
p4768
(dp4769
g9
I13
sg10
I40
sg11
I0
sbsS'3,30'
p4770
(iMatrix
MatrixElement
p4771
(dp4772
g9
I3
sg10
I30
sg11
I0
sbsS'13,43'
p4773
(iMatrix
MatrixElement
p4774
(dp4775
g9
I13
sg10
I43
sg11
I0
sbsS'3,31'
p4776
(iMatrix
MatrixElement
p4777
(dp4778
g9
I3
sg10
I31
sg11
I0
sbsS'13,42'
p4779
(iMatrix
MatrixElement
p4780
(dp4781
g9
I13
sg10
I42
sg11
I0
sbsS'3,32'
p4782
(iMatrix
MatrixElement
p4783
(dp4784
g9
I3
sg10
I32
sg11
I0
sbsS'3,33'
p4785
(iMatrix
MatrixElement
p4786
(dp4787
g9
I3
sg10
I33
sg11
I0
sbsS'3,34'
p4788
(iMatrix
MatrixElement
p4789
(dp4790
g9
I3
sg10
I34
sg11
I0
sbsS'3,35'
p4791
(iMatrix
MatrixElement
p4792
(dp4793
g9
I3
sg10
I35
sg11
I0
sbsS'3,36'
p4794
(iMatrix
MatrixElement
p4795
(dp4796
g9
I3
sg10
I36
sg11
I0
sbsS'3,37'
p4797
(iMatrix
MatrixElement
p4798
(dp4799
g9
I3
sg10
I37
sg11
I0
sbsS'3,38'
p4800
(iMatrix
MatrixElement
p4801
(dp4802
g9
I3
sg10
I38
sg11
I0
sbsS'3,39'
p4803
(iMatrix
MatrixElement
p4804
(dp4805
g9
I3
sg10
I39
sg11
I0
sbsS'15,8'
p4806
(iMatrix
MatrixElement
p4807
(dp4808
g9
I15
sg10
I8
sg11
I0
sbsS'15,9'
p4809
(iMatrix
MatrixElement
p4810
(dp4811
g9
I15
sg10
I9
sg11
I0
sbsS'15,6'
p4812
(iMatrix
MatrixElement
p4813
(dp4814
g9
I15
sg10
I6
sg11
I0
sbsS'15,7'
p4815
(iMatrix
MatrixElement
p4816
(dp4817
g9
I15
sg10
I7
sg11
I0
sbsS'15,4'
p4818
(iMatrix
MatrixElement
p4819
(dp4820
g9
I15
sg10
I4
sg11
I0
sbsS'15,5'
p4821
(iMatrix
MatrixElement
p4822
(dp4823
g9
I15
sg10
I5
sg11
I0
sbsS'15,2'
p4824
(iMatrix
MatrixElement
p4825
(dp4826
g9
I15
sg10
I2
sg11
I0
sbsS'15,3'
p4827
(iMatrix
MatrixElement
p4828
(dp4829
g9
I15
sg10
I3
sg11
I0
sbsS'15,1'
p4830
(iMatrix
MatrixElement
p4831
(dp4832
g9
I15
sg10
I1
sg11
I0
sbsS'25,9'
p4833
(iMatrix
MatrixElement
p4834
(dp4835
g9
I25
sg10
I9
sg11
I0
sbsS'25,8'
p4836
(iMatrix
MatrixElement
p4837
(dp4838
g9
I25
sg10
I8
sg11
I0
sbsS'25,3'
p4839
(iMatrix
MatrixElement
p4840
(dp4841
g9
I25
sg10
I3
sg11
I0
sbsS'25,2'
p4842
(iMatrix
MatrixElement
p4843
(dp4844
g9
I25
sg10
I2
sg11
I0
sbsS'25,1'
p4845
(iMatrix
MatrixElement
p4846
(dp4847
g9
I25
sg10
I1
sg11
I0
sbsS'25,7'
p4848
(iMatrix
MatrixElement
p4849
(dp4850
g9
I25
sg10
I7
sg11
I0
sbsS'25,6'
p4851
(iMatrix
MatrixElement
p4852
(dp4853
g9
I25
sg10
I6
sg11
F-0.7500187504687614
sbsS'25,5'
p4854
(iMatrix
MatrixElement
p4855
(dp4856
g9
I25
sg10
I5
sg11
I0
sbsS'25,4'
p4857
(iMatrix
MatrixElement
p4858
(dp4859
g9
I25
sg10
I4
sg11
I0
sbsS'7,29'
p4860
(iMatrix
MatrixElement
p4861
(dp4862
g9
I7
sg10
I29
sg11
I0
sbsS'7,28'
p4863
(iMatrix
MatrixElement
p4864
(dp4865
g9
I7
sg10
I28
sg11
I0
sbsS'7,27'
p4866
(iMatrix
MatrixElement
p4867
(dp4868
g9
I7
sg10
I27
sg11
I0
sbsS'7,26'
p4869
(iMatrix
MatrixElement
p4870
(dp4871
g9
I7
sg10
I26
sg11
I0
sbsS'7,25'
p4872
(iMatrix
MatrixElement
p4873
(dp4874
g9
I7
sg10
I25
sg11
I0
sbsS'7,24'
p4875
(iMatrix
MatrixElement
p4876
(dp4877
g9
I7
sg10
I24
sg11
I0
sbsS'7,23'
p4878
(iMatrix
MatrixElement
p4879
(dp4880
g9
I7
sg10
I23
sg11
F-0.7500187504687599
sbsS'7,22'
p4881
(iMatrix
MatrixElement
p4882
(dp4883
g9
I7
sg10
I22
sg11
I0
sbsS'7,21'
p4884
(iMatrix
MatrixElement
p4885
(dp4886
g9
I7
sg10
I21
sg11
I0
sbsS'7,20'
p4887
(iMatrix
MatrixElement
p4888
(dp4889
g9
I7
sg10
I20
sg11
I0
sbsS'1,10'
p4890
(iMatrix
MatrixElement
p4891
(dp4892
g9
I1
sg10
I10
sg11
I0
sbsS'1,11'
p4893
(iMatrix
MatrixElement
p4894
(dp4895
g9
I1
sg10
I11
sg11
I0
sbsS'1,12'
p4896
(iMatrix
MatrixElement
p4897
(dp4898
g9
I1
sg10
I12
sg11
I0
sbsS'1,13'
p4899
(iMatrix
MatrixElement
p4900
(dp4901
g9
I1
sg10
I13
sg11
I0
sbsS'1,14'
p4902
(iMatrix
MatrixElement
p4903
(dp4904
g9
I1
sg10
I14
sg11
I0
sbsS'1,15'
p4905
(iMatrix
MatrixElement
p4906
(dp4907
g9
I1
sg10
I15
sg11
I0
sbsS'1,16'
p4908
(iMatrix
MatrixElement
p4909
(dp4910
g9
I1
sg10
I16
sg11
I0
sbsS'1,17'
p4911
(iMatrix
MatrixElement
p4912
(dp4913
g9
I1
sg10
I17
sg11
F-0.7500187504687628
sbsS'1,18'
p4914
(iMatrix
MatrixElement
p4915
(dp4916
g9
I1
sg10
I18
sg11
I0
sbsS'1,19'
p4917
(iMatrix
MatrixElement
p4918
(dp4919
g9
I1
sg10
I19
sg11
I0
sbsS'15,38'
p4920
(iMatrix
MatrixElement
p4921
(dp4922
g9
I15
sg10
I38
sg11
F-0.7500187504687612
sbsS'15,39'
p4923
(iMatrix
MatrixElement
p4924
(dp4925
g9
I15
sg10
I39
sg11
I0
sbsS'15,36'
p4926
(iMatrix
MatrixElement
p4927
(dp4928
g9
I15
sg10
I36
sg11
I0
sbsS'15,37'
p4929
(iMatrix
MatrixElement
p4930
(dp4931
g9
I15
sg10
I37
sg11
I0
sbsS'15,34'
p4932
(iMatrix
MatrixElement
p4933
(dp4934
g9
I15
sg10
I34
sg11
I0
sbsS'15,35'
p4935
(iMatrix
MatrixElement
p4936
(dp4937
g9
I15
sg10
I35
sg11
I0
sbsS'15,32'
p4938
(iMatrix
MatrixElement
p4939
(dp4940
g9
I15
sg10
I32
sg11
I0
sbsS'15,33'
p4941
(iMatrix
MatrixElement
p4942
(dp4943
g9
I15
sg10
I33
sg11
I0
sbsS'15,30'
p4944
(iMatrix
MatrixElement
p4945
(dp4946
g9
I15
sg10
I30
sg11
I0
sbsS'15,31'
p4947
(iMatrix
MatrixElement
p4948
(dp4949
g9
I15
sg10
I31
sg11
I0
sbsS'29,7'
p4950
(iMatrix
MatrixElement
p4951
(dp4952
g9
I29
sg10
I7
sg11
I0
sbsS'29,6'
p4953
(iMatrix
MatrixElement
p4954
(dp4955
g9
I29
sg10
I6
sg11
I0
sbsS'29,5'
p4956
(iMatrix
MatrixElement
p4957
(dp4958
g9
I29
sg10
I5
sg11
I0
sbsS'29,4'
p4959
(iMatrix
MatrixElement
p4960
(dp4961
g9
I29
sg10
I4
sg11
I0
sbsS'29,3'
p4962
(iMatrix
MatrixElement
p4963
(dp4964
g9
I29
sg10
I3
sg11
I0
sbsS'29,2'
p4965
(iMatrix
MatrixElement
p4966
(dp4967
g9
I29
sg10
I2
sg11
I0
sbsS'29,1'
p4968
(iMatrix
MatrixElement
p4969
(dp4970
g9
I29
sg10
I1
sg11
I0
sbsS'29,9'
p4971
(iMatrix
MatrixElement
p4972
(dp4973
g9
I29
sg10
I9
sg11
I0
sbsS'29,8'
p4974
(iMatrix
MatrixElement
p4975
(dp4976
g9
I29
sg10
I8
sg11
I0
sbsS'39,30'
p4977
(iMatrix
MatrixElement
p4978
(dp4979
g9
I39
sg10
I30
sg11
I0
sbsS'39,31'
p4980
(iMatrix
MatrixElement
p4981
(dp4982
g9
I39
sg10
I31
sg11
I0
sbsS'39,32'
p4983
(iMatrix
MatrixElement
p4984
(dp4985
g9
I39
sg10
I32
sg11
I0
sbsS'39,33'
p4986
(iMatrix
MatrixElement
p4987
(dp4988
g9
I39
sg10
I33
sg11
I0
sbsS'39,34'
p4989
(iMatrix
MatrixElement
p4990
(dp4991
g9
I39
sg10
I34
sg11
I0
sbsS'39,35'
p4992
(iMatrix
MatrixElement
p4993
(dp4994
g9
I39
sg10
I35
sg11
I0
sbsS'39,36'
p4995
(iMatrix
MatrixElement
p4996
(dp4997
g9
I39
sg10
I36
sg11
I0
sbsS'39,37'
p4998
(iMatrix
MatrixElement
p4999
(dp5000
g9
I39
sg10
I37
sg11
I0
sbsS'39,38'
p5001
(iMatrix
MatrixElement
p5002
(dp5003
g9
I39
sg10
I38
sg11
I0
sbsS'39,39'
p5004
(iMatrix
MatrixElement
p5005
(dp5006
g9
I39
sg10
I39
sg11
F4.583340625117184
sbsS'9,18'
p5007
(iMatrix
MatrixElement
p5008
(dp5009
g9
I9
sg10
I18
sg11
I0
sbsS'9,19'
p5010
(iMatrix
MatrixElement
p5011
(dp5012
g9
I9
sg10
I19
sg11
I0
sbsS'9,10'
p5013
(iMatrix
MatrixElement
p5014
(dp5015
g9
I9
sg10
I10
sg11
I0
sbsS'9,11'
p5016
(iMatrix
MatrixElement
p5017
(dp5018
g9
I9
sg10
I11
sg11
F-1.3333250000000056
sbsS'9,12'
p5019
(iMatrix
MatrixElement
p5020
(dp5021
g9
I9
sg10
I12
sg11
I0
sbsS'9,13'
p5022
(iMatrix
MatrixElement
p5023
(dp5024
g9
I9
sg10
I13
sg11
I0
sbsS'9,14'
p5025
(iMatrix
MatrixElement
p5026
(dp5027
g9
I9
sg10
I14
sg11
I0
sbsS'9,15'
p5028
(iMatrix
MatrixElement
p5029
(dp5030
g9
I9
sg10
I15
sg11
I0
sbsS'9,16'
p5031
(iMatrix
MatrixElement
p5032
(dp5033
g9
I9
sg10
I16
sg11
I0
sbsS'9,17'
p5034
(iMatrix
MatrixElement
p5035
(dp5036
g9
I9
sg10
I17
sg11
I0
sbsS'26,19'
p5037
(iMatrix
MatrixElement
p5038
(dp5039
g9
I26
sg10
I19
sg11
I0
sbsS'3,23'
p5040
(iMatrix
MatrixElement
p5041
(dp5042
g9
I3
sg10
I23
sg11
I0
sbsS'3,22'
p5043
(iMatrix
MatrixElement
p5044
(dp5045
g9
I3
sg10
I22
sg11
I0
sbsS'11,30'
p5046
(iMatrix
MatrixElement
p5047
(dp5048
g9
I11
sg10
I30
sg11
I0
sbsS'3,20'
p5049
(iMatrix
MatrixElement
p5050
(dp5051
g9
I3
sg10
I20
sg11
I0
sbsS'3,27'
p5052
(iMatrix
MatrixElement
p5053
(dp5054
g9
I3
sg10
I27
sg11
I0
sbsS'3,26'
p5055
(iMatrix
MatrixElement
p5056
(dp5057
g9
I3
sg10
I26
sg11
I0
sbsS'3,25'
p5058
(iMatrix
MatrixElement
p5059
(dp5060
g9
I3
sg10
I25
sg11
I0
sbsS'3,24'
p5061
(iMatrix
MatrixElement
p5062
(dp5063
g9
I3
sg10
I24
sg11
I0
sbsS'3,29'
p5064
(iMatrix
MatrixElement
p5065
(dp5066
g9
I3
sg10
I29
sg11
I0
sbsS'3,28'
p5067
(iMatrix
MatrixElement
p5068
(dp5069
g9
I3
sg10
I28
sg11
I0
sbsS'36,40'
p5070
(iMatrix
MatrixElement
p5071
(dp5072
g9
I36
sg10
I40
sg11
I0
sbsS'36,41'
p5073
(iMatrix
MatrixElement
p5074
(dp5075
g9
I36
sg10
I41
sg11
F-0.4999999999999998
sbsS'36,42'
p5076
(iMatrix
MatrixElement
p5077
(dp5078
g9
I36
sg10
I42
sg11
I0
sbsS'36,43'
p5079
(iMatrix
MatrixElement
p5080
(dp5081
g9
I36
sg10
I43
sg11
I0
sbsS'36,44'
p5082
(iMatrix
MatrixElement
p5083
(dp5084
g9
I36
sg10
I44
sg11
I0
sbsS'5,18'
p5085
(iMatrix
MatrixElement
p5086
(dp5087
g9
I5
sg10
I18
sg11
I0
sbsS'5,19'
p5088
(iMatrix
MatrixElement
p5089
(dp5090
g9
I5
sg10
I19
sg11
I0
sbsS'5,14'
p5091
(iMatrix
MatrixElement
p5092
(dp5093
g9
I5
sg10
I14
sg11
I0
sbsS'5,15'
p5094
(iMatrix
MatrixElement
p5095
(dp5096
g9
I5
sg10
I15
sg11
I0
sbsS'5,16'
p5097
(iMatrix
MatrixElement
p5098
(dp5099
g9
I5
sg10
I16
sg11
I0
sbsS'5,17'
p5100
(iMatrix
MatrixElement
p5101
(dp5102
g9
I5
sg10
I17
sg11
I0
sbsS'5,10'
p5103
(iMatrix
MatrixElement
p5104
(dp5105
g9
I5
sg10
I10
sg11
I0
sbsS'5,11'
p5106
(iMatrix
MatrixElement
p5107
(dp5108
g9
I5
sg10
I11
sg11
I0
sbsS'5,12'
p5109
(iMatrix
MatrixElement
p5110
(dp5111
g9
I5
sg10
I12
sg11
I0
sbsS'5,13'
p5112
(iMatrix
MatrixElement
p5113
(dp5114
g9
I5
sg10
I13
sg11
I0
sbsS'11,42'
p5115
(iMatrix
MatrixElement
p5116
(dp5117
g9
I11
sg10
I42
sg11
I0
sbsS'31,12'
p5118
(iMatrix
MatrixElement
p5119
(dp5120
g9
I31
sg10
I12
sg11
I0
sbsS'31,13'
p5121
(iMatrix
MatrixElement
p5122
(dp5123
g9
I31
sg10
I13
sg11
I0
sbsS'31,10'
p5124
(iMatrix
MatrixElement
p5125
(dp5126
g9
I31
sg10
I10
sg11
I0
sbsS'31,11'
p5127
(iMatrix
MatrixElement
p5128
(dp5129
g9
I31
sg10
I11
sg11
I0
sbsS'31,16'
p5130
(iMatrix
MatrixElement
p5131
(dp5132
g9
I31
sg10
I16
sg11
I0
sbsS'31,17'
p5133
(iMatrix
MatrixElement
p5134
(dp5135
g9
I31
sg10
I17
sg11
I0
sbsS'31,14'
p5136
(iMatrix
MatrixElement
p5137
(dp5138
g9
I31
sg10
I14
sg11
I0
sbsS'31,15'
p5139
(iMatrix
MatrixElement
p5140
(dp5141
g9
I31
sg10
I15
sg11
I0
sbsS'23,33'
p5142
(iMatrix
MatrixElement
p5143
(dp5144
g9
I23
sg10
I33
sg11
F-1.3333250000000025
sbsS'23,32'
p5145
(iMatrix
MatrixElement
p5146
(dp5147
g9
I23
sg10
I32
sg11
I0
sbsS'31,18'
p5148
(iMatrix
MatrixElement
p5149
(dp5150
g9
I31
sg10
I18
sg11
F-0.7500187504687597
sbsS'31,19'
p5151
(iMatrix
MatrixElement
p5152
(dp5153
g9
I31
sg10
I19
sg11
I0
sbsS'23,37'
p5154
(iMatrix
MatrixElement
p5155
(dp5156
g9
I23
sg10
I37
sg11
I0
sbsS'23,36'
p5157
(iMatrix
MatrixElement
p5158
(dp5159
g9
I23
sg10
I36
sg11
I0
sbsS'23,35'
p5160
(iMatrix
MatrixElement
p5161
(dp5162
g9
I23
sg10
I35
sg11
I0
sbsS'23,34'
p5163
(iMatrix
MatrixElement
p5164
(dp5165
g9
I23
sg10
I34
sg11
I0
sbsS'16,42'
p5166
(iMatrix
MatrixElement
p5167
(dp5168
g9
I16
sg10
I42
sg11
I0
sbsS'16,43'
p5169
(iMatrix
MatrixElement
p5170
(dp5171
g9
I16
sg10
I43
sg11
I0
sbsS'7,18'
p5172
(iMatrix
MatrixElement
p5173
(dp5174
g9
I7
sg10
I18
sg11
I0
sbsS'7,19'
p5175
(iMatrix
MatrixElement
p5176
(dp5177
g9
I7
sg10
I19
sg11
I0
sbsS'16,44'
p5178
(iMatrix
MatrixElement
p5179
(dp5180
g9
I16
sg10
I44
sg11
I0
sbsS'7,12'
p5181
(iMatrix
MatrixElement
p5182
(dp5183
g9
I7
sg10
I12
sg11
I0
sbsS'7,13'
p5184
(iMatrix
MatrixElement
p5185
(dp5186
g9
I7
sg10
I13
sg11
I0
sbsS'7,10'
p5187
(iMatrix
MatrixElement
p5188
(dp5189
g9
I7
sg10
I10
sg11
I0
sbsS'7,11'
p5190
(iMatrix
MatrixElement
p5191
(dp5192
g9
I7
sg10
I11
sg11
I0
sbsS'7,16'
p5193
(iMatrix
MatrixElement
p5194
(dp5195
g9
I7
sg10
I16
sg11
I0
sbsS'7,17'
p5196
(iMatrix
MatrixElement
p5197
(dp5198
g9
I7
sg10
I17
sg11
I0
sbsS'7,14'
p5199
(iMatrix
MatrixElement
p5200
(dp5201
g9
I7
sg10
I14
sg11
I0
sbsS'7,15'
p5202
(iMatrix
MatrixElement
p5203
(dp5204
g9
I7
sg10
I15
sg11
I0
sbsS'13,18'
p5205
(iMatrix
MatrixElement
p5206
(dp5207
g9
I13
sg10
I18
sg11
I0
sbsS'13,19'
p5208
(iMatrix
MatrixElement
p5209
(dp5210
g9
I13
sg10
I19
sg11
I0
sbsS'27,39'
p5211
(iMatrix
MatrixElement
p5212
(dp5213
g9
I27
sg10
I39
sg11
I0
sbsS'27,38'
p5214
(iMatrix
MatrixElement
p5215
(dp5216
g9
I27
sg10
I38
sg11
I0
sbsS'27,37'
p5217
(iMatrix
MatrixElement
p5218
(dp5219
g9
I27
sg10
I37
sg11
I0
sbsS'27,36'
p5220
(iMatrix
MatrixElement
p5221
(dp5222
g9
I27
sg10
I36
sg11
I0
sbsS'27,35'
p5223
(iMatrix
MatrixElement
p5224
(dp5225
g9
I27
sg10
I35
sg11
I0
sbsS'27,34'
p5226
(iMatrix
MatrixElement
p5227
(dp5228
g9
I27
sg10
I34
sg11
I0
sbsS'27,33'
p5229
(iMatrix
MatrixElement
p5230
(dp5231
g9
I27
sg10
I33
sg11
I0
sbsS'27,32'
p5232
(iMatrix
MatrixElement
p5233
(dp5234
g9
I27
sg10
I32
sg11
I0
sbsS'27,31'
p5235
(iMatrix
MatrixElement
p5236
(dp5237
g9
I27
sg10
I31
sg11
I0
sbsS'27,30'
p5238
(iMatrix
MatrixElement
p5239
(dp5240
g9
I27
sg10
I30
sg11
I0
sbsS'10,9'
p5241
(iMatrix
MatrixElement
p5242
(dp5243
g9
I10
sg10
I9
sg11
I0
sbsS'10,8'
p5244
(iMatrix
MatrixElement
p5245
(dp5246
g9
I10
sg10
I8
sg11
F-1.3333249999999985
sbsS'10,3'
p5247
(iMatrix
MatrixElement
p5248
(dp5249
g9
I10
sg10
I3
sg11
I0
sbsS'10,2'
p5250
(iMatrix
MatrixElement
p5251
(dp5252
g9
I10
sg10
I2
sg11
I0
sbsS'10,1'
p5253
(iMatrix
MatrixElement
p5254
(dp5255
g9
I10
sg10
I1
sg11
I0
sbsS'10,7'
p5256
(iMatrix
MatrixElement
p5257
(dp5258
g9
I10
sg10
I7
sg11
I0
sbsS'29,19'
p5259
(iMatrix
MatrixElement
p5260
(dp5261
g9
I29
sg10
I19
sg11
I0
sbsS'10,5'
p5262
(iMatrix
MatrixElement
p5263
(dp5264
g9
I10
sg10
I5
sg11
I0
sbsS'10,4'
p5265
(iMatrix
MatrixElement
p5266
(dp5267
g9
I10
sg10
I4
sg11
I0
sbsS'10,44'
p5268
(iMatrix
MatrixElement
p5269
(dp5270
g9
I10
sg10
I44
sg11
I0
sbsS'29,18'
p5271
(iMatrix
MatrixElement
p5272
(dp5273
g9
I29
sg10
I18
sg11
I0
sbsS'10,40'
p5274
(iMatrix
MatrixElement
p5275
(dp5276
g9
I10
sg10
I40
sg11
I0
sbsS'10,41'
p5277
(iMatrix
MatrixElement
p5278
(dp5279
g9
I10
sg10
I41
sg11
I0
sbsS'10,42'
p5280
(iMatrix
MatrixElement
p5281
(dp5282
g9
I10
sg10
I42
sg11
I0
sbsS'10,43'
p5283
(iMatrix
MatrixElement
p5284
(dp5285
g9
I10
sg10
I43
sg11
I0
sbsS'19,10'
p5286
(iMatrix
MatrixElement
p5287
(dp5288
g9
I19
sg10
I10
sg11
I0
sbsS'19,11'
p5289
(iMatrix
MatrixElement
p5290
(dp5291
g9
I19
sg10
I11
sg11
I0
sbsS'19,12'
p5292
(iMatrix
MatrixElement
p5293
(dp5294
g9
I19
sg10
I12
sg11
I0
sbsS'19,13'
p5295
(iMatrix
MatrixElement
p5296
(dp5297
g9
I19
sg10
I13
sg11
I0
sbsS'19,14'
p5298
(iMatrix
MatrixElement
p5299
(dp5300
g9
I19
sg10
I14
sg11
I0
sbsS'19,15'
p5301
(iMatrix
MatrixElement
p5302
(dp5303
g9
I19
sg10
I15
sg11
I0
sbsS'19,16'
p5304
(iMatrix
MatrixElement
p5305
(dp5306
g9
I19
sg10
I16
sg11
I0
sbsS'19,17'
p5307
(iMatrix
MatrixElement
p5308
(dp5309
g9
I19
sg10
I17
sg11
F-1.3333250000000096
sbsS'19,18'
p5310
(iMatrix
MatrixElement
p5311
(dp5312
g9
I19
sg10
I18
sg11
I0
sbsS'19,19'
p5313
(iMatrix
MatrixElement
p5314
(dp5315
g9
I19
sg10
I19
sg11
F4.166659375585951
sbsS'18,40'
p5316
(iMatrix
MatrixElement
p5317
(dp5318
g9
I18
sg10
I40
sg11
I0
sbsS'18,41'
p5319
(iMatrix
MatrixElement
p5320
(dp5321
g9
I18
sg10
I41
sg11
I0
sbsS'18,42'
p5322
(iMatrix
MatrixElement
p5323
(dp5324
g9
I18
sg10
I42
sg11
I0
sbsS'18,43'
p5325
(iMatrix
MatrixElement
p5326
(dp5327
g9
I18
sg10
I43
sg11
I0
sbsS'41,5'
p5328
(iMatrix
MatrixElement
p5329
(dp5330
g9
I41
sg10
I5
sg11
I0
sbsS'41,4'
p5331
(iMatrix
MatrixElement
p5332
(dp5333
g9
I41
sg10
I4
sg11
I0
sbsS'41,7'
p5334
(iMatrix
MatrixElement
p5335
(dp5336
g9
I41
sg10
I7
sg11
I0
sbsS'41,6'
p5337
(iMatrix
MatrixElement
p5338
(dp5339
g9
I41
sg10
I6
sg11
I0
sbsS'41,1'
p5340
(iMatrix
MatrixElement
p5341
(dp5342
g9
I41
sg10
I1
sg11
I0
sbsS'3,18'
p5343
(iMatrix
MatrixElement
p5344
(dp5345
g9
I3
sg10
I18
sg11
I0
sbsS'3,19'
p5346
(iMatrix
MatrixElement
p5347
(dp5348
g9
I3
sg10
I19
sg11
I0
sbsS'3,16'
p5349
(iMatrix
MatrixElement
p5350
(dp5351
g9
I3
sg10
I16
sg11
I0
sbsS'3,17'
p5352
(iMatrix
MatrixElement
p5353
(dp5354
g9
I3
sg10
I17
sg11
I0
sbsS'3,14'
p5355
(iMatrix
MatrixElement
p5356
(dp5357
g9
I3
sg10
I14
sg11
I0
sbsS'3,15'
p5358
(iMatrix
MatrixElement
p5359
(dp5360
g9
I3
sg10
I15
sg11
I0
sbsS'3,12'
p5361
(iMatrix
MatrixElement
p5362
(dp5363
g9
I3
sg10
I12
sg11
I0
sbsS'3,13'
p5364
(iMatrix
MatrixElement
p5365
(dp5366
g9
I3
sg10
I13
sg11
I0
sbsS'3,10'
p5367
(iMatrix
MatrixElement
p5368
(dp5369
g9
I3
sg10
I10
sg11
I0
sbsS'3,11'
p5370
(iMatrix
MatrixElement
p5371
(dp5372
g9
I3
sg10
I11
sg11
I0
sbsS'2,20'
p5373
(iMatrix
MatrixElement
p5374
(dp5375
g9
I2
sg10
I20
sg11
I0
sbsS'2,42'
p5376
(iMatrix
MatrixElement
p5377
(dp5378
g9
I2
sg10
I42
sg11
I0
sbsS'2,21'
p5379
(iMatrix
MatrixElement
p5380
(dp5381
g9
I2
sg10
I21
sg11
I0
sbsS'2,22'
p5382
(iMatrix
MatrixElement
p5383
(dp5384
g9
I2
sg10
I22
sg11
I0
sbsS'2,23'
p5385
(iMatrix
MatrixElement
p5386
(dp5387
g9
I2
sg10
I23
sg11
I0
sbsS'2,24'
p5388
(iMatrix
MatrixElement
p5389
(dp5390
g9
I2
sg10
I24
sg11
I0
sbsS'2,25'
p5391
(iMatrix
MatrixElement
p5392
(dp5393
g9
I2
sg10
I25
sg11
I0
sbsS'30,19'
p5394
(iMatrix
MatrixElement
p5395
(dp5396
g9
I30
sg10
I19
sg11
I0
sbsS'30,18'
p5397
(iMatrix
MatrixElement
p5398
(dp5399
g9
I30
sg10
I18
sg11
I0
sbsS'2,43'
p5400
(iMatrix
MatrixElement
p5401
(dp5402
g9
I2
sg10
I43
sg11
I0
sbsS'2,26'
p5403
(iMatrix
MatrixElement
p5404
(dp5405
g9
I2
sg10
I26
sg11
I0
sbsS'30,11'
p5406
(iMatrix
MatrixElement
p5407
(dp5408
g9
I30
sg10
I11
sg11
I0
sbsS'30,10'
p5409
(iMatrix
MatrixElement
p5410
(dp5411
g9
I30
sg10
I10
sg11
I0
sbsS'30,13'
p5412
(iMatrix
MatrixElement
p5413
(dp5414
g9
I30
sg10
I13
sg11
I0
sbsS'30,12'
p5415
(iMatrix
MatrixElement
p5416
(dp5417
g9
I30
sg10
I12
sg11
I0
sbsS'30,15'
p5418
(iMatrix
MatrixElement
p5419
(dp5420
g9
I30
sg10
I15
sg11
I0
sbsS'30,14'
p5421
(iMatrix
MatrixElement
p5422
(dp5423
g9
I30
sg10
I14
sg11
I0
sbsS'30,17'
p5424
(iMatrix
MatrixElement
p5425
(dp5426
g9
I30
sg10
I17
sg11
I0
sbsS'30,16'
p5427
(iMatrix
MatrixElement
p5428
(dp5429
g9
I30
sg10
I16
sg11
F-0.7500187504687603
sbsS'2,28'
p5430
(iMatrix
MatrixElement
p5431
(dp5432
g9
I2
sg10
I28
sg11
I0
sbsS'2,29'
p5433
(iMatrix
MatrixElement
p5434
(dp5435
g9
I2
sg10
I29
sg11
I0
sbsS'2,40'
p5436
(iMatrix
MatrixElement
p5437
(dp5438
g9
I2
sg10
I40
sg11
I0
sbsS'2,41'
p5439
(iMatrix
MatrixElement
p5440
(dp5441
g9
I2
sg10
I41
sg11
I0
sbsS'35,18'
p5442
(iMatrix
MatrixElement
p5443
(dp5444
g9
I35
sg10
I18
sg11
I0
sbsS'35,19'
p5445
(iMatrix
MatrixElement
p5446
(dp5447
g9
I35
sg10
I19
sg11
I0
sbsS'35,16'
p5448
(iMatrix
MatrixElement
p5449
(dp5450
g9
I35
sg10
I16
sg11
I0
sbsS'35,17'
p5451
(iMatrix
MatrixElement
p5452
(dp5453
g9
I35
sg10
I17
sg11
I0
sbsS'35,14'
p5454
(iMatrix
MatrixElement
p5455
(dp5456
g9
I35
sg10
I14
sg11
I0
sbsS'35,15'
p5457
(iMatrix
MatrixElement
p5458
(dp5459
g9
I35
sg10
I15
sg11
I0
sbsS'35,12'
p5460
(iMatrix
MatrixElement
p5461
(dp5462
g9
I35
sg10
I12
sg11
I0
sbsS'35,13'
p5463
(iMatrix
MatrixElement
p5464
(dp5465
g9
I35
sg10
I13
sg11
I0
sbsS'35,10'
p5466
(iMatrix
MatrixElement
p5467
(dp5468
g9
I35
sg10
I10
sg11
I0
sbsS'35,11'
p5469
(iMatrix
MatrixElement
p5470
(dp5471
g9
I35
sg10
I11
sg11
I0
sbsS'18,3'
p5472
(iMatrix
MatrixElement
p5473
(dp5474
g9
I18
sg10
I3
sg11
I0
sbsS'18,2'
p5475
(iMatrix
MatrixElement
p5476
(dp5477
g9
I18
sg10
I2
sg11
I0
sbsS'18,1'
p5478
(iMatrix
MatrixElement
p5479
(dp5480
g9
I18
sg10
I1
sg11
I0
sbsS'18,7'
p5481
(iMatrix
MatrixElement
p5482
(dp5483
g9
I18
sg10
I7
sg11
I0
sbsS'18,6'
p5484
(iMatrix
MatrixElement
p5485
(dp5486
g9
I18
sg10
I6
sg11
I0
sbsS'18,5'
p5487
(iMatrix
MatrixElement
p5488
(dp5489
g9
I18
sg10
I5
sg11
I0
sbsS'18,4'
p5490
(iMatrix
MatrixElement
p5491
(dp5492
g9
I18
sg10
I4
sg11
I0
sbsS'2,44'
p5493
(iMatrix
MatrixElement
p5494
(dp5495
g9
I2
sg10
I44
sg11
I0
sbsS'18,9'
p5496
(iMatrix
MatrixElement
p5497
(dp5498
g9
I18
sg10
I9
sg11
I0
sbsS'18,8'
p5499
(iMatrix
MatrixElement
p5500
(dp5501
g9
I18
sg10
I8
sg11
I0
sbsS'23,24'
p5502
(iMatrix
MatrixElement
p5503
(dp5504
g9
I23
sg10
I24
sg11
I0
sbsS'23,25'
p5505
(iMatrix
MatrixElement
p5506
(dp5507
g9
I23
sg10
I25
sg11
I0
sbsS'23,26'
p5508
(iMatrix
MatrixElement
p5509
(dp5510
g9
I23
sg10
I26
sg11
I0
sbsS'23,27'
p5511
(iMatrix
MatrixElement
p5512
(dp5513
g9
I23
sg10
I27
sg11
I0
sbsS'23,20'
p5514
(iMatrix
MatrixElement
p5515
(dp5516
g9
I23
sg10
I20
sg11
I0
sbsS'23,21'
p5517
(iMatrix
MatrixElement
p5518
(dp5519
g9
I23
sg10
I21
sg11
I0
sbsS'23,22'
p5520
(iMatrix
MatrixElement
p5521
(dp5522
g9
I23
sg10
I22
sg11
F-1.3333249999999972
sbsS'23,23'
p5523
(iMatrix
MatrixElement
p5524
(dp5525
g9
I23
sg10
I23
sg11
F4.166659375585948
sbsS'23,28'
p5526
(iMatrix
MatrixElement
p5527
(dp5528
g9
I23
sg10
I28
sg11
I0
sbsS'23,29'
p5529
(iMatrix
MatrixElement
p5530
(dp5531
g9
I23
sg10
I29
sg11
I0
sbsS'31,29'
p5532
(iMatrix
MatrixElement
p5533
(dp5534
g9
I31
sg10
I29
sg11
I0
sbsS'31,28'
p5535
(iMatrix
MatrixElement
p5536
(dp5537
g9
I31
sg10
I28
sg11
I0
sbsS'31,27'
p5538
(iMatrix
MatrixElement
p5539
(dp5540
g9
I31
sg10
I27
sg11
I0
sbsS'31,26'
p5541
(iMatrix
MatrixElement
p5542
(dp5543
g9
I31
sg10
I26
sg11
I0
sbsS'31,25'
p5544
(iMatrix
MatrixElement
p5545
(dp5546
g9
I31
sg10
I25
sg11
I0
sbsS'31,24'
p5547
(iMatrix
MatrixElement
p5548
(dp5549
g9
I31
sg10
I24
sg11
I0
sbsS'31,23'
p5550
(iMatrix
MatrixElement
p5551
(dp5552
g9
I31
sg10
I23
sg11
I0
sbsS'31,22'
p5553
(iMatrix
MatrixElement
p5554
(dp5555
g9
I31
sg10
I22
sg11
I0
sbsS'31,21'
p5556
(iMatrix
MatrixElement
p5557
(dp5558
g9
I31
sg10
I21
sg11
I0
sbsS'31,20'
p5559
(iMatrix
MatrixElement
p5560
(dp5561
g9
I31
sg10
I20
sg11
I0
sbsS'33,43'
p5562
(iMatrix
MatrixElement
p5563
(dp5564
g9
I33
sg10
I43
sg11
I0
sbsS'33,42'
p5565
(iMatrix
MatrixElement
p5566
(dp5567
g9
I33
sg10
I42
sg11
I0
sbsS'33,41'
p5568
(iMatrix
MatrixElement
p5569
(dp5570
g9
I33
sg10
I41
sg11
I0
sbsS'33,40'
p5571
(iMatrix
MatrixElement
p5572
(dp5573
g9
I33
sg10
I40
sg11
I0
sbsS'33,44'
p5574
(iMatrix
MatrixElement
p5575
(dp5576
g9
I33
sg10
I44
sg11
I0
sbsS'20,29'
p5577
(iMatrix
MatrixElement
p5578
(dp5579
g9
I20
sg10
I29
sg11
I0
sbsS'20,28'
p5580
(iMatrix
MatrixElement
p5581
(dp5582
g9
I20
sg10
I28
sg11
I0
sbsS'20,25'
p5583
(iMatrix
MatrixElement
p5584
(dp5585
g9
I20
sg10
I25
sg11
I0
sbsS'20,24'
p5586
(iMatrix
MatrixElement
p5587
(dp5588
g9
I20
sg10
I24
sg11
I0
sbsS'20,27'
p5589
(iMatrix
MatrixElement
p5590
(dp5591
g9
I20
sg10
I27
sg11
I0
sbsS'20,26'
p5592
(iMatrix
MatrixElement
p5593
(dp5594
g9
I20
sg10
I26
sg11
I0
sbsS'20,21'
p5595
(iMatrix
MatrixElement
p5596
(dp5597
g9
I20
sg10
I21
sg11
I0
sbsS'20,20'
p5598
(iMatrix
MatrixElement
p5599
(dp5600
g9
I20
sg10
I20
sg11
F4.166659375585948
sbsS'20,23'
p5601
(iMatrix
MatrixElement
p5602
(dp5603
g9
I20
sg10
I23
sg11
I0
sbsS'20,22'
p5604
(iMatrix
MatrixElement
p5605
(dp5606
g9
I20
sg10
I22
sg11
I0
sbsS'38,11'
p5607
(iMatrix
MatrixElement
p5608
(dp5609
g9
I38
sg10
I11
sg11
I0
sbsS'38,10'
p5610
(iMatrix
MatrixElement
p5611
(dp5612
g9
I38
sg10
I10
sg11
I0
sbsS'38,13'
p5613
(iMatrix
MatrixElement
p5614
(dp5615
g9
I38
sg10
I13
sg11
I0
sbsS'38,12'
p5616
(iMatrix
MatrixElement
p5617
(dp5618
g9
I38
sg10
I12
sg11
I0
sbsS'38,15'
p5619
(iMatrix
MatrixElement
p5620
(dp5621
g9
I38
sg10
I15
sg11
F-0.7500187504687612
sbsS'38,14'
p5622
(iMatrix
MatrixElement
p5623
(dp5624
g9
I38
sg10
I14
sg11
I0
sbsS'38,17'
p5625
(iMatrix
MatrixElement
p5626
(dp5627
g9
I38
sg10
I17
sg11
I0
sbsS'38,16'
p5628
(iMatrix
MatrixElement
p5629
(dp5630
g9
I38
sg10
I16
sg11
I0
sbsS'38,19'
p5631
(iMatrix
MatrixElement
p5632
(dp5633
g9
I38
sg10
I19
sg11
I0
sbsS'38,18'
p5634
(iMatrix
MatrixElement
p5635
(dp5636
g9
I38
sg10
I18
sg11
I0
sbsS'28,25'
p5637
(iMatrix
MatrixElement
p5638
(dp5639
g9
I28
sg10
I25
sg11
I0
sbsS'28,24'
p5640
(iMatrix
MatrixElement
p5641
(dp5642
g9
I28
sg10
I24
sg11
I0
sbsS'28,27'
p5643
(iMatrix
MatrixElement
p5644
(dp5645
g9
I28
sg10
I27
sg11
F-1.3333250000000028
sbsS'28,26'
p5646
(iMatrix
MatrixElement
p5647
(dp5648
g9
I28
sg10
I26
sg11
I0
sbsS'28,21'
p5649
(iMatrix
MatrixElement
p5650
(dp5651
g9
I28
sg10
I21
sg11
I0
sbsS'28,20'
p5652
(iMatrix
MatrixElement
p5653
(dp5654
g9
I28
sg10
I20
sg11
I0
sbsS'28,23'
p5655
(iMatrix
MatrixElement
p5656
(dp5657
g9
I28
sg10
I23
sg11
I0
sbsS'28,22'
p5658
(iMatrix
MatrixElement
p5659
(dp5660
g9
I28
sg10
I22
sg11
I0
sbsS'28,29'
p5661
(iMatrix
MatrixElement
p5662
(dp5663
g9
I28
sg10
I29
sg11
F-1.333325000000002
sbsS'28,28'
p5664
(iMatrix
MatrixElement
p5665
(dp5666
g9
I28
sg10
I28
sg11
F4.1666593755859545
sbsS'1,38'
p5667
(iMatrix
MatrixElement
p5668
(dp5669
g9
I1
sg10
I38
sg11
I0
sbsS'1,39'
p5670
(iMatrix
MatrixElement
p5671
(dp5672
g9
I1
sg10
I39
sg11
I0
sbsS'1,36'
p5673
(iMatrix
MatrixElement
p5674
(dp5675
g9
I1
sg10
I36
sg11
I0
sbsS'1,37'
p5676
(iMatrix
MatrixElement
p5677
(dp5678
g9
I1
sg10
I37
sg11
I0
sbsS'1,34'
p5679
(iMatrix
MatrixElement
p5680
(dp5681
g9
I1
sg10
I34
sg11
I0
sbsS'1,35'
p5682
(iMatrix
MatrixElement
p5683
(dp5684
g9
I1
sg10
I35
sg11
I0
sbsS'1,32'
p5685
(iMatrix
MatrixElement
p5686
(dp5687
g9
I1
sg10
I32
sg11
I0
sbsS'1,33'
p5688
(iMatrix
MatrixElement
p5689
(dp5690
g9
I1
sg10
I33
sg11
I0
sbsS'1,30'
p5691
(iMatrix
MatrixElement
p5692
(dp5693
g9
I1
sg10
I30
sg11
I0
sbsS'1,31'
p5694
(iMatrix
MatrixElement
p5695
(dp5696
g9
I1
sg10
I31
sg11
I0
sbsS'7,8'
p5697
(iMatrix
MatrixElement
p5698
(dp5699
g9
I7
sg10
I8
sg11
I0
sbsS'7,9'
p5700
(iMatrix
MatrixElement
p5701
(dp5702
g9
I7
sg10
I9
sg11
F-1.3333249999999999
sbsS'18,44'
p5703
(iMatrix
MatrixElement
p5704
(dp5705
g9
I18
sg10
I44
sg11
I0
sbsS'7,1'
p5706
(iMatrix
MatrixElement
p5707
(dp5708
g9
I7
sg10
I1
sg11
I0
sbsS'7,2'
p5709
(iMatrix
MatrixElement
p5710
(dp5711
g9
I7
sg10
I2
sg11
I0
sbsS'7,3'
p5712
(iMatrix
MatrixElement
p5713
(dp5714
g9
I7
sg10
I3
sg11
I0
sbsS'7,4'
p5715
(iMatrix
MatrixElement
p5716
(dp5717
g9
I7
sg10
I4
sg11
I0
sbsS'7,5'
p5718
(iMatrix
MatrixElement
p5719
(dp5720
g9
I7
sg10
I5
sg11
F-1.3333249999999963
sbsS'7,6'
p5721
(iMatrix
MatrixElement
p5722
(dp5723
g9
I7
sg10
I6
sg11
I0
sbsS'7,7'
p5724
(iMatrix
MatrixElement
p5725
(dp5726
g9
I7
sg10
I7
sg11
F4.166659375585938
sbsS'14,39'
p5727
(iMatrix
MatrixElement
p5728
(dp5729
g9
I14
sg10
I39
sg11
I0
sbsS'14,38'
p5730
(iMatrix
MatrixElement
p5731
(dp5732
g9
I14
sg10
I38
sg11
I0
sbsS'14,35'
p5733
(iMatrix
MatrixElement
p5734
(dp5735
g9
I14
sg10
I35
sg11
I0
sbsS'14,34'
p5736
(iMatrix
MatrixElement
p5737
(dp5738
g9
I14
sg10
I34
sg11
I0
sbsS'14,37'
p5739
(iMatrix
MatrixElement
p5740
(dp5741
g9
I14
sg10
I37
sg11
I0
sbsS'14,36'
p5742
(iMatrix
MatrixElement
p5743
(dp5744
g9
I14
sg10
I36
sg11
I0
sbsS'14,31'
p5745
(iMatrix
MatrixElement
p5746
(dp5747
g9
I14
sg10
I31
sg11
I0
sbsS'14,30'
p5748
(iMatrix
MatrixElement
p5749
(dp5750
g9
I14
sg10
I30
sg11
I0
sbsS'14,33'
p5751
(iMatrix
MatrixElement
p5752
(dp5753
g9
I14
sg10
I33
sg11
I0
sbsS'14,32'
p5754
(iMatrix
MatrixElement
p5755
(dp5756
g9
I14
sg10
I32
sg11
I0
sbsS'27,28'
p5757
(iMatrix
MatrixElement
p5758
(dp5759
g9
I27
sg10
I28
sg11
F-1.3333250000000028
sbsS'27,29'
p5760
(iMatrix
MatrixElement
p5761
(dp5762
g9
I27
sg10
I29
sg11
I0
sbsS'27,20'
p5763
(iMatrix
MatrixElement
p5764
(dp5765
g9
I27
sg10
I20
sg11
I0
sbsS'27,21'
p5766
(iMatrix
MatrixElement
p5767
(dp5768
g9
I27
sg10
I21
sg11
I0
sbsS'27,22'
p5769
(iMatrix
MatrixElement
p5770
(dp5771
g9
I27
sg10
I22
sg11
I0
sbsS'27,23'
p5772
(iMatrix
MatrixElement
p5773
(dp5774
g9
I27
sg10
I23
sg11
I0
sbsS'27,24'
p5775
(iMatrix
MatrixElement
p5776
(dp5777
g9
I27
sg10
I24
sg11
I0
sbsS'27,25'
p5778
(iMatrix
MatrixElement
p5779
(dp5780
g9
I27
sg10
I25
sg11
I0
sbsS'27,26'
p5781
(iMatrix
MatrixElement
p5782
(dp5783
g9
I27
sg10
I26
sg11
F-1.333324999999999
sbsS'27,27'
p5784
(iMatrix
MatrixElement
p5785
(dp5786
g9
I27
sg10
I27
sg11
F4.166659375585949
sbsS'24,21'
p5787
(iMatrix
MatrixElement
p5788
(dp5789
g9
I24
sg10
I21
sg11
I0
sbsS'24,20'
p5790
(iMatrix
MatrixElement
p5791
(dp5792
g9
I24
sg10
I20
sg11
I0
sbsS'24,23'
p5793
(iMatrix
MatrixElement
p5794
(dp5795
g9
I24
sg10
I23
sg11
I0
sbsS'24,22'
p5796
(iMatrix
MatrixElement
p5797
(dp5798
g9
I24
sg10
I22
sg11
I0
sbsS'24,25'
p5799
(iMatrix
MatrixElement
p5800
(dp5801
g9
I24
sg10
I25
sg11
F-1.3333250000000003
sbsS'24,24'
p5802
(iMatrix
MatrixElement
p5803
(dp5804
g9
I24
sg10
I24
sg11
F4.166659375585949
sbsS'24,27'
p5805
(iMatrix
MatrixElement
p5806
(dp5807
g9
I24
sg10
I27
sg11
I0
sbsS'24,26'
p5808
(iMatrix
MatrixElement
p5809
(dp5810
g9
I24
sg10
I26
sg11
I0
sbsS'24,29'
p5811
(iMatrix
MatrixElement
p5812
(dp5813
g9
I24
sg10
I29
sg11
I0
sbsS'24,28'
p5814
(iMatrix
MatrixElement
p5815
(dp5816
g9
I24
sg10
I28
sg11
I0
sbssS'columns'
p5817
I44
sba(iMatrix
Matrix
p5818
(dp5819
g3
I44
sg4
(dp5820
S'5,1'
p5821
(iMatrix
MatrixElement
p5822
(dp5823
g9
I5
sg10
I1
sg11
I0
sbsS'43,1'
p5824
(iMatrix
MatrixElement
p5825
(dp5826
g9
I43
sg10
I1
sg11
I0
sbsS'37,1'
p5827
(iMatrix
MatrixElement
p5828
(dp5829
g9
I37
sg10
I1
sg11
I0
sbsS'31,1'
p5830
(iMatrix
MatrixElement
p5831
(dp5832
g9
I31
sg10
I1
sg11
I0
sbsS'6,1'
p5833
(iMatrix
MatrixElement
p5834
(dp5835
g9
I6
sg10
I1
sg11
I0
sbsS'35,1'
p5836
(iMatrix
MatrixElement
p5837
(dp5838
g9
I35
sg10
I1
sg11
I0
sbsS'1,1'
p5839
(iMatrix
MatrixElement
p5840
(dp5841
g9
I1
sg10
I1
sg11
I0
sbsS'13,1'
p5842
(iMatrix
MatrixElement
p5843
(dp5844
g9
I13
sg10
I1
sg11
I0
sbsS'8,1'
p5845
(iMatrix
MatrixElement
p5846
(dp5847
g9
I8
sg10
I1
sg11
I0
sbsS'19,1'
p5848
(iMatrix
MatrixElement
p5849
(dp5850
g9
I19
sg10
I1
sg11
I0
sbsS'36,1'
p5851
(iMatrix
MatrixElement
p5852
(dp5853
g9
I36
sg10
I1
sg11
F16.666749999999997
sbsS'12,1'
p5854
(iMatrix
MatrixElement
p5855
(dp5856
g9
I12
sg10
I1
sg11
I0
sbsS'33,1'
p5857
(iMatrix
MatrixElement
p5858
(dp5859
g9
I33
sg10
I1
sg11
F7.499906251171846
sbsS'2,1'
p5860
(iMatrix
MatrixElement
p5861
(dp5862
g9
I2
sg10
I1
sg11
I0
sbsS'4,1'
p5863
(iMatrix
MatrixElement
p5864
(dp5865
g9
I4
sg10
I1
sg11
I0
sbsS'42,1'
p5866
(iMatrix
MatrixElement
p5867
(dp5868
g9
I42
sg10
I1
sg11
F16.666750000000064
sbsS'32,1'
p5869
(iMatrix
MatrixElement
p5870
(dp5871
g9
I32
sg10
I1
sg11
I0
sbsS'9,1'
p5872
(iMatrix
MatrixElement
p5873
(dp5874
g9
I9
sg10
I1
sg11
I0
sbsS'7,1'
p5875
(iMatrix
MatrixElement
p5876
(dp5877
g9
I7
sg10
I1
sg11
I0
sbsS'11,1'
p5878
(iMatrix
MatrixElement
p5879
(dp5880
g9
I11
sg10
I1
sg11
I0
sbsS'3,1'
p5881
(iMatrix
MatrixElement
p5882
(dp5883
g9
I3
sg10
I1
sg11
I0
sbsS'20,1'
p5884
(iMatrix
MatrixElement
p5885
(dp5886
g9
I20
sg10
I1
sg11
I0
sbsS'41,1'
p5887
(iMatrix
MatrixElement
p5888
(dp5889
g9
I41
sg10
I1
sg11
F16.666749999999983
sbsS'17,1'
p5890
(iMatrix
MatrixElement
p5891
(dp5892
g9
I17
sg10
I1
sg11
I0
sbsS'10,1'
p5893
(iMatrix
MatrixElement
p5894
(dp5895
g9
I10
sg10
I1
sg11
I0
sbsS'16,1'
p5896
(iMatrix
MatrixElement
p5897
(dp5898
g9
I16
sg10
I1
sg11
I0
sbsS'21,1'
p5899
(iMatrix
MatrixElement
p5900
(dp5901
g9
I21
sg10
I1
sg11
F7.499906251171867
sbsS'28,1'
p5902
(iMatrix
MatrixElement
p5903
(dp5904
g9
I28
sg10
I1
sg11
F7.499906251171873
sbsS'44,1'
p5905
(iMatrix
MatrixElement
p5906
(dp5907
g9
I44
sg10
I1
sg11
I0
sbsS'38,1'
p5908
(iMatrix
MatrixElement
p5909
(dp5910
g9
I38
sg10
I1
sg11
I0
sbsS'40,1'
p5911
(iMatrix
MatrixElement
p5912
(dp5913
g9
I40
sg10
I1
sg11
F16.6667500000001
sbsS'26,1'
p5914
(iMatrix
MatrixElement
p5915
(dp5916
g9
I26
sg10
I1
sg11
F7.499906251171867
sbsS'29,1'
p5917
(iMatrix
MatrixElement
p5918
(dp5919
g9
I29
sg10
I1
sg11
F7.499906251171864
sbsS'27,1'
p5920
(iMatrix
MatrixElement
p5921
(dp5922
g9
I27
sg10
I1
sg11
F7.499906251171864
sbsS'39,1'
p5923
(iMatrix
MatrixElement
p5924
(dp5925
g9
I39
sg10
I1
sg11
I0
sbsS'24,1'
p5926
(iMatrix
MatrixElement
p5927
(dp5928
g9
I24
sg10
I1
sg11
I0
sbsS'15,1'
p5929
(iMatrix
MatrixElement
p5930
(dp5931
g9
I15
sg10
I1
sg11
I0
sbsS'30,1'
p5932
(iMatrix
MatrixElement
p5933
(dp5934
g9
I30
sg10
I1
sg11
F7.499906251171846
sbsS'18,1'
p5935
(iMatrix
MatrixElement
p5936
(dp5937
g9
I18
sg10
I1
sg11
I0
sbsS'34,1'
p5938
(iMatrix
MatrixElement
p5939
(dp5940
g9
I34
sg10
I1
sg11
F7.499906251171867
sbsS'22,1'
p5941
(iMatrix
MatrixElement
p5942
(dp5943
g9
I22
sg10
I1
sg11
F7.499906251171888
sbsS'25,1'
p5944
(iMatrix
MatrixElement
p5945
(dp5946
g9
I25
sg10
I1
sg11
I0
sbsS'23,1'
p5947
(iMatrix
MatrixElement
p5948
(dp5949
g9
I23
sg10
I1
sg11
F7.499906251171886
sbsS'14,1'
p5950
(iMatrix
MatrixElement
p5951
(dp5952
g9
I14
sg10
I1
sg11
I0
sbssg5817
I1
sba(dp5953
I1
(iMeshStructure
Node
p5954
(dp5955
S'y'
p5956
F0.0
sS'x'
p5957
F0.0
sS'number'
p5958
I1
sS'voltage'
p5959
F0.0
sbsI2
(iMeshStructure
Node
p5960
(dp5961
g5956
F0.0
sg5957
F0.02
sg5958
I2
sg5959
F0.0
sbsI3
(iMeshStructure
Node
p5962
(dp5963
g5956
F0.0
sg5957
F0.04
sg5958
I3
sg5959
F0.0
sbsI4
(iMeshStructure
Node
p5964
(dp5965
g5956
F0.0
sg5957
F0.06
sg5958
I4
sg5959
F0.0
sbsI5
(iMeshStructure
Node
p5966
(dp5967
g5956
F0.0
sg5957
F0.08
sg5958
I5
sg5959
F0.0
sbsI6
(iMeshStructure
Node
p5968
(dp5969
g5956
F0.0
sg5957
F0.1
sg5958
I6
sg5959
F0.0
sbsI7
(iMeshStructure
Node
p5970
(dp5971
g5956
F0.0
sg5957
F0.12
sg5958
I7
sg5959
F0.0
sbsI8
(iMeshStructure
Node
p5972
(dp5973
g5956
F0.0
sg5957
F0.14
sg5958
I8
sg5959
F0.0
sbsI9
(iMeshStructure
Node
p5974
(dp5975
g5956
F0.0
sg5957
F0.16
sg5958
I9
sg5959
F0.0
sbsI10
(iMeshStructure
Node
p5976
(dp5977
g5956
F0.0
sg5957
F0.18
sg5958
I10
sg5959
F0.0
sbsI11
(iMeshStructure
Node
p5978
(dp5979
g5956
F0.0
sg5957
F0.2
sg5958
I11
sg5959
F0.0
sbsI12
(iMeshStructure
Node
p5980
(dp5981
g5956
F0.026667
sg5957
F0.0
sg5958
I12
sg5959
F0.0
sbsI13
(iMeshStructure
Node
p5982
(dp5983
g5956
F0.026667
sg5957
F0.02
sg5958
I13
sg5959
F0.0
sbsI14
(iMeshStructure
Node
p5984
(dp5985
g5956
F0.026667
sg5957
F0.04
sg5958
I14
sg5959
F0.0
sbsI15
(iMeshStructure
Node
p5986
(dp5987
g5956
F0.026667
sg5957
F0.06
sg5958
I15
sg5959
F0.0
sbsI16
(iMeshStructure
Node
p5988
(dp5989
g5956
F0.026667
sg5957
F0.08
sg5958
I16
sg5959
F0.0
sbsI17
(iMeshStructure
Node
p5990
(dp5991
g5956
F0.026667
sg5957
F0.1
sg5958
I17
sg5959
F0.0
sbsI18
(iMeshStructure
Node
p5992
(dp5993
g5956
F0.026667
sg5957
F0.12
sg5958
I18
sg5959
F0.0
sbsI19
(iMeshStructure
Node
p5994
(dp5995
g5956
F0.026667
sg5957
F0.14
sg5958
I19
sg5959
F0.0
sbsI20
(iMeshStructure
Node
p5996
(dp5997
g5956
F0.026667
sg5957
F0.16
sg5958
I20
sg5959
F0.0
sbsI21
(iMeshStructure
Node
p5998
(dp5999
g5956
F0.026667
sg5957
F0.18
sg5958
I21
sg5959
F0.0
sbsI22
(iMeshStructure
Node
p6000
(dp6001
g5956
F0.026667
sg5957
F0.2
sg5958
I22
sg5959
F0.0
sbsI23
(iMeshStructure
Node
p6002
(dp6003
g5956
F0.053333
sg5957
F0.0
sg5958
I23
sg5959
F0.0
sbsI24
(iMeshStructure
Node
p6004
(dp6005
g5956
F0.053333
sg5957
F0.02
sg5958
I24
sg5959
F0.0
sbsI25
(iMeshStructure
Node
p6006
(dp6007
g5956
F0.053333
sg5957
F0.04
sg5958
I25
sg5959
F0.0
sbsI26
(iMeshStructure
Node
p6008
(dp6009
g5956
F0.053333
sg5957
F0.06
sg5958
I26
sg5959
F0.0
sbsI27
(iMeshStructure
Node
p6010
(dp6011
g5956
F0.053333
sg5957
F0.08
sg5958
I27
sg5959
F0.0
sbsI28
(iMeshStructure
Node
p6012
(dp6013
g5956
F0.053333
sg5957
F0.1
sg5958
I28
sg5959
F0.0
sbsI29
(iMeshStructure
Node
p6014
(dp6015
g5956
F0.053333
sg5957
F0.12
sg5958
I29
sg5959
F0.0
sbsI30
(iMeshStructure
Node
p6016
(dp6017
g5956
F0.053333
sg5957
F0.14
sg5958
I30
sg5959
F0.0
sbsI31
(iMeshStructure
Node
p6018
(dp6019
g5956
F0.053333
sg5957
F0.16
sg5958
I31
sg5959
F0.0
sbsI32
(iMeshStructure
Node
p6020
(dp6021
g5956
F0.053333
sg5957
F0.18
sg5958
I32
sg5959
F0.0
sbsI33
(iMeshStructure
Node
p6022
(dp6023
g5956
F0.053333
sg5957
F0.2
sg5958
I33
sg5959
F0.0
sbsI34
(iMeshStructure
Node
p6024
(dp6025
g5956
F0.08
sg5957
F0.0
sg5958
I34
sg5959
F0.0
sbsI35
(iMeshStructure
Node
p6026
(dp6027
g5956
F0.08
sg5957
F0.02
sg5958
I35
sg5959
F0.0
sbsI36
(iMeshStructure
Node
p6028
(dp6029
g5956
F0.08
sg5957
F0.04
sg5958
I36
sg5959
F0.0
sbsI37
(iMeshStructure
Node
p6030
(dp6031
g5956
F0.08
sg5957
F0.06
sg5958
I37
sg5959
F10.0
sbsI38
(iMeshStructure
Node
p6032
(dp6033
g5956
F0.08
sg5957
F0.08
sg5958
I38
sg5959
F10.0
sbsI39
(iMeshStructure
Node
p6034
(dp6035
g5956
F0.08
sg5957
F0.1
sg5958
I39
sg5959
F10.0
sbsI40
(iMeshStructure
Node
p6036
(dp6037
g5956
F0.08
sg5957
F0.12
sg5958
I40
sg5959
F10.0
sbsI41
(iMeshStructure
Node
p6038
(dp6039
g5956
F0.08
sg5957
F0.14
sg5958
I41
sg5959
F10.0
sbsI42
(iMeshStructure
Node
p6040
(dp6041
g5956
F0.08
sg5957
F0.16
sg5958
I42
sg5959
F0.0
sbsI43
(iMeshStructure
Node
p6042
(dp6043
g5956
F0.08
sg5957
F0.18
sg5958
I43
sg5959
F0.0
sbsI44
(iMeshStructure
Node
p6044
(dp6045
g5956
F0.08
sg5957
F0.2
sg5958
I44
sg5959
F0.0
sbsI45
(iMeshStructure
Node
p6046
(dp6047
g5956
F0.12
sg5957
F0.0
sg5958
I45
sg5959
F0.0
sbsI46
(iMeshStructure
Node
p6048
(dp6049
g5956
F0.12
sg5957
F0.02
sg5958
I46
sg5959
F0.0
sbsI47
(iMeshStructure
Node
p6050
(dp6051
g5956
F0.12
sg5957
F0.04
sg5958
I47
sg5959
F0.0
sbsI48
(iMeshStructure
Node
p6052
(dp6053
g5956
F0.12
sg5957
F0.06
sg5958
I48
sg5959
F10.0
sbsI49
(iMeshStructure
Node
p6054
(dp6055
g5956
F0.12
sg5957
F0.08
sg5958
I49
sg5959
F10.0
sbsI50
(iMeshStructure
Node
p6056
(dp6057
g5956
F0.12
sg5957
F0.1
sg5958
I50
sg5959
F10.0
sbsI51
(iMeshStructure
Node
p6058
(dp6059
g5956
F0.12
sg5957
F0.12
sg5958
I51
sg5959
F10.0
sbsI52
(iMeshStructure
Node
p6060
(dp6061
g5956
F0.12
sg5957
F0.14
sg5958
I52
sg5959
F10.0
sbsI53
(iMeshStructure
Node
p6062
(dp6063
g5956
F0.12
sg5957
F0.16
sg5958
I53
sg5959
F0.0
sbsI54
(iMeshStructure
Node
p6064
(dp6065
g5956
F0.12
sg5957
F0.18
sg5958
I54
sg5959
F0.0
sbsI55
(iMeshStructure
Node
p6066
(dp6067
g5956
F0.12
sg5957
F0.2
sg5958
I55
sg5959
F0.0
sbsI56
(iMeshStructure
Node
p6068
(dp6069
g5956
F0.146667
sg5957
F0.0
sg5958
I56
sg5959
F0.0
sbsI57
(iMeshStructure
Node
p6070
(dp6071
g5956
F0.146667
sg5957
F0.02
sg5958
I57
sg5959
F0.0
sbsI58
(iMeshStructure
Node
p6072
(dp6073
g5956
F0.146667
sg5957
F0.04
sg5958
I58
sg5959
F0.0
sbsI59
(iMeshStructure
Node
p6074
(dp6075
g5956
F0.146667
sg5957
F0.06
sg5958
I59
sg5959
F0.0
sbsI60
(iMeshStructure
Node
p6076
(dp6077
g5956
F0.146667
sg5957
F0.08
sg5958
I60
sg5959
F0.0
sbsI61
(iMeshStructure
Node
p6078
(dp6079
g5956
F0.146667
sg5957
F0.1
sg5958
I61
sg5959
F0.0
sbsI62
(iMeshStructure
Node
p6080
(dp6081
g5956
F0.146667
sg5957
F0.12
sg5958
I62
sg5959
F0.0
sbsI63
(iMeshStructure
Node
p6082
(dp6083
g5956
F0.146667
sg5957
F0.14
sg5958
I63
sg5959
F0.0
sbsI64
(iMeshStructure
Node
p6084
(dp6085
g5956
F0.146667
sg5957
F0.16
sg5958
I64
sg5959
F0.0
sbsI65
(iMeshStructure
Node
p6086
(dp6087
g5956
F0.146667
sg5957
F0.18
sg5958
I65
sg5959
F0.0
sbsI66
(iMeshStructure
Node
p6088
(dp6089
g5956
F0.146667
sg5957
F0.2
sg5958
I66
sg5959
F0.0
sbsI67
(iMeshStructure
Node
p6090
(dp6091
g5956
F0.173333
sg5957
F0.0
sg5958
I67
sg5959
F0.0
sbsI68
(iMeshStructure
Node
p6092
(dp6093
g5956
F0.173333
sg5957
F0.02
sg5958
I68
sg5959
F0.0
sbsI69
(iMeshStructure
Node
p6094
(dp6095
g5956
F0.173333
sg5957
F0.04
sg5958
I69
sg5959
F0.0
sbsI70
(iMeshStructure
Node
p6096
(dp6097
g5956
F0.173333
sg5957
F0.06
sg5958
I70
sg5959
F0.0
sbsI71
(iMeshStructure
Node
p6098
(dp6099
g5956
F0.173333
sg5957
F0.08
sg5958
I71
sg5959
F0.0
sbsI72
(iMeshStructure
Node
p6100
(dp6101
g5956
F0.173333
sg5957
F0.1
sg5958
I72
sg5959
F0.0
sbsI73
(iMeshStructure
Node
p6102
(dp6103
g5956
F0.173333
sg5957
F0.12
sg5958
I73
sg5959
F0.0
sbsI74
(iMeshStructure
Node
p6104
(dp6105
g5956
F0.173333
sg5957
F0.14
sg5958
I74
sg5959
F0.0
sbsI75
(iMeshStructure
Node
p6106
(dp6107
g5956
F0.173333
sg5957
F0.16
sg5958
I75
sg5959
F0.0
sbsI76
(iMeshStructure
Node
p6108
(dp6109
g5956
F0.173333
sg5957
F0.18
sg5958
I76
sg5959
F0.0
sbsI77
(iMeshStructure
Node
p6110
(dp6111
g5956
F0.173333
sg5957
F0.2
sg5958
I77
sg5959
F0.0
sbsI78
(iMeshStructure
Node
p6112
(dp6113
g5956
F0.2
sg5957
F0.0
sg5958
I78
sg5959
F0.0
sbsI79
(iMeshStructure
Node
p6114
(dp6115
g5956
F0.2
sg5957
F0.02
sg5958
I79
sg5959
F0.0
sbsI80
(iMeshStructure
Node
p6116
(dp6117
g5956
F0.2
sg5957
F0.04
sg5958
I80
sg5959
F0.0
sbsI81
(iMeshStructure
Node
p6118
(dp6119
g5956
F0.2
sg5957
F0.06
sg5958
I81
sg5959
F0.0
sbsI82
(iMeshStructure
Node
p6120
(dp6121
g5956
F0.2
sg5957
F0.08
sg5958
I82
sg5959
F0.0
sbsI83
(iMeshStructure
Node
p6122
(dp6123
g5956
F0.2
sg5957
F0.1
sg5958
I83
sg5959
F0.0
sbsI84
(iMeshStructure
Node
p6124
(dp6125
g5956
F0.2
sg5957
F0.12
sg5958
I84
sg5959
F0.0
sbsI85
(iMeshStructure
Node
p6126
(dp6127
g5956
F0.2
sg5957
F0.14
sg5958
I85
sg5959
F0.0
sbsI86
(iMeshStructure
Node
p6128
(dp6129
g5956
F0.2
sg5957
F0.16
sg5958
I86
sg5959
F0.0
sbsI87
(iMeshStructure
Node
p6130
(dp6131
g5956
F0.2
sg5957
F0.18
sg5958
I87
sg5959
F0.0
sbsI88
(iMeshStructure
Node
p6132
(dp6133
g5956
F0.2
sg5957
F0.2
sg5958
I88
sg5959
F0.0
sbsa(lp6134
I1
aI2
aI3
aI4
aI5
aI6
aI7
aI8
aI9
aI10
aI11
aI12
aI22
aI23
aI33
aI34
aI37
aI38
aI39
aI40
aI41
aI44
aI45
aI48
aI49
aI50
aI51
aI52
aI55
aI56
aI66
aI67
aI77
aI78
aI79
aI80
aI81
aI82
aI83
aI84
aI85
aI86
aI87
aI88
aa(lp6135
I76
aI75
aI74
aI13
aI73
aI14
aI72
aI15
aI71
aI16
aI70
aI17
aI69
aI18
aI68
aI19
aI65
aI20
aI64
aI21
aI63
aI62
aI61
aI24
aI25
aI26
aI27
aI28
aI29
aI30
aI31
aI32
aI60
aI59
aI35
aI36
aI58
aI57
aI54
aI53
aI47
aI42
aI43
aI46
aI45
aI44
aI41
aI48
aI52
aI40
aI39
aI55
aI56
aI38
aI37
aI34
aI49
aI33
aI50
aI23
aI51
aI22
aI11
aI10
aI9
aI66
aI67
aI8
aI7
aI6
aI5
aI4
aI3
aI12
aI2
aI1
aI77
aI78
aI79
aI80
aI81
aI82
aI83
aI84
aI85
aI86
aI87
aI88
aa.